

HI-TECH Software PIC LITE Macro Assembler V9.81 build 7503 
                                                                                               Sat Jun 02 19:04:21 2012

HI-TECH Software Omniscient Code Generator (Lite mode) build 7503
     1  0000                     opt subtitle "HI-TECH Software Omniscient Code Generator (Lite mode) build 7503"
     2                           
     3                           opt pagewidth 120
     4                           
     5                           	opt lm
     6                           
     7                           	processor	16F887
     8                           clrc	macro
     9                           	bcf	3,0
    10  0000                     	endm
    11                           clrz	macro
    12                           	bcf	3,2
    13  0000                     	endm
    14                           setc	macro
    15                           	bsf	3,0
    16  0000                     	endm
    17                           setz	macro
    18                           	bsf	3,2
    19  0000                     	endm
    20                           skipc	macro
    21                           	btfss	3,0
    22  0000                     	endm
    23                           skipz	macro
    24                           	btfss	3,2
    25  0000                     	endm
    26                           skipnc	macro
    27                           	btfsc	3,0
    28  0000                     	endm
    29                           skipnz	macro
    30                           	btfsc	3,2
    31  0000                     	endm
    32  0000                     indf	equ	0
    33  0000                     indf0	equ	0
    34  0002                     pc	equ	2
    35  0002                     pcl	equ	2
    36  0003                     status	equ	3
    37  0004                     fsr	equ	4
    38  0004                     fsr0	equ	4
    39  0001                     c	equ	1
    40  0000                     z	equ	0
    41  000A                     pclath	equ	10
    42                           # 7 "C:\Users\Studio-Master\Desktop\Work\THC\27.05_DTHC\DisplayDTHC\main.c"
    43                           	psect config,class=CONFIG,delta=2 ;#
    44                           # 7 "C:\Users\Studio-Master\Desktop\Work\THC\27.05_DTHC\DisplayDTHC\main.c"
    45  2007  E0EA               	dw 0xFFFF & 0xFFEF & 0xFFFA & 0xFFFF & 0xFFFF & 0xFFFF & 0xFCFF & 0xFBFF & 0xF7FF & 0xE
                                 FFF & 0xFFFF ;#
    46                           # 10 "C:\Users\Studio-Master\Desktop\Work\THC\27.05_DTHC\DisplayDTHC\main.c"
    47                           	psect config,class=CONFIG,delta=2 ;#
    48                           # 10 "C:\Users\Studio-Master\Desktop\Work\THC\27.05_DTHC\DisplayDTHC\main.c"
    49  2008  FFFF               	dw 0xFFFF ;#
    50                           	FNCALL	_main,_Init_Button_Port
    51                           	FNCALL	_main,_Init_DTHC_LCD
    52                           	FNCALL	_main,_LCD_SetMode
    53                           	FNCALL	_main,_init_comms
    54                           	FNCALL	_main,_SetValueTipV
    55                           	FNCALL	_main,_SetValueSetV
    56                           	FNCALL	_main,_SetVisible_TOR
    57                           	FNCALL	_main,_SetVisible_ARC
    58                           	FNCALL	_main,_SetArrow
    59                           	FNCALL	_main,_LCD_Update
    60                           	FNCALL	_main,_GetButton
    61                           	FNCALL	_main,_LCD_SetEditValue
    62                           	FNCALL	_main,___wmul
    63                           	FNCALL	_main,_LCD_SubMode
    64                           	FNCALL	_main,_LCD_Repaint
    65                           	FNCALL	_main,_SetValueTipI
    66                           	FNCALL	_main,___lwdiv
    67                           	FNCALL	_main,___lwmod
    68                           	FNCALL	_main,___awdiv
    69                           	FNCALL	_main,___awmod
    70                           	FNCALL	_main,_putch
    71                           	FNCALL	_LCD_Repaint,_Clear_LCD
    72                           	FNCALL	_LCD_Repaint,_SetCursor
    73                           	FNCALL	_LCD_Repaint,_strcpy
    74                           	FNCALL	_LCD_Repaint,_print_LCD
    75                           	FNCALL	_LCD_Repaint,_WriteDataLCD
    76                           	FNCALL	_LCD_Repaint,_Enable_Blink_LCD
    77                           	FNCALL	_LCD_Repaint,_sprintf
    78                           	FNCALL	_LCD_SetEditValue,_SetCursor
    79                           	FNCALL	_LCD_SetEditValue,_WriteDataLCD
    80                           	FNCALL	_LCD_SetEditValue,_strcpy
    81                           	FNCALL	_LCD_SetEditValue,_print_LCD
    82                           	FNCALL	_LCD_Update,_SetCursor
    83                           	FNCALL	_LCD_Update,_sprintf
    84                           	FNCALL	_LCD_Update,_print_LCD
    85                           	FNCALL	_LCD_Update,_WriteDataLCD
    86                           	FNCALL	_LCD_SetMode,_Clear_LCD
    87                           	FNCALL	_LCD_SetMode,_SetCursor
    88                           	FNCALL	_LCD_SetMode,_strcpy
    89                           	FNCALL	_LCD_SetMode,_print_LCD
    90                           	FNCALL	_LCD_SetMode,_Enable_Blink_LCD
    91                           	FNCALL	_LCD_SetMode,_sprintf
    92                           	FNCALL	_LCD_SetMode,_WriteDataLCD
    93                           	FNCALL	_Init_DTHC_LCD,_Initial_4bitLCD
    94                           	FNCALL	_Init_DTHC_LCD,_WriteCmdLCD
    95                           	FNCALL	_Init_DTHC_LCD,_WriteDataLCD
    96                           	FNCALL	_print_LCD,_WriteDataLCD
    97                           	FNCALL	_Clear_LCD,_WriteCmdLCD
    98                           	FNCALL	_Clear_LCD,_Lcd_Special_Delay
    99                           	FNCALL	_Enable_Blink_LCD,_WriteCmdLCD
   100                           	FNCALL	_Enable_Blink_LCD,_Lcd_Special_Delay
   101                           	FNCALL	_Initial_4bitLCD,_Lcd_Init_Delay
   102                           	FNCALL	_Initial_4bitLCD,_Delay_tW_LCD
   103                           	FNCALL	_Initial_4bitLCD,_Lcd_Special_Delay
   104                           	FNCALL	_Initial_4bitLCD,_WriteCmdLCD
   105                           	FNCALL	_WriteDataLCD,_Read_BusyLCD
   106                           	FNCALL	_WriteDataLCD,_Delay_tW_LCD
   107                           	FNCALL	_SetCursor,_Read_BusyLCD
   108                           	FNCALL	_SetCursor,_Delay_tW_LCD
   109                           	FNCALL	_WriteCmdLCD,_Read_BusyLCD
   110                           	FNCALL	_WriteCmdLCD,_Delay_tW_LCD
   111                           	FNCALL	_Read_BusyLCD,_Delay_tW_LCD
   112                           	FNCALL	_sprintf,_isdigit
   113                           	FNCALL	_sprintf,___wmul
   114                           	FNCALL	_sprintf,___lwdiv
   115                           	FNCALL	_sprintf,___lwmod
   116                           	FNROOT	_main
   117                           	FNCALL	intlevel1,_isr
   118                           	global	intlevel1
   119                           	FNROOT	intlevel1
   120                           	global	_mode
   121                           	global	_CustomCharacters
   122                           	global	_MainScreen4
   123                           psect	idataBANK0,class=CODE,space=0,delta=2
   124                           global __pidataBANK0
   125  07FF                     __pidataBANK0:
   126                           	file	"C:\Users\Studio-Master\Desktop\Work\THC\27.05_DTHC\DisplayDTHC\main.c"
   127                           	line	26
   128                           
   129                           ;initializer for _mode
   130  07FF  3405               	retlw	05h
   131                           psect	idataBANK3,class=CODE,space=0,delta=2
   132                           global __pidataBANK3
   133  1150                     __pidataBANK3:
   134                           	file	"C:\Users\Studio-Master\Desktop\Work\THC\27.05_DTHC\DisplayDTHC\dthc_lcd_controlle
                                 r.c"
   135                           	line	19
   136                           
   137                           ;initializer for _CustomCharacters
   138  1150  3404               	retlw	04h
   139  1151  340E               	retlw	0Eh
   140  1152  3415               	retlw	015h
   141  1153  3404               	retlw	04h
   142  1154  3404               	retlw	04h
   143  1155  3404               	retlw	04h
   144  1156  3404               	retlw	04h
   145  1157  3404               	retlw	04h
   146  1158  3404               	retlw	04h
   147  1159  3404               	retlw	04h
   148  115A  3404               	retlw	04h
   149  115B  3404               	retlw	04h
   150  115C  3404               	retlw	04h
   151  115D  3415               	retlw	015h
   152  115E  340E               	retlw	0Eh
   153  115F  3404               	retlw	04h
   154                           	line	14
   155                           
   156                           ;initializer for _MainScreen4
   157  1160  3467               	retlw	(STR_1-__stringbase)&0ffh
   158  1161  344F               	retlw	(STR_2-__stringbase)&0ffh
   159  1162  345B               	retlw	(STR_3-__stringbase)&0ffh
   160  1163  3473               	retlw	(STR_4-__stringbase)&0ffh
   161  1164  347F               	retlw	(STR_5-__stringbase)&0ffh
   162                           	global	_dpowers
   163                           psect	strings,class=STRING,delta=2
   164                           global __pstrings
   165  0015                     __pstrings:
   166                           ;	global	stringdir,stringtab,__stringbase
   167  0015                     stringtab:
   168                           ;	String table - string pointers are 1 byte each
   169  0015                     stringcode:stringdir:
      + 0015                     stringdir:	
   170  0015  3000               movlw high(stringdir)
   171  0016  008A               movwf pclath
   172  0017  0804               movf fsr,w
   173  0018  0A84               incf fsr
   174  0019  0782               	addwf pc
   175  001A                     __stringbase:
   176  001A  3400               	retlw	0
   177                           psect	strings
   178                           	file	"C:\Program Files (x86)\HI-TECH Software\PICC\9.81\lib\doprnt.c"
   179                           	line	350
   180  001B                     _dpowers:
   181  001B  3401               	retlw	01h
   182  001C  3400               	retlw	0
   183                           
   184  001D  340A               	retlw	0Ah
   185  001E  3400               	retlw	0
   186                           
   187  001F  3464               	retlw	064h
   188  0020  3400               	retlw	0
   189                           
   190  0021  34E8               	retlw	0E8h
   191  0022  3403               	retlw	03h
   192                           
   193  0023  3410               	retlw	010h
   194  0024  3427               	retlw	027h
   195                           
   196                           	global	_WelcomeScreen1
   197                           psect	strings
   198                           	file	"C:\Users\Studio-Master\Desktop\Work\THC\27.05_DTHC\DisplayDTHC\dthc_lcd_controlle
                                 r.c"
   199                           	line	9
   200  0025                     _WelcomeScreen1:
   201  0025  3433               	retlw	033h
   202  0026  3454               	retlw	054h
   203  0027  3420               	retlw	020h
   204  0028  3452               	retlw	052h
   205  0029  344F               	retlw	04Fh
   206  002A  3442               	retlw	042h
   207  002B  344F               	retlw	04Fh
   208  002C  3454               	retlw	054h
   209  002D  3449               	retlw	049h
   210  002E  3443               	retlw	043h
   211  002F  3420               	retlw	020h
   212  0030  3447               	retlw	047h
   213  0031  3452               	retlw	052h
   214  0032  344F               	retlw	04Fh
   215  0033  3455               	retlw	055h
   216  0034  3450               	retlw	050h
   217  0035  3400               	retlw	0
   218                           	global	_WelcomeScreen2
   219                           psect	strings
   220                           	file	"C:\Users\Studio-Master\Desktop\Work\THC\27.05_DTHC\DisplayDTHC\dthc_lcd_controlle
                                 r.c"
   221                           	line	10
   222  0036                     _WelcomeScreen2:
   223  0036  3477               	retlw	077h
   224  0037  3477               	retlw	077h
   225  0038  3477               	retlw	077h
   226  0039  342E               	retlw	02Eh
   227  003A  3472               	retlw	072h
   228  003B  346F               	retlw	06Fh
   229  003C  3462               	retlw	062h
   230  003D  346F               	retlw	06Fh
   231  003E  3474               	retlw	074h
   232  003F  3433               	retlw	033h
   233  0040  3474               	retlw	074h
   234  0041  342E               	retlw	02Eh
   235  0042  3463               	retlw	063h
   236  0043  346F               	retlw	06Fh
   237  0044  346D               	retlw	06Dh
   238  0045  3400               	retlw	0
   239                           	global	_MainScreen3
   240                           psect	strings
   241                           	file	"C:\Users\Studio-Master\Desktop\Work\THC\27.05_DTHC\DisplayDTHC\dthc_lcd_controlle
                                 r.c"
   242                           	line	13
   243  0046                     _MainScreen3:
   244  0046  3453               	retlw	053h
   245  0047  3465               	retlw	065h
   246  0048  346C               	retlw	06Ch
   247  0049  3465               	retlw	065h
   248  004A  3463               	retlw	063h
   249  004B  3474               	retlw	074h
   250  004C  3420               	retlw	020h
   251  004D  344D               	retlw	04Dh
   252  004E  346F               	retlw	06Fh
   253  004F  3464               	retlw	064h
   254  0050  3465               	retlw	065h
   255  0051  343A               	retlw	03Ah
   256  0052  3400               	retlw	0
   257                           	global	_MainScreen1
   258                           psect	strings
   259                           	file	"C:\Users\Studio-Master\Desktop\Work\THC\27.05_DTHC\DisplayDTHC\dthc_lcd_controlle
                                 r.c"
   260                           	line	11
   261  0053                     _MainScreen1:
   262  0053  3454               	retlw	054h
   263  0054  3469               	retlw	069h
   264  0055  3470               	retlw	070h
   265  0056  3456               	retlw	056h
   266  0057  343A               	retlw	03Ah
   267  0058  3400               	retlw	0
   268                           	global	_MainScreen2
   269                           psect	strings
   270                           	file	"C:\Users\Studio-Master\Desktop\Work\THC\27.05_DTHC\DisplayDTHC\dthc_lcd_controlle
                                 r.c"
   271                           	line	12
   272  0059                     _MainScreen2:
   273  0059  3453               	retlw	053h
   274  005A  3465               	retlw	065h
   275  005B  3474               	retlw	074h
   276  005C  3456               	retlw	056h
   277  005D  343A               	retlw	03Ah
   278  005E  3400               	retlw	0
   279                           	global	_StrARC
   280                           psect	strings
   281                           	file	"C:\Users\Studio-Master\Desktop\Work\THC\27.05_DTHC\DisplayDTHC\dthc_lcd_controlle
                                 r.c"
   282                           	line	17
   283  005F                     _StrARC:
   284  005F  3441               	retlw	041h
   285  0060  3452               	retlw	052h
   286  0061  3443               	retlw	043h
   287  0062  3400               	retlw	0
   288                           	global	_StrTOR
   289                           psect	strings
   290                           	file	"C:\Users\Studio-Master\Desktop\Work\THC\27.05_DTHC\DisplayDTHC\dthc_lcd_controlle
                                 r.c"
   291                           	line	16
   292  0063                     _StrTOR:
   293  0063  3454               	retlw	054h
   294  0064  344F               	retlw	04Fh
   295  0065  3452               	retlw	052h
   296  0066  3400               	retlw	0
   297                           	global	_StrNull
   298                           psect	strings
   299                           	file	"C:\Users\Studio-Master\Desktop\Work\THC\27.05_DTHC\DisplayDTHC\dthc_lcd_controlle
                                 r.c"
   300                           	line	18
   301  0067                     _StrNull:
   302  0067  3400               	retlw	0
   303  0068  3400               	retlw	0
   304                           	global	_dpowers
   305                           	global	_WelcomeScreen1
   306                           	global	_WelcomeScreen2
   307                           	global	_MainScreen3
   308                           	global	_MainScreen1
   309                           	global	_MainScreen2
   310                           	global	_StrARC
   311                           	global	_StrTOR
   312                           	global	_StrNull
   313                           	global	_unIntTemp
   314                           	global	_voltage_set_value
   315                           	global	dthc_lcd_controller@valueSetV
   316                           	global	dthc_lcd_controller@valueTipV
   317                           	global	_Down_State
   318                           	global	_FLAG_VALUE_CHANGED
   319                           	global	_LCD_Status
   320                           	global	_LCD_UPDATE_EVENT
   321                           	global	_UART_RECEIVE_EVENT
   322                           	global	_Up_State
   323                           	global	_bt
   324                           	global	_count
   325                           	global	_countEnter
   326                           	global	_dispARC
   327                           	global	_dispTOR
   328                           	global	_enableARC
   329                           	global	_enableTOR
   330                           	global	_initMainScreen
   331                           	global	_lengthDataInput
   332                           	global	_maxCountEnter
   333                           	global	_nameMode
   334                           	global	_tempMode
   335                           	global	dthc_lcd_controller@LCD_Status
   336                           	global	dthc_lcd_controller@initMainScreen
   337                           	global	dthc_lcd_controller@nameMode
   338                           	global	_GotButtonPressed
   339                           	global	_countData
   340                           	global	_globalTemp
   341                           	global	_lastButton
   342                           	global	_saveLevelTemp
   343                           	global	_Data_Input
   344                           	global	_Data_Output
   345                           	global	_countLCD_Repaint
   346                           	global	_valueSetV
   347                           	global	_valueTipI
   348                           	global	_valueTipV
   349                           	global	dthc_lcd_controller@valueTipI
   350                           	global	_countTimer
   351                           	global	_countUpdate
   352                           	global	_curEditCursor
   353                           	global	_valueEdit
   354                           	global	dthc_lcd_controller@enableARC
   355                           	global	dthc_lcd_controller@enableTOR
   356                           	global	_lcd_buf
   357                           	global	_value
   358                           	global	_INTCON
   359  000B                     _INTCON	set	11
   360                           	global	_PORTAbits
   361  0005                     _PORTAbits	set	5
   362                           	global	_PORTBbits
   363  0006                     _PORTBbits	set	6
   364                           	global	_PORTDbits
   365  0008                     _PORTDbits	set	8
   366                           	global	_RCREG
   367  001A                     _RCREG	set	26
   368                           	global	_RCSTA
   369  0018                     _RCSTA	set	24
   370                           	global	_T1CON
   371  0010                     _T1CON	set	16
   372                           	global	_TMR1H
   373  000F                     _TMR1H	set	15
   374                           	global	_TMR1L
   375  000E                     _TMR1L	set	14
   376                           	global	_TXREG
   377  0019                     _TXREG	set	25
   378                           	global	_GIE
   379  005F                     _GIE	set	95
   380                           	global	_PEIE
   381  005E                     _PEIE	set	94
   382                           	global	_RCIF
   383  0065                     _RCIF	set	101
   384                           	global	_TMR1IF
   385  0060                     _TMR1IF	set	96
   386                           	global	_TMR1ON
   387  0080                     _TMR1ON	set	128
   388                           	global	_TXIF
   389  0064                     _TXIF	set	100
   390                           	global	_SPBRG
   391  0099                     _SPBRG	set	153
   392                           	global	_SPBRGH
   393  009A                     _SPBRGH	set	154
   394                           	global	_TRISAbits
   395  0085                     _TRISAbits	set	133
   396                           	global	_TRISBbits
   397  0086                     _TRISBbits	set	134
   398                           	global	_TRISDbits
   399  0088                     _TRISDbits	set	136
   400                           	global	_TXSTA
   401  0098                     _TXSTA	set	152
   402                           	global	_RCIE
   403  0465                     _RCIE	set	1125
   404                           	global	_TMR1IE
   405  0460                     _TMR1IE	set	1120
   406                           	global	_TRISC6
   407  043E                     _TRISC6	set	1086
   408                           	global	_TRISC7
   409  043F                     _TRISC7	set	1087
   410                           	global	_WDTCON
   411  0105                     _WDTCON	set	261
   412                           	global	_ANSEL
   413  0188                     _ANSEL	set	392
   414                           	global	_ANSELH
   415  0189                     _ANSELH	set	393
   416                           	
   417  0069                     STR_2:	
   418  0069  3432               	retlw	50	;'2'
   419  006A  342E               	retlw	46	;'.'
   420  006B  3441               	retlw	65	;'A'
   421  006C  3452               	retlw	82	;'R'
   422  006D  3443               	retlw	67	;'C'
   423  006E  3420               	retlw	32	;' '
   424  006F  344F               	retlw	79	;'O'
   425  0070  344B               	retlw	75	;'K'
   426  0071  3420               	retlw	32	;' '
   427  0072  3449               	retlw	73	;'I'
   428  0073  3420               	retlw	32	;' '
   429  0074  3400               	retlw	0
   430                           psect	strings
   431                           	
   432  0075                     STR_3:	
   433  0075  3433               	retlw	51	;'3'
   434  0076  342E               	retlw	46	;'.'
   435  0077  3441               	retlw	65	;'A'
   436  0078  3452               	retlw	82	;'R'
   437  0079  3443               	retlw	67	;'C'
   438  007A  3420               	retlw	32	;' '
   439  007B  344F               	retlw	79	;'O'
   440  007C  344B               	retlw	75	;'K'
   441  007D  3420               	retlw	32	;' '
   442  007E  3456               	retlw	86	;'V'
   443  007F  3420               	retlw	32	;' '
   444  0080  3400               	retlw	0
   445                           psect	strings
   446                           	
   447  0081                     STR_1:	
   448  0081  3431               	retlw	49	;'1'
   449  0082  342E               	retlw	46	;'.'
   450  0083  3453               	retlw	83	;'S'
   451  0084  3465               	retlw	101	;'e'
   452  0085  3474               	retlw	116	;'t'
   453  0086  3420               	retlw	32	;' '
   454  0087  3456               	retlw	86	;'V'
   455  0088  3420               	retlw	32	;' '
   456  0089  3455               	retlw	85	;'U'
   457  008A  342F               	retlw	47	;'/'
   458  008B  3444               	retlw	68	;'D'
   459  008C  3400               	retlw	0
   460                           psect	strings
   461                           	
   462  008D                     STR_4:	
   463  008D  3434               	retlw	52	;'4'
   464  008E  342E               	retlw	46	;'.'
   465  008F  344D               	retlw	77	;'M'
   466  0090  3461               	retlw	97	;'a'
   467  0091  3469               	retlw	105	;'i'
   468  0092  346E               	retlw	110	;'n'
   469  0093  3420               	retlw	32	;' '
   470  0094  3456               	retlw	86	;'V'
   471  0095  3469               	retlw	105	;'i'
   472  0096  3465               	retlw	101	;'e'
   473  0097  3477               	retlw	119	;'w'
   474  0098  3400               	retlw	0
   475                           psect	strings
   476                           	
   477  0099                     STR_5:	
   478  0099  3435               	retlw	53	;'5'
   479  009A  342E               	retlw	46	;'.'
   480  009B  3454               	retlw	84	;'T'
   481  009C  3465               	retlw	101	;'e'
   482  009D  3473               	retlw	115	;'s'
   483  009E  3474               	retlw	116	;'t'
   484  009F  3420               	retlw	32	;' '
   485  00A0  3456               	retlw	86	;'V'
   486  00A1  3469               	retlw	105	;'i'
   487  00A2  3465               	retlw	101	;'e'
   488  00A3  3477               	retlw	119	;'w'
   489  00A4  3400               	retlw	0
   490                           psect	strings
   491                           	
   492  00A5                     STR_6:	
   493  00A5  3425               	retlw	37	;'%'
   494  00A6  3433               	retlw	51	;'3'
   495  00A7  3475               	retlw	117	;'u'
   496  00A8  3420               	retlw	32	;' '
   497  00A9  3420               	retlw	32	;' '
   498  00AA  3425               	retlw	37	;'%'
   499  00AB  3433               	retlw	51	;'3'
   500  00AC  3473               	retlw	115	;'s'
   501  00AD  3420               	retlw	32	;' '
   502  00AE  3400               	retlw	0
   503                           psect	strings
   504                           	
   505  00AF                     STR_17:	
   506  00AF  3428               	retlw	40	;'('
   507  00B0  346E               	retlw	110	;'n'
   508  00B1  3475               	retlw	117	;'u'
   509  00B2  346C               	retlw	108	;'l'
   510  00B3  346C               	retlw	108	;'l'
   511  00B4  3429               	retlw	41	;')'
   512  00B5  3400               	retlw	0
   513                           psect	strings
   514                           	
   515  00B6                     STR_16:	
   516  00B6  3454               	retlw	84	;'T'
   517  00B7  3469               	retlw	105	;'i'
   518  00B8  3470               	retlw	112	;'p'
   519  00B9  3449               	retlw	73	;'I'
   520  00BA  343A               	retlw	58	;':'
   521  00BB  3400               	retlw	0
   522                           psect	strings
   523                           	
   524  00BC                     STR_15:	
   525  00BC  3453               	retlw	83	;'S'
   526  00BD  3465               	retlw	101	;'e'
   527  00BE  3474               	retlw	116	;'t'
   528  00BF  3449               	retlw	73	;'I'
   529  00C0  343A               	retlw	58	;':'
   530  00C1  3400               	retlw	0
   531                           psect	strings
   532                           	
   533  00C2                     STR_14:	
   534  00C2  344D               	retlw	77	;'M'
   535  00C3  3469               	retlw	105	;'i'
   536  00C4  346E               	retlw	110	;'n'
   537  00C5  3456               	retlw	86	;'V'
   538  00C6  343A               	retlw	58	;':'
   539  00C7  3400               	retlw	0
   540                           psect	strings
   541                           	
   542  00C8                     STR_13:	
   543  00C8  344D               	retlw	77	;'M'
   544  00C9  3461               	retlw	97	;'a'
   545  00CA  3478               	retlw	120	;'x'
   546  00CB  3456               	retlw	86	;'V'
   547  00CC  343A               	retlw	58	;':'
   548  00CD  3400               	retlw	0
   549                           psect	strings
   550                           	
   551  00CE                     STR_8:	
   552  00CE  3425               	retlw	37	;'%'
   553  00CF  3433               	retlw	51	;'3'
   554  00D0  3475               	retlw	117	;'u'
   555  00D1  3400               	retlw	0
   556                           psect	strings
   557  00CE                     STR_9	equ	STR_8+0
   558  00CE                     STR_10	equ	STR_8+0
   559  00CE                     STR_11	equ	STR_8+0
   560  00CE                     STR_12	equ	STR_8+0
   561  00AA                     STR_7	equ	STR_6+5
   562                           	file	"DisplayDTHC.as"
   563                           	line	#
   564                           psect cinit,class=CODE,delta=2
   565                           global start_initialization
   566  1222                     start_initialization:
   567                           
   568                           psect	bssCOMMON,class=COMMON,space=1
   569                           global __pbssCOMMON
   570  0070                     __pbssCOMMON:
   571  0070                     _GotButtonPressed:
   572  0070                            ds      1
   573                           
   574  0071                     _countData:
   575  0071                            ds      1
   576                           
   577  0072                     _globalTemp:
   578  0072                            ds      1
   579                           
   580  0073                     _lastButton:
   581  0073                            ds      1
   582                           
   583  0074                     _saveLevelTemp:
   584  0074                            ds      1
   585                           
   586                           psect	bssBANK0,class=BANK0,space=1
   587                           global __pbssBANK0
   588  004A                     __pbssBANK0:
   589  004A                     _unIntTemp:
   590  004A                            ds      2
   591                           
   592  004C                     _voltage_set_value:
   593  004C                            ds      2
   594                           
   595  004E                     dthc_lcd_controller@valueSetV:
   596  004E                            ds      2
   597                           
   598  0050                     dthc_lcd_controller@valueTipV:
   599  0050                            ds      2
   600                           
   601  0052                     _Down_State:
   602  0052                            ds      1
   603                           
   604  0053                     _FLAG_VALUE_CHANGED:
   605  0053                            ds      1
   606                           
   607  0054                     _LCD_Status:
   608  0054                            ds      1
   609                           
   610  0055                     _LCD_UPDATE_EVENT:
   611  0055                            ds      1
   612                           
   613  0056                     _UART_RECEIVE_EVENT:
   614  0056                            ds      1
   615                           
   616  0057                     _Up_State:
   617  0057                            ds      1
   618                           
   619  0058                     _bt:
   620  0058                            ds      1
   621                           
   622  0059                     _count:
   623  0059                            ds      1
   624                           
   625  005A                     _countEnter:
   626  005A                            ds      1
   627                           
   628  005B                     _dispARC:
   629  005B                            ds      1
   630                           
   631  005C                     _dispTOR:
   632  005C                            ds      1
   633                           
   634  005D                     _enableARC:
   635  005D                            ds      1
   636                           
   637  005E                     _enableTOR:
   638  005E                            ds      1
   639                           
   640  005F                     _initMainScreen:
   641  005F                            ds      1
   642                           
   643  0060                     _lengthDataInput:
   644  0060                            ds      1
   645                           
   646  0061                     _maxCountEnter:
   647  0061                            ds      1
   648                           
   649  0062                     _nameMode:
   650  0062                            ds      1
   651                           
   652  0063                     _tempMode:
   653  0063                            ds      1
   654                           
   655  0064                     dthc_lcd_controller@LCD_Status:
   656  0064                            ds      1
   657                           
   658  0065                     dthc_lcd_controller@initMainScreen:
   659  0065                            ds      1
   660                           
   661  0066                     dthc_lcd_controller@nameMode:
   662  0066                            ds      1
   663                           
   664                           psect	dataBANK0,class=BANK0,space=1
   665                           global __pdataBANK0
   666  0067                     __pdataBANK0:
   667                           	file	"C:\Users\Studio-Master\Desktop\Work\THC\27.05_DTHC\DisplayDTHC\main.c"
   668                           	line	26
   669  0067                     _mode:
   670  0067                            ds      1
   671                           
   672                           psect	bssBANK1,class=BANK1,space=1
   673                           global __pbssBANK1
   674  00A0                     __pbssBANK1:
   675  00A0                     _Data_Input:
   676  00A0                            ds      15
   677                           
   678  00AF                     _Data_Output:
   679  00AF                            ds      15
   680                           
   681  00BE                     _countLCD_Repaint:
   682  00BE                            ds      2
   683                           
   684  00C0                     _valueSetV:
   685  00C0                            ds      2
   686                           
   687  00C2                     _valueTipI:
   688  00C2                            ds      2
   689                           
   690  00C4                     _valueTipV:
   691  00C4                            ds      2
   692                           
   693  00C6                     dthc_lcd_controller@valueTipI:
   694  00C6                            ds      2
   695                           
   696  00C8                     _countTimer:
   697  00C8                            ds      1
   698                           
   699  00C9                     _countUpdate:
   700  00C9                            ds      1
   701                           
   702  00CA                     _curEditCursor:
   703  00CA                            ds      1
   704                           
   705  00CB                     _valueEdit:
   706  00CB                            ds      1
   707                           
   708  00CC                     dthc_lcd_controller@enableARC:
   709  00CC                            ds      1
   710                           
   711  00CD                     dthc_lcd_controller@enableTOR:
   712  00CD                            ds      1
   713                           
   714  00CE                     _lcd_buf:
   715  00CE                            ds      16
   716                           
   717  00DE                     _value:
   718  00DE                            ds      15
   719                           
   720                           psect	dataBANK3,class=BANK3,space=1
   721                           global __pdataBANK3
   722  0190                     __pdataBANK3:
   723                           	file	"C:\Users\Studio-Master\Desktop\Work\THC\27.05_DTHC\DisplayDTHC\dthc_lcd_controlle
                                 r.c"
   724                           	line	19
   725  0190                     _CustomCharacters:
   726  0190                            ds      16
   727                           
   728                           psect	dataBANK3
   729                           	file	"C:\Users\Studio-Master\Desktop\Work\THC\27.05_DTHC\DisplayDTHC\dthc_lcd_controlle
                                 r.c"
   730                           	line	14
   731  01A0                     _MainScreen4:
   732  01A0                            ds      5
   733                           
   734                           psect clrtext,class=CODE,delta=2
   735                           global clear_ram
   736                           ;	Called with FSR containing the base address, and
   737                           ;	W with the last address+1
   738  10AF                     clear_ram:
   739  10AF  0064               	clrwdt			;clear the watchdog before getting into this loop
   740  10B0                     clrloop:
   741  10B0  0180               	clrf	indf		;clear RAM location pointed to by FSR
   742  10B1  0A84               	incf	fsr,f		;increment pointer
   743  10B2  0604               	xorwf	fsr,w		;XOR with final address
   744  10B3  1903               	btfsc	status,2	;have we reached the end yet?
   745  10B4  3400               	retlw	0		;all done for this memory range, return
   746  10B5  0604               	xorwf	fsr,w		;XOR again to restore value
   747  10B6  28B0               	goto	clrloop		;do the next byte
   748                           
   749                           ; Clear objects allocated to COMMON
   750                           psect cinit,class=CODE,delta=2
   751  1222  01F0               	clrf	((__pbssCOMMON)+0)&07Fh
   752  1223  01F1               	clrf	((__pbssCOMMON)+1)&07Fh
   753  1224  01F2               	clrf	((__pbssCOMMON)+2)&07Fh
   754  1225  01F3               	clrf	((__pbssCOMMON)+3)&07Fh
   755  1226  01F4               	clrf	((__pbssCOMMON)+4)&07Fh
   756                           ; Clear objects allocated to BANK0
   757                           psect cinit,class=CODE,delta=2
   758  1227  1383               	bcf	status, 7	;select IRP bank0
   759  1228  304A               	movlw	low(__pbssBANK0)
   760  1229  0084               	movwf	fsr
   761  122A  3067               	movlw	low((__pbssBANK0)+01Dh)
   762  122B  160A  118A  20AF   	fcall	clear_ram
              160A  118A         
   763                           ; Clear objects allocated to BANK1
   764                           psect cinit,class=CODE,delta=2
   765  1230  30A0               	movlw	low(__pbssBANK1)
   766  1231  0084               	movwf	fsr
   767  1232  30ED               	movlw	low((__pbssBANK1)+04Dh)
   768  1233  160A  118A  20AF   	fcall	clear_ram
              160A  118A         
   769                           global btemp
   770                           psect inittext,class=CODE,delta=2
   771                           global init_fetch,btemp
   772                           ;	Called with low address in FSR and high address in W
   773  1108                     init_fetch:
   774  1108  087E               	movf btemp,w
   775  1109  008A               	movwf pclath
   776  110A  087F               	movf btemp+1,w
   777  110B  0082               	movwf pc
   778                           global init_ram
   779                           ;Called with:
   780                           ;	high address of idata address in btemp 
   781                           ;	low address of idata address in btemp+1 
   782                           ;	low address of data in FSR
   783                           ;	high address + 1 of data in btemp-1
   784  110C                     init_ram:
   785  110C  2108  160A  118A   	fcall init_fetch
   786  110F  0080               	movwf indf,f
   787  1110  0A84               	incf fsr,f
   788  1111  0804               	movf fsr,w
   789  1112  067D               	xorwf btemp-1,w
   790  1113  1903               	btfsc status,2
   791  1114  3400               	retlw 0
   792  1115  0AFF               	incf btemp+1,f
   793  1116  1903               	btfsc status,2
   794  1117  0AFE               	incf btemp,f
   795  1118  290C               	goto init_ram
   796                           ; Initialize objects allocated to BANK3
   797                           psect cinit,class=CODE,delta=2
   798                           global init_ram, __pidataBANK3
   799  1238  1783               	bsf	status, 7	;select IRP bank2
   800  1239  30A5               	movlw low(__pdataBANK3+21)
   801  123A  00FD               	movwf btemp-1,f
   802  123B  3011               	movlw high(__pidataBANK3)
   803  123C  00FE               	movwf btemp,f
   804  123D  3050               	movlw low(__pidataBANK3)
   805  123E  00FF               	movwf btemp+1,f
   806  123F  3090               	movlw low(__pdataBANK3)
   807  1240  0084               	movwf fsr,f
   808  1241  160A  118A  210C   	fcall init_ram
              160A  118A         
   809                           ; Initialize objects allocated to BANK0
   810                           	global __pidataBANK0
   811                           psect cinit,class=CODE,delta=2
   812  1246  120A  118A  27FF   	fcall	__pidataBANK0+0		;fetch initializer
              160A  118A         
   813  124B  00E7               	movwf	__pdataBANK0+0&07fh		
   814                           psect cinit,class=CODE,delta=2
   815                           global end_of_initialization
   816                           
   817                           ;End of C runtime variable initialization code
   818                           
   819  124C                     end_of_initialization:
   820  124C  0183               clrf status
   821  124D  120A  118A  2DF8   ljmp _main	;jump to C main() function
   822                           psect	cstackBANK3,class=BANK3,space=1
   823                           global __pcstackBANK3
   824  01A5                     __pcstackBANK3:
   825                           	global	main@REQUIRED_TRANSMIT
   826  01A5                     main@REQUIRED_TRANSMIT:	; 1 bytes @ 0x0
   827  01A5                     	ds	1
   828                           	global	_main$6110
   829  01A6                     _main$6110:	; 2 bytes @ 0x1
   830  01A6                     	ds	2
   831                           	global	main@count
   832  01A8                     main@count:	; 1 bytes @ 0x3
   833  01A8                     	ds	1
   834                           	global	main@requiredInit
   835  01A9                     main@requiredInit:	; 1 bytes @ 0x4
   836  01A9                     	ds	1
   837                           	global	main@compareMode
   838  01AA                     main@compareMode:	; 1 bytes @ 0x5
   839  01AA                     	ds	1
   840                           	global	main@compareAmpeValue
   841  01AB                     main@compareAmpeValue:	; 1 bytes @ 0x6
   842  01AB                     	ds	1
   843                           	global	main@maxVol
   844  01AC                     main@maxVol:	; 2 bytes @ 0x7
   845  01AC                     	ds	2
   846                           	global	main@minVol
   847  01AE                     main@minVol:	; 2 bytes @ 0x9
   848  01AE                     	ds	2
   849                           	global	main@temp
   850  01B0                     main@temp:	; 1 bytes @ 0xB
   851  01B0                     	ds	1
   852                           psect	cstackCOMMON,class=COMMON,space=1
   853                           global __pcstackCOMMON
   854  0075                     __pcstackCOMMON:
   855                           	global	?_Init_DTHC_LCD
   856  0075                     ?_Init_DTHC_LCD:	; 0 bytes @ 0x0
   857                           	global	?_LCD_SetMode
   858  0075                     ?_LCD_SetMode:	; 0 bytes @ 0x0
   859                           	global	?_init_comms
   860  0075                     ?_init_comms:	; 0 bytes @ 0x0
   861                           	global	?_SetVisible_TOR
   862  0075                     ?_SetVisible_TOR:	; 0 bytes @ 0x0
   863                           	global	?_SetVisible_ARC
   864  0075                     ?_SetVisible_ARC:	; 0 bytes @ 0x0
   865                           	global	?_SetArrow
   866  0075                     ?_SetArrow:	; 0 bytes @ 0x0
   867                           	global	?_LCD_Update
   868  0075                     ?_LCD_Update:	; 0 bytes @ 0x0
   869                           	global	?_LCD_SubMode
   870  0075                     ?_LCD_SubMode:	; 0 bytes @ 0x0
   871                           	global	?_LCD_Repaint
   872  0075                     ?_LCD_Repaint:	; 0 bytes @ 0x0
   873                           	global	?_putch
   874  0075                     ?_putch:	; 0 bytes @ 0x0
   875                           	global	?_Delay_tW_LCD
   876  0075                     ?_Delay_tW_LCD:	; 0 bytes @ 0x0
   877                           	global	?_WriteCmdLCD
   878  0075                     ?_WriteCmdLCD:	; 0 bytes @ 0x0
   879                           	global	?_isdigit
   880  0075                     ?_isdigit:	; 1 bit 
   881                           	global	?_Init_Button_Port
   882  0075                     ?_Init_Button_Port:	; 0 bytes @ 0x0
   883                           	global	?_main
   884  0075                     ?_main:	; 0 bytes @ 0x0
   885                           	global	?_isr
   886  0075                     ?_isr:	; 0 bytes @ 0x0
   887                           	global	??_isr
   888  0075                     ??_isr:	; 0 bytes @ 0x0
   889                           	global	?_Lcd_Init_Delay
   890  0075                     ?_Lcd_Init_Delay:	; 0 bytes @ 0x0
   891                           	global	?_Lcd_Special_Delay
   892  0075                     ?_Lcd_Special_Delay:	; 0 bytes @ 0x0
   893                           	global	?_Initial_4bitLCD
   894  0075                     ?_Initial_4bitLCD:	; 0 bytes @ 0x0
   895                           	global	?_Enable_Blink_LCD
   896  0075                     ?_Enable_Blink_LCD:	; 0 bytes @ 0x0
   897                           	global	?_Clear_LCD
   898  0075                     ?_Clear_LCD:	; 0 bytes @ 0x0
   899                           	global	?_SetCursor
   900  0075                     ?_SetCursor:	; 0 bytes @ 0x0
   901                           	global	?_WriteDataLCD
   902  0075                     ?_WriteDataLCD:	; 0 bytes @ 0x0
   903                           	global	?_print_LCD
   904  0075                     ?_print_LCD:	; 0 bytes @ 0x0
   905                           	global	?_Read_BusyLCD
   906  0075                     ?_Read_BusyLCD:	; 1 bytes @ 0x0
   907                           	global	?_GetButton
   908  0075                     ?_GetButton:	; 1 bytes @ 0x0
   909  0075                     	ds	5
   910                           psect	cstackBANK0,class=BANK0,space=1
   911                           global __pcstackBANK0
   912  0020                     __pcstackBANK0:
   913                           	global	??_init_comms
   914  0020                     ??_init_comms:	; 0 bytes @ 0x0
   915                           	global	?_SetValueTipV
   916  0020                     ?_SetValueTipV:	; 0 bytes @ 0x0
   917                           	global	?_SetValueSetV
   918  0020                     ?_SetValueSetV:	; 0 bytes @ 0x0
   919                           	global	??_SetVisible_TOR
   920  0020                     ??_SetVisible_TOR:	; 0 bytes @ 0x0
   921                           	global	??_SetVisible_ARC
   922  0020                     ??_SetVisible_ARC:	; 0 bytes @ 0x0
   923                           	global	??_SetArrow
   924  0020                     ??_SetArrow:	; 0 bytes @ 0x0
   925                           	global	??_LCD_SubMode
   926  0020                     ??_LCD_SubMode:	; 0 bytes @ 0x0
   927                           	global	?_SetValueTipI
   928  0020                     ?_SetValueTipI:	; 0 bytes @ 0x0
   929                           	global	??_putch
   930  0020                     ??_putch:	; 0 bytes @ 0x0
   931                           	global	??_Delay_tW_LCD
   932  0020                     ??_Delay_tW_LCD:	; 0 bytes @ 0x0
   933                           	global	??_isdigit
   934  0020                     ??_isdigit:	; 0 bytes @ 0x0
   935                           	global	??_Init_Button_Port
   936  0020                     ??_Init_Button_Port:	; 0 bytes @ 0x0
   937                           	global	??_GetButton
   938  0020                     ??_GetButton:	; 0 bytes @ 0x0
   939                           	global	??_Lcd_Init_Delay
   940  0020                     ??_Lcd_Init_Delay:	; 0 bytes @ 0x0
   941                           	global	??_Lcd_Special_Delay
   942  0020                     ??_Lcd_Special_Delay:	; 0 bytes @ 0x0
   943                           	global	?_strcpy
   944  0020                     ?_strcpy:	; 1 bytes @ 0x0
   945                           	global	?___wmul
   946  0020                     ?___wmul:	; 2 bytes @ 0x0
   947                           	global	?___lwmod
   948  0020                     ?___lwmod:	; 2 bytes @ 0x0
   949                           	global	?___awdiv
   950  0020                     ?___awdiv:	; 2 bytes @ 0x0
   951                           	global	?___awmod
   952  0020                     ?___awmod:	; 2 bytes @ 0x0
   953                           	global	putch@byte
   954  0020                     putch@byte:	; 1 bytes @ 0x0
   955                           	global	_isdigit$5752
   956  0020                     _isdigit$5752:	; 1 bytes @ 0x0
   957                           	global	strcpy@from
   958  0020                     strcpy@from:	; 1 bytes @ 0x0
   959                           	global	SetValueTipV@k
   960  0020                     SetValueTipV@k:	; 2 bytes @ 0x0
   961                           	global	SetValueSetV@k
   962  0020                     SetValueSetV@k:	; 2 bytes @ 0x0
   963                           	global	SetValueTipI@k
   964  0020                     SetValueTipI@k:	; 2 bytes @ 0x0
   965                           	global	___wmul@multiplier
   966  0020                     ___wmul@multiplier:	; 2 bytes @ 0x0
   967                           	global	___lwmod@divisor
   968  0020                     ___lwmod@divisor:	; 2 bytes @ 0x0
   969                           	global	___awdiv@divisor
   970  0020                     ___awdiv@divisor:	; 2 bytes @ 0x0
   971                           	global	___awmod@divisor
   972  0020                     ___awmod@divisor:	; 2 bytes @ 0x0
   973  0020                     	ds	1
   974                           	global	??_WriteCmdLCD
   975  0021                     ??_WriteCmdLCD:	; 0 bytes @ 0x1
   976                           	global	??_Read_BusyLCD
   977  0021                     ??_Read_BusyLCD:	; 0 bytes @ 0x1
   978                           	global	??_strcpy
   979  0021                     ??_strcpy:	; 0 bytes @ 0x1
   980                           	global	??_SetCursor
   981  0021                     ??_SetCursor:	; 0 bytes @ 0x1
   982                           	global	??_WriteDataLCD
   983  0021                     ??_WriteDataLCD:	; 0 bytes @ 0x1
   984                           	global	GetButton@button
   985  0021                     GetButton@button:	; 1 bytes @ 0x1
   986                           	global	LCD_SubMode@k
   987  0021                     LCD_SubMode@k:	; 1 bytes @ 0x1
   988                           	global	SetVisible_TOR@eTOR
   989  0021                     SetVisible_TOR@eTOR:	; 1 bytes @ 0x1
   990                           	global	SetVisible_ARC@eARC
   991  0021                     SetVisible_ARC@eARC:	; 1 bytes @ 0x1
   992                           	global	SetArrow@state
   993  0021                     SetArrow@state:	; 1 bytes @ 0x1
   994                           	global	isdigit@c
   995  0021                     isdigit@c:	; 1 bytes @ 0x1
   996  0021                     	ds	1
   997                           	global	??_SetValueTipV
   998  0022                     ??_SetValueTipV:	; 0 bytes @ 0x2
   999                           	global	??_SetValueSetV
  1000  0022                     ??_SetValueSetV:	; 0 bytes @ 0x2
  1001                           	global	??_SetValueTipI
  1002  0022                     ??_SetValueTipI:	; 0 bytes @ 0x2
  1003                           	global	strcpy@to
  1004  0022                     strcpy@to:	; 1 bytes @ 0x2
  1005                           	global	___wmul@multiplicand
  1006  0022                     ___wmul@multiplicand:	; 2 bytes @ 0x2
  1007                           	global	___lwmod@dividend
  1008  0022                     ___lwmod@dividend:	; 2 bytes @ 0x2
  1009                           	global	___awdiv@dividend
  1010  0022                     ___awdiv@dividend:	; 2 bytes @ 0x2
  1011                           	global	___awmod@dividend
  1012  0022                     ___awmod@dividend:	; 2 bytes @ 0x2
  1013  0022                     	ds	1
  1014                           	global	SetCursor@address
  1015  0023                     SetCursor@address:	; 1 bytes @ 0x3
  1016                           	global	WriteCmdLCD@cmd
  1017  0023                     WriteCmdLCD@cmd:	; 1 bytes @ 0x3
  1018                           	global	WriteDataLCD@data
  1019  0023                     WriteDataLCD@data:	; 1 bytes @ 0x3
  1020                           	global	strcpy@cp
  1021  0023                     strcpy@cp:	; 1 bytes @ 0x3
  1022  0023                     	ds	1
  1023                           	global	??_Initial_4bitLCD
  1024  0024                     ??_Initial_4bitLCD:	; 0 bytes @ 0x4
  1025                           	global	??_Enable_Blink_LCD
  1026  0024                     ??_Enable_Blink_LCD:	; 0 bytes @ 0x4
  1027                           	global	??_Clear_LCD
  1028  0024                     ??_Clear_LCD:	; 0 bytes @ 0x4
  1029                           	global	??_print_LCD
  1030  0024                     ??_print_LCD:	; 0 bytes @ 0x4
  1031                           	global	??___wmul
  1032  0024                     ??___wmul:	; 0 bytes @ 0x4
  1033                           	global	??___lwmod
  1034  0024                     ??___lwmod:	; 0 bytes @ 0x4
  1035                           	global	??___awdiv
  1036  0024                     ??___awdiv:	; 0 bytes @ 0x4
  1037                           	global	??___awmod
  1038  0024                     ??___awmod:	; 0 bytes @ 0x4
  1039                           	global	Enable_Blink_LCD@enable
  1040  0024                     Enable_Blink_LCD@enable:	; 1 bytes @ 0x4
  1041                           	global	___wmul@product
  1042  0024                     ___wmul@product:	; 2 bytes @ 0x4
  1043  0024                     	ds	1
  1044                           	global	print_LCD@p
  1045  0025                     print_LCD@p:	; 1 bytes @ 0x5
  1046                           	global	___lwmod@counter
  1047  0025                     ___lwmod@counter:	; 1 bytes @ 0x5
  1048                           	global	___awdiv@counter
  1049  0025                     ___awdiv@counter:	; 1 bytes @ 0x5
  1050                           	global	___awmod@counter
  1051  0025                     ___awmod@counter:	; 1 bytes @ 0x5
  1052  0025                     	ds	1
  1053                           	global	?_LCD_SetEditValue
  1054  0026                     ?_LCD_SetEditValue:	; 0 bytes @ 0x6
  1055                           	global	?___lwdiv
  1056  0026                     ?___lwdiv:	; 2 bytes @ 0x6
  1057                           	global	LCD_SetEditValue@value
  1058  0026                     LCD_SetEditValue@value:	; 1 bytes @ 0x6
  1059                           	global	___awdiv@sign
  1060  0026                     ___awdiv@sign:	; 1 bytes @ 0x6
  1061                           	global	___awmod@sign
  1062  0026                     ___awmod@sign:	; 1 bytes @ 0x6
  1063                           	global	___lwdiv@divisor
  1064  0026                     ___lwdiv@divisor:	; 2 bytes @ 0x6
  1065  0026                     	ds	1
  1066                           	global	??_Init_DTHC_LCD
  1067  0027                     ??_Init_DTHC_LCD:	; 0 bytes @ 0x7
  1068                           	global	??_LCD_SetEditValue
  1069  0027                     ??_LCD_SetEditValue:	; 0 bytes @ 0x7
  1070                           	global	___awdiv@quotient
  1071  0027                     ___awdiv@quotient:	; 2 bytes @ 0x7
  1072  0027                     	ds	1
  1073                           	global	LCD_SetEditValue@pos
  1074  0028                     LCD_SetEditValue@pos:	; 1 bytes @ 0x8
  1075                           	global	___lwdiv@dividend
  1076  0028                     ___lwdiv@dividend:	; 2 bytes @ 0x8
  1077  0028                     	ds	2
  1078                           	global	??___lwdiv
  1079  002A                     ??___lwdiv:	; 0 bytes @ 0xA
  1080                           	global	Init_DTHC_LCD@i
  1081  002A                     Init_DTHC_LCD@i:	; 1 bytes @ 0xA
  1082  002A                     	ds	1
  1083                           	global	___lwdiv@counter
  1084  002B                     ___lwdiv@counter:	; 1 bytes @ 0xB
  1085  002B                     	ds	1
  1086                           	global	___lwdiv@quotient
  1087  002C                     ___lwdiv@quotient:	; 2 bytes @ 0xC
  1088  002C                     	ds	2
  1089                           	global	?_sprintf
  1090  002E                     ?_sprintf:	; 2 bytes @ 0xE
  1091                           	global	sprintf@f
  1092  002E                     sprintf@f:	; 1 bytes @ 0xE
  1093  002E                     	ds	4
  1094                           	global	??_sprintf
  1095  0032                     ??_sprintf:	; 0 bytes @ 0x12
  1096  0032                     	ds	4
  1097                           	global	sprintf@flag
  1098  0036                     sprintf@flag:	; 1 bytes @ 0x16
  1099  0036                     	ds	1
  1100                           	global	sprintf@prec
  1101  0037                     sprintf@prec:	; 1 bytes @ 0x17
  1102  0037                     	ds	1
  1103                           	global	sprintf@ap
  1104  0038                     sprintf@ap:	; 1 bytes @ 0x18
  1105  0038                     	ds	1
  1106                           	global	sprintf@sp
  1107  0039                     sprintf@sp:	; 1 bytes @ 0x19
  1108  0039                     	ds	1
  1109                           	global	sprintf@width
  1110  003A                     sprintf@width:	; 2 bytes @ 0x1A
  1111  003A                     	ds	2
  1112                           	global	sprintf@c
  1113  003C                     sprintf@c:	; 1 bytes @ 0x1C
  1114  003C                     	ds	1
  1115                           	global	sprintf@_val
  1116  003D                     sprintf@_val:	; 3 bytes @ 0x1D
  1117  003D                     	ds	3
  1118                           	global	??_LCD_SetMode
  1119  0040                     ??_LCD_SetMode:	; 0 bytes @ 0x20
  1120                           	global	??_LCD_Update
  1121  0040                     ??_LCD_Update:	; 0 bytes @ 0x20
  1122                           	global	??_LCD_Repaint
  1123  0040                     ??_LCD_Repaint:	; 0 bytes @ 0x20
  1124  0040                     	ds	1
  1125                           	global	LCD_Repaint@cmd
  1126  0041                     LCD_Repaint@cmd:	; 1 bytes @ 0x21
  1127                           	global	LCD_SetMode@mode
  1128  0041                     LCD_SetMode@mode:	; 1 bytes @ 0x21
  1129  0041                     	ds	1
  1130                           	global	??_main
  1131  0042                     ??_main:	; 0 bytes @ 0x22
  1132  0042                     	ds	8
  1133 ;;Data sizes: Strings 105, constant 78, data 22, bss 111, persistent 0 stack 0
  1134 ;;Auto spaces:   Size  Autos    Used
  1135 ;; COMMON          14      5      10
  1136 ;; BANK0           80     42      72
  1137 ;; BANK1           80      0      77
  1138 ;; BANK3           96     12      33
  1139 ;; BANK2           96      0       0
  1140                           
  1141 ;;
  1142 ;; Pointer list with targets:
  1143                           
  1144 ;; ?_strcpy	PTR unsigned char  size(1) Largest target is 16
  1145 ;;		 -> lcd_buf(BANK1[16]), 
  1146 ;;
  1147 ;; ?___awmod	int  size(1) Largest target is 0
  1148 ;;
  1149 ;; ?___awdiv	int  size(1) Largest target is 0
  1150 ;;
  1151 ;; ?___lwmod	unsigned int  size(1) Largest target is 4
  1152 ;;		 -> NULL(NULL[0]), StrARC(CODE[4]), StrTOR(CODE[4]), StrNull(CODE[2]), 
  1153 ;;
  1154 ;; ?___lwdiv	unsigned int  size(1) Largest target is 0
  1155 ;;
  1156 ;; ?___wmul	unsigned int  size(1) Largest target is 0
  1157 ;;
  1158 ;; strcpy@from	PTR const unsigned char  size(1) Largest target is 17
  1159 ;;		 -> MainScreen3(CODE[13]), WelcomeScreen2(CODE[16]), WelcomeScreen1(CODE[17]), MainScreen2(CODE[6]), 
  1160 ;;		 -> MainScreen1(CODE[6]), STR_5(CODE[12]), STR_4(CODE[12]), STR_3(CODE[12]), 
  1161 ;;		 -> STR_2(CODE[12]), STR_1(CODE[12]), 
  1162 ;;
  1163 ;; strcpy@to	PTR unsigned char  size(1) Largest target is 16
  1164 ;;		 -> lcd_buf(BANK1[16]), 
  1165 ;;
  1166 ;; strcpy@cp	PTR unsigned char  size(1) Largest target is 16
  1167 ;;		 -> lcd_buf(BANK1[16]), 
  1168 ;;
  1169 ;; sprintf@_val._cp	PTR const unsigned char  size(1) Largest target is 7
  1170 ;;		 -> NULL(NULL[0]), STR_17(CODE[7]), StrARC(CODE[4]), StrTOR(CODE[4]), 
  1171 ;;		 -> StrNull(CODE[2]), 
  1172 ;;
  1173 ;; sprintf@f	PTR const unsigned char  size(1) Largest target is 10
  1174 ;;		 -> STR_16(CODE[6]), STR_15(CODE[6]), STR_14(CODE[6]), STR_13(CODE[6]), 
  1175 ;;		 -> STR_12(CODE[4]), STR_11(CODE[4]), STR_10(CODE[4]), STR_9(CODE[4]), 
  1176 ;;		 -> STR_8(CODE[4]), STR_7(CODE[5]), STR_6(CODE[10]), 
  1177 ;;
  1178 ;; sprintf@sp	PTR unsigned char  size(1) Largest target is 16
  1179 ;;		 -> lcd_buf(BANK1[16]), 
  1180 ;;
  1181 ;; ?_sprintf	int  size(1) Largest target is 4
  1182 ;;		 -> NULL(NULL[0]), StrARC(CODE[4]), StrTOR(CODE[4]), StrNull(CODE[2]), 
  1183 ;;
  1184 ;; sprintf@ap	PTR void [1] size(1) Largest target is 2
  1185 ;;		 -> ?_sprintf(BANK0[2]), 
  1186 ;;
  1187 ;; S5735$_cp	PTR const unsigned char  size(1) Largest target is 7
  1188 ;;		 -> NULL(NULL[0]), STR_17(CODE[7]), StrARC(CODE[4]), StrTOR(CODE[4]), 
  1189 ;;		 -> StrNull(CODE[2]), 
  1190 ;;
  1191 ;; _val._str._cp	PTR const unsigned char  size(1) Largest target is 7
  1192 ;;		 -> NULL(NULL[0]), STR_17(CODE[7]), StrARC(CODE[4]), StrTOR(CODE[4]), 
  1193 ;;		 -> StrNull(CODE[2]), 
  1194 ;;
  1195 ;; sp__strcpy	PTR unsigned char  size(1) Largest target is 16
  1196 ;;		 -> lcd_buf(BANK1[16]), 
  1197 ;;
  1198 ;; dispARC	PTR volatile unsigned char  size(1) Largest target is 4
  1199 ;;		 -> NULL(NULL[0]), StrARC(CODE[4]), StrNull(CODE[2]), 
  1200 ;;
  1201 ;; dispTOR	PTR volatile unsigned char  size(1) Largest target is 4
  1202 ;;		 -> NULL(NULL[0]), StrTOR(CODE[4]), StrNull(CODE[2]), 
  1203 ;;
  1204 ;; MainScreen4	PTR const unsigned char [5] size(1) Largest target is 12
  1205 ;;		 -> STR_5(CODE[12]), STR_4(CODE[12]), STR_3(CODE[12]), STR_2(CODE[12]), 
  1206 ;;		 -> STR_1(CODE[12]), 
  1207 ;;
  1208 ;; print_LCD@p	PTR unsigned char  size(1) Largest target is 16
  1209 ;;		 -> lcd_buf(BANK1[16]), 
  1210 ;;
  1211                           
  1212                           
  1213 ;;
  1214 ;; Critical Paths under _main in COMMON
  1215 ;;
  1216 ;;   None.
  1217 ;;
  1218 ;; Critical Paths under _isr in COMMON
  1219 ;;
  1220 ;;   None.
  1221 ;;
  1222 ;; Critical Paths under _main in BANK0
  1223 ;;
  1224 ;;   _main->_LCD_SetMode
  1225 ;;   _main->_LCD_Update
  1226 ;;   _main->_LCD_Repaint
  1227 ;;   _LCD_Repaint->_sprintf
  1228 ;;   _LCD_SetEditValue->_print_LCD
  1229 ;;   _LCD_Update->_sprintf
  1230 ;;   _LCD_SetMode->_sprintf
  1231 ;;   _Init_DTHC_LCD->_Initial_4bitLCD
  1232 ;;   _print_LCD->_WriteDataLCD
  1233 ;;   _Clear_LCD->_WriteCmdLCD
  1234 ;;   _Enable_Blink_LCD->_WriteCmdLCD
  1235 ;;   _Initial_4bitLCD->_WriteCmdLCD
  1236 ;;   _WriteDataLCD->_Delay_tW_LCD
  1237 ;;   _SetCursor->_Delay_tW_LCD
  1238 ;;   _WriteCmdLCD->_Delay_tW_LCD
  1239 ;;   _Read_BusyLCD->_Delay_tW_LCD
  1240 ;;   _sprintf->___lwdiv
  1241 ;;   ___lwdiv->___lwmod
  1242 ;;
  1243 ;; Critical Paths under _isr in BANK0
  1244 ;;
  1245 ;;   None.
  1246 ;;
  1247 ;; Critical Paths under _main in BANK1
  1248 ;;
  1249 ;;   None.
  1250 ;;
  1251 ;; Critical Paths under _isr in BANK1
  1252 ;;
  1253 ;;   None.
  1254 ;;
  1255 ;; Critical Paths under _main in BANK3
  1256 ;;
  1257 ;;   None.
  1258 ;;
  1259 ;; Critical Paths under _isr in BANK3
  1260 ;;
  1261 ;;   None.
  1262 ;;
  1263 ;; Critical Paths under _main in BANK2
  1264 ;;
  1265 ;;   None.
  1266 ;;
  1267 ;; Critical Paths under _isr in BANK2
  1268 ;;
  1269 ;;   None.
  1270                           
  1271 ;;
  1272 ;;Main: autosize = 0, tempsize = 8, incstack = 0, save=0
  1273 ;;
  1274                           
  1275 ;;
  1276 ;;Call Graph Tables:
  1277 ;;
  1278 ;; ---------------------------------------------------------------------------------
  1279 ;; (Depth) Function   	        Calls       Base Space   Used Autos Params    Refs
  1280 ;; ---------------------------------------------------------------------------------
  1281 ;; (0) _main                                                24    24      0   15714
  1282 ;;                                             34 BANK0      8     8      0
  1283 ;;                                              0 BANK3     12    12      0
  1284 ;;                   _Init_Button_Port
  1285 ;;                      _Init_DTHC_LCD
  1286 ;;                        _LCD_SetMode
  1287 ;;                         _init_comms
  1288 ;;                       _SetValueTipV
  1289 ;;                       _SetValueSetV
  1290 ;;                     _SetVisible_TOR
  1291 ;;                     _SetVisible_ARC
  1292 ;;                           _SetArrow
  1293 ;;                         _LCD_Update
  1294 ;;                          _GetButton
  1295 ;;                   _LCD_SetEditValue
  1296 ;;                             ___wmul
  1297 ;;                        _LCD_SubMode
  1298 ;;                        _LCD_Repaint
  1299 ;;                       _SetValueTipI
  1300 ;;                            ___lwdiv
  1301 ;;                            ___lwmod
  1302 ;;                            ___awdiv
  1303 ;;                            ___awmod
  1304 ;;                              _putch
  1305 ;; ---------------------------------------------------------------------------------
  1306 ;; (1) _LCD_Repaint                                          2     2      0    3563
  1307 ;;                                             32 BANK0      2     2      0
  1308 ;;                          _Clear_LCD
  1309 ;;                          _SetCursor
  1310 ;;                             _strcpy
  1311 ;;                          _print_LCD
  1312 ;;                       _WriteDataLCD
  1313 ;;                   _Enable_Blink_LCD
  1314 ;;                            _sprintf
  1315 ;; ---------------------------------------------------------------------------------
  1316 ;; (1) _LCD_SetEditValue                                     3     2      1    1240
  1317 ;;                                              6 BANK0      3     2      1
  1318 ;;                          _SetCursor
  1319 ;;                       _WriteDataLCD
  1320 ;;                             _strcpy
  1321 ;;                          _print_LCD
  1322 ;; ---------------------------------------------------------------------------------
  1323 ;; (1) _LCD_Update                                           2     2      0    2871
  1324 ;;                                             32 BANK0      2     2      0
  1325 ;;                          _SetCursor
  1326 ;;                            _sprintf
  1327 ;;                          _print_LCD
  1328 ;;                       _WriteDataLCD
  1329 ;; ---------------------------------------------------------------------------------
  1330 ;; (1) _LCD_SetMode                                          2     2      0    3594
  1331 ;;                                             32 BANK0      2     2      0
  1332 ;;                          _Clear_LCD
  1333 ;;                          _SetCursor
  1334 ;;                             _strcpy
  1335 ;;                          _print_LCD
  1336 ;;                   _Enable_Blink_LCD
  1337 ;;                            _sprintf
  1338 ;;                       _WriteDataLCD
  1339 ;; ---------------------------------------------------------------------------------
  1340 ;; (1) _Init_DTHC_LCD                                        4     4      0     843
  1341 ;;                                              7 BANK0      4     4      0
  1342 ;;                    _Initial_4bitLCD
  1343 ;;                        _WriteCmdLCD
  1344 ;;                       _WriteDataLCD
  1345 ;; ---------------------------------------------------------------------------------
  1346 ;; (2) _print_LCD                                            2     2      0     316
  1347 ;;                                              4 BANK0      2     2      0
  1348 ;;                       _WriteDataLCD
  1349 ;; ---------------------------------------------------------------------------------
  1350 ;; (2) _Clear_LCD                                            0     0      0     248
  1351 ;;                        _WriteCmdLCD
  1352 ;;                  _Lcd_Special_Delay
  1353 ;; ---------------------------------------------------------------------------------
  1354 ;; (2) _Enable_Blink_LCD                                     1     1      0     279
  1355 ;;                                              4 BANK0      1     1      0
  1356 ;;                        _WriteCmdLCD
  1357 ;;                  _Lcd_Special_Delay
  1358 ;; ---------------------------------------------------------------------------------
  1359 ;; (2) _Initial_4bitLCD                                      3     3      0     248
  1360 ;;                                              4 BANK0      3     3      0
  1361 ;;                     _Lcd_Init_Delay
  1362 ;;                       _Delay_tW_LCD
  1363 ;;                  _Lcd_Special_Delay
  1364 ;;                        _WriteCmdLCD
  1365 ;; ---------------------------------------------------------------------------------
  1366 ;; (2) _WriteDataLCD                                         3     3      0     248
  1367 ;;                                              1 BANK0      3     3      0
  1368 ;;                       _Read_BusyLCD
  1369 ;;                       _Delay_tW_LCD
  1370 ;; ---------------------------------------------------------------------------------
  1371 ;; (2) _SetCursor                                            3     3      0     217
  1372 ;;                                              1 BANK0      3     3      0
  1373 ;;                       _Read_BusyLCD
  1374 ;;                       _Delay_tW_LCD
  1375 ;; ---------------------------------------------------------------------------------
  1376 ;; (3) _WriteCmdLCD                                          3     3      0     248
  1377 ;;                                              1 BANK0      3     3      0
  1378 ;;                       _Read_BusyLCD
  1379 ;;                       _Delay_tW_LCD
  1380 ;; ---------------------------------------------------------------------------------
  1381 ;; (4) _Read_BusyLCD                                         0     0      0       0
  1382 ;;                       _Delay_tW_LCD
  1383 ;; ---------------------------------------------------------------------------------
  1384 ;; (2) _sprintf                                             18    14      4    2090
  1385 ;;                                             14 BANK0     18    14      4
  1386 ;;                            _isdigit
  1387 ;;                             ___wmul
  1388 ;;                            ___lwdiv
  1389 ;;                            ___lwmod
  1390 ;; ---------------------------------------------------------------------------------
  1391 ;; (4) _Delay_tW_LCD                                         1     1      0       0
  1392 ;;                                              0 BANK0      1     1      0
  1393 ;; ---------------------------------------------------------------------------------
  1394 ;; (3) _Lcd_Special_Delay                                    2     2      0       0
  1395 ;;                                              0 BANK0      2     2      0
  1396 ;; ---------------------------------------------------------------------------------
  1397 ;; (3) _Lcd_Init_Delay                                       2     2      0       0
  1398 ;;                                              0 BANK0      2     2      0
  1399 ;; ---------------------------------------------------------------------------------
  1400 ;; (1) ___awmod                                              7     3      4     433
  1401 ;;                                              0 BANK0      7     3      4
  1402 ;; ---------------------------------------------------------------------------------
  1403 ;; (1) ___awdiv                                              9     5      4     445
  1404 ;;                                              0 BANK0      9     5      4
  1405 ;; ---------------------------------------------------------------------------------
  1406 ;; (1) ___lwmod                                              6     2      4     232
  1407 ;;                                              0 BANK0      6     2      4
  1408 ;; ---------------------------------------------------------------------------------
  1409 ;; (1) ___lwdiv                                              8     4      4     241
  1410 ;;                                              6 BANK0      8     4      4
  1411 ;;                            ___lwmod (ARG)
  1412 ;; ---------------------------------------------------------------------------------
  1413 ;; (3) ___wmul                                               6     2      4     136
  1414 ;;                                              0 BANK0      6     2      4
  1415 ;; ---------------------------------------------------------------------------------
  1416 ;; (3) _isdigit                                              2     2      0      99
  1417 ;;                                              0 BANK0      2     2      0
  1418 ;; ---------------------------------------------------------------------------------
  1419 ;; (3) _strcpy                                               4     3      1     103
  1420 ;;                                              0 BANK0      4     3      1
  1421 ;; ---------------------------------------------------------------------------------
  1422 ;; (1) _putch                                                1     1      0      31
  1423 ;;                                              0 BANK0      1     1      0
  1424 ;; ---------------------------------------------------------------------------------
  1425 ;; (1) _SetValueTipI                                         2     0      2      31
  1426 ;;                                              0 BANK0      2     0      2
  1427 ;; ---------------------------------------------------------------------------------
  1428 ;; (1) _LCD_SubMode                                          2     2      0      31
  1429 ;;                                              0 BANK0      2     2      0
  1430 ;; ---------------------------------------------------------------------------------
  1431 ;; (1) _SetArrow                                             2     2      0      62
  1432 ;;                                              0 BANK0      2     2      0
  1433 ;; ---------------------------------------------------------------------------------
  1434 ;; (1) _SetVisible_ARC                                       2     2      0      31
  1435 ;;                                              0 BANK0      2     2      0
  1436 ;; ---------------------------------------------------------------------------------
  1437 ;; (1) _SetVisible_TOR                                       2     2      0      31
  1438 ;;                                              0 BANK0      2     2      0
  1439 ;; ---------------------------------------------------------------------------------
  1440 ;; (1) _SetValueSetV                                         2     0      2      31
  1441 ;;                                              0 BANK0      2     0      2
  1442 ;; ---------------------------------------------------------------------------------
  1443 ;; (1) _SetValueTipV                                         2     0      2      31
  1444 ;;                                              0 BANK0      2     0      2
  1445 ;; ---------------------------------------------------------------------------------
  1446 ;; (1) _init_comms                                           0     0      0       0
  1447 ;; ---------------------------------------------------------------------------------
  1448 ;; (1) _GetButton                                            2     2      0     142
  1449 ;;                                              0 BANK0      2     2      0
  1450 ;; ---------------------------------------------------------------------------------
  1451 ;; (1) _Init_Button_Port                                     0     0      0       0
  1452 ;; ---------------------------------------------------------------------------------
  1453 ;; Estimated maximum stack depth 4
  1454 ;; ---------------------------------------------------------------------------------
  1455 ;; (Depth) Function   	        Calls       Base Space   Used Autos Params    Refs
  1456 ;; ---------------------------------------------------------------------------------
  1457 ;; (6) _isr                                                  5     5      0       0
  1458 ;;                                              0 COMMON     5     5      0
  1459 ;; ---------------------------------------------------------------------------------
  1460 ;; Estimated maximum stack depth 6
  1461 ;; ---------------------------------------------------------------------------------
  1462                           
  1463 ;; Call Graph Graphs:
  1464                           
  1465 ;; _main (ROOT)
  1466 ;;   _Init_Button_Port
  1467 ;;   _Init_DTHC_LCD
  1468 ;;     _Initial_4bitLCD
  1469 ;;       _Lcd_Init_Delay
  1470 ;;       _Delay_tW_LCD
  1471 ;;       _Lcd_Special_Delay
  1472 ;;       _WriteCmdLCD
  1473 ;;         _Read_BusyLCD
  1474 ;;           _Delay_tW_LCD
  1475 ;;         _Delay_tW_LCD
  1476 ;;     _WriteCmdLCD
  1477 ;;       _Read_BusyLCD
  1478 ;;         _Delay_tW_LCD
  1479 ;;       _Delay_tW_LCD
  1480 ;;     _WriteDataLCD
  1481 ;;       _Read_BusyLCD
  1482 ;;         _Delay_tW_LCD
  1483 ;;       _Delay_tW_LCD
  1484 ;;   _LCD_SetMode
  1485 ;;     _Clear_LCD
  1486 ;;       _WriteCmdLCD
  1487 ;;         _Read_BusyLCD
  1488 ;;           _Delay_tW_LCD
  1489 ;;         _Delay_tW_LCD
  1490 ;;       _Lcd_Special_Delay
  1491 ;;     _SetCursor
  1492 ;;       _Read_BusyLCD
  1493 ;;         _Delay_tW_LCD
  1494 ;;       _Delay_tW_LCD
  1495 ;;     _strcpy
  1496 ;;     _print_LCD
  1497 ;;       _WriteDataLCD
  1498 ;;         _Read_BusyLCD
  1499 ;;           _Delay_tW_LCD
  1500 ;;         _Delay_tW_LCD
  1501 ;;     _Enable_Blink_LCD
  1502 ;;       _WriteCmdLCD
  1503 ;;         _Read_BusyLCD
  1504 ;;           _Delay_tW_LCD
  1505 ;;         _Delay_tW_LCD
  1506 ;;       _Lcd_Special_Delay
  1507 ;;     _sprintf
  1508 ;;       _isdigit
  1509 ;;       ___wmul
  1510 ;;       ___lwdiv
  1511 ;;         ___lwmod (ARG)
  1512 ;;       ___lwmod
  1513 ;;     _WriteDataLCD
  1514 ;;       _Read_BusyLCD
  1515 ;;         _Delay_tW_LCD
  1516 ;;       _Delay_tW_LCD
  1517 ;;   _init_comms
  1518 ;;   _SetValueTipV
  1519 ;;   _SetValueSetV
  1520 ;;   _SetVisible_TOR
  1521 ;;   _SetVisible_ARC
  1522 ;;   _SetArrow
  1523 ;;   _LCD_Update
  1524 ;;     _SetCursor
  1525 ;;       _Read_BusyLCD
  1526 ;;         _Delay_tW_LCD
  1527 ;;       _Delay_tW_LCD
  1528 ;;     _sprintf
  1529 ;;       _isdigit
  1530 ;;       ___wmul
  1531 ;;       ___lwdiv
  1532 ;;         ___lwmod (ARG)
  1533 ;;       ___lwmod
  1534 ;;     _print_LCD
  1535 ;;       _WriteDataLCD
  1536 ;;         _Read_BusyLCD
  1537 ;;           _Delay_tW_LCD
  1538 ;;         _Delay_tW_LCD
  1539 ;;     _WriteDataLCD
  1540 ;;       _Read_BusyLCD
  1541 ;;         _Delay_tW_LCD
  1542 ;;       _Delay_tW_LCD
  1543 ;;   _GetButton
  1544 ;;   _LCD_SetEditValue
  1545 ;;     _SetCursor
  1546 ;;       _Read_BusyLCD
  1547 ;;         _Delay_tW_LCD
  1548 ;;       _Delay_tW_LCD
  1549 ;;     _WriteDataLCD
  1550 ;;       _Read_BusyLCD
  1551 ;;         _Delay_tW_LCD
  1552 ;;       _Delay_tW_LCD
  1553 ;;     _strcpy
  1554 ;;     _print_LCD
  1555 ;;       _WriteDataLCD
  1556 ;;         _Read_BusyLCD
  1557 ;;           _Delay_tW_LCD
  1558 ;;         _Delay_tW_LCD
  1559 ;;   ___wmul
  1560 ;;   _LCD_SubMode
  1561 ;;   _LCD_Repaint
  1562 ;;     _Clear_LCD
  1563 ;;       _WriteCmdLCD
  1564 ;;         _Read_BusyLCD
  1565 ;;           _Delay_tW_LCD
  1566 ;;         _Delay_tW_LCD
  1567 ;;       _Lcd_Special_Delay
  1568 ;;     _SetCursor
  1569 ;;       _Read_BusyLCD
  1570 ;;         _Delay_tW_LCD
  1571 ;;       _Delay_tW_LCD
  1572 ;;     _strcpy
  1573 ;;     _print_LCD
  1574 ;;       _WriteDataLCD
  1575 ;;         _Read_BusyLCD
  1576 ;;           _Delay_tW_LCD
  1577 ;;         _Delay_tW_LCD
  1578 ;;     _WriteDataLCD
  1579 ;;       _Read_BusyLCD
  1580 ;;         _Delay_tW_LCD
  1581 ;;       _Delay_tW_LCD
  1582 ;;     _Enable_Blink_LCD
  1583 ;;       _WriteCmdLCD
  1584 ;;         _Read_BusyLCD
  1585 ;;           _Delay_tW_LCD
  1586 ;;         _Delay_tW_LCD
  1587 ;;       _Lcd_Special_Delay
  1588 ;;     _sprintf
  1589 ;;       _isdigit
  1590 ;;       ___wmul
  1591 ;;       ___lwdiv
  1592 ;;         ___lwmod (ARG)
  1593 ;;       ___lwmod
  1594 ;;   _SetValueTipI
  1595 ;;   ___lwdiv
  1596 ;;     ___lwmod (ARG)
  1597 ;;   ___lwmod
  1598 ;;   ___awdiv
  1599 ;;   ___awmod
  1600 ;;   _putch
  1601 ;;
  1602 ;; _isr (ROOT)
  1603 ;;
  1604                           
  1605 ;; Address spaces:
  1606                           
  1607 ;;Name               Size   Autos  Total    Cost      Usage
  1608 ;;BANK3               60      C      21       9       34.4%
  1609 ;;BITBANK3            60      0       0       8        0.0%
  1610 ;;SFR3                 0      0       0       4        0.0%
  1611 ;;BITSFR3              0      0       0       4        0.0%
  1612 ;;BANK2               60      0       0      11        0.0%
  1613 ;;BITBANK2            60      0       0      10        0.0%
  1614 ;;SFR2                 0      0       0       5        0.0%
  1615 ;;BITSFR2              0      0       0       5        0.0%
  1616 ;;SFR1                 0      0       0       2        0.0%
  1617 ;;BITSFR1              0      0       0       2        0.0%
  1618 ;;BANK1               50      0      4D       7       96.3%
  1619 ;;BITBANK1            50      0       0       6        0.0%
  1620 ;;CODE                 0      0       0       0        0.0%
  1621 ;;DATA                 0      0      C5      12        0.0%
  1622 ;;ABS                  0      0      C0       3        0.0%
  1623 ;;NULL                 0      0       0       0        0.0%
  1624 ;;STACK                0      0       5       2        0.0%
  1625 ;;BANK0               50     2A      48       5       90.0%
  1626 ;;BITBANK0            50      0       0       4        0.0%
  1627 ;;SFR0                 0      0       0       1        0.0%
  1628 ;;BITSFR0              0      0       0       1        0.0%
  1629 ;;COMMON               E      5       A       1       71.4%
  1630 ;;BITCOMMON            E      0       0       0        0.0%
  1631 ;;EEDATA             100      0       0       0        0.0%
  1632                           
  1633                           	global	_main
  1634                           psect	maintext,global,class=CODE,delta=2
  1635                           global __pmaintext
  1636  05F8                     __pmaintext:
  1637                           
  1638 ;; *************** function _main *****************
  1639 ;; Defined at:
  1640 ;;		line 177 in file "C:\Users\Studio-Master\Desktop\Work\THC\27.05_DTHC\DisplayDTHC\main.c"
  1641 ;; Parameters:    Size  Location     Type
  1642 ;;		None
  1643 ;; Auto vars:     Size  Location     Type
  1644 ;;  minVol          2    9[BANK3 ] unsigned int 
  1645 ;;  maxVol          2    7[BANK3 ] unsigned int 
  1646 ;;  temp            1   11[BANK3 ] unsigned char 
  1647 ;;  compareAmpeV    1    6[BANK3 ] unsigned char 
  1648 ;;  compareMode     1    5[BANK3 ] unsigned char 
  1649 ;;  requiredInit    1    4[BANK3 ] unsigned char 
  1650 ;;  count           1    3[BANK3 ] unsigned char 
  1651 ;;  REQUIRED_TRA    1    0[BANK3 ] unsigned char 
  1652 ;; Return value:  Size  Location     Type
  1653 ;;		None               void
  1654 ;; Registers used:
  1655 ;;		wreg, fsr0l, fsr0h, status,2, status,0, btemp+1, pclath, cstack
  1656 ;; Tracked objects:
  1657 ;;		On entry : 17F/0
  1658 ;;		On exit  : 0/0
  1659 ;;		Unchanged: 0/0
  1660 ;; Data sizes:     COMMON   BANK0   BANK1   BANK3   BANK2
  1661 ;;      Params:         0       0       0       0       0
  1662 ;;      Locals:         0       0       0      12       0
  1663 ;;      Temps:          0       8       0       0       0
  1664 ;;      Totals:         0       8       0      12       0
  1665 ;;Total ram usage:       20 bytes
  1666 ;; Hardware stack levels required when called:    6
  1667 ;; This function calls:
  1668 ;;		_Init_Button_Port
  1669 ;;		_Init_DTHC_LCD
  1670 ;;		_LCD_SetMode
  1671 ;;		_init_comms
  1672 ;;		_SetValueTipV
  1673 ;;		_SetValueSetV
  1674 ;;		_SetVisible_TOR
  1675 ;;		_SetVisible_ARC
  1676 ;;		_SetArrow
  1677 ;;		_LCD_Update
  1678 ;;		_GetButton
  1679 ;;		_LCD_SetEditValue
  1680 ;;		___wmul
  1681 ;;		_LCD_SubMode
  1682 ;;		_LCD_Repaint
  1683 ;;		_SetValueTipI
  1684 ;;		___lwdiv
  1685 ;;		___lwmod
  1686 ;;		___awdiv
  1687 ;;		___awmod
  1688 ;;		_putch
  1689 ;; This function is called by:
  1690 ;;		Startup code after reset
  1691 ;; This function uses a non-reentrant model
  1692 ;;
  1693                           psect	maintext
  1694                           	file	"C:\Users\Studio-Master\Desktop\Work\THC\27.05_DTHC\DisplayDTHC\main.c"
  1695                           	line	177
  1696                           	global	__size_of_main
  1697  FA08                     	__size_of_main	equ	__end_of_main-_main
  1698                           	
  1699  05F8                     _main:	
  1700                           	opt	stack 2
  1701                           ; Regs used in _main: [wreg-fsr0h+status,2+status,0+btemp+1+pclath+cstack]
  1702                           	line	186
  1703                           	
  1704  05F8                     l9570:	
  1705                           ;main.c: 178: unsigned char count;
  1706                           ;main.c: 179: unsigned char compareMode, compareAmpeValue;
  1707                           ;main.c: 180: unsigned char requiredInit;
  1708                           ;main.c: 181: unsigned char REQUIRED_TRANSMIT;
  1709                           ;main.c: 182: unsigned char temp;
  1710                           ;main.c: 183: unsigned int maxVol, minVol;
  1711                           ;main.c: 186: ANSELH = 0;
  1712  05F8  1683               	bsf	status, 5	;RP0=1, select bank3
  1713  05F9  1703               	bsf	status, 6	;RP1=1, select bank3
  1714  05FA  0189               	clrf	(393)^0180h	;volatile
  1715                           	line	187
  1716                           ;main.c: 187: ANSEL = 0;
  1717  05FB  0188               	clrf	(392)^0180h	;volatile
  1718                           	line	188
  1719                           ;main.c: 188: INTCON = 0;
  1720  05FC  018B               	clrf	(11)	;volatile
  1721                           	line	191
  1722                           	
  1723  05FD                     l9572:	
  1724                           ;main.c: 191: WDTCON = 0b00001011;
  1725  05FD  300B               	movlw	(0Bh)
  1726  05FE  1283               	bcf	status, 5	;RP0=0, select bank2
  1727  05FF  1703               	bsf	status, 6	;RP1=1, select bank2
  1728  0600  0085               	movwf	(261)^0100h	;volatile
  1729                           	line	192
  1730                           	
  1731  0601                     l9574:	
  1732                           # 192 "C:\Users\Studio-Master\Desktop\Work\THC\27.05_DTHC\DisplayDTHC\main.c"
  1733  0601  0064               clrwdt ;#
  1734                           psect	maintext
  1735                           	line	194
  1736                           	
  1737  0602                     l9576:	
  1738                           ;main.c: 194: TRISAbits.TRISA0 = 0;;
  1739  0602  1683               	bsf	status, 5	;RP0=1, select bank1
  1740  0603  1303               	bcf	status, 6	;RP1=0, select bank1
  1741  0604  1005               	bcf	(133)^080h,0	;volatile
  1742                           	line	195
  1743                           	
  1744  0605                     l9578:	
  1745                           ;main.c: 195: PORTAbits.RA0 = 1;;
  1746  0605  1283               	bcf	status, 5	;RP0=0, select bank0
  1747  0606  1303               	bcf	status, 6	;RP1=0, select bank0
  1748  0607  1405               	bsf	(5),0	;volatile
  1749                           	line	196
  1750                           	
  1751  0608                     l9580:	
  1752                           ;main.c: 196: Init_Button_Port();
  1753  0608  160A  118A  20B7   	fcall	_Init_Button_Port
              120A  118A         
  1754                           	line	198
  1755                           	
  1756  060D                     l9582:	
  1757                           ;main.c: 198: Init_DTHC_LCD();
  1758  060D  120A  158A  200A   	fcall	_Init_DTHC_LCD
              120A  118A         
  1759                           	line	199
  1760                           	
  1761  0612                     l9584:	
  1762                           ;main.c: 199: LCD_SetMode(LCD_INIT_MODE);
  1763  0612  3005               	movlw	(05h)
  1764  0613  120A  118A  22E2   	fcall	_LCD_SetMode
              120A  118A         
  1765                           	line	200
  1766                           	
  1767  0618                     l9586:	
  1768                           ;main.c: 200: T1CON = 0b00110000;
  1769  0618  3030               	movlw	(030h)
  1770  0619  1283               	bcf	status, 5	;RP0=0, select bank0
  1771  061A  1303               	bcf	status, 6	;RP1=0, select bank0
  1772  061B  0090               	movwf	(16)	;volatile
  1773                           	line	201
  1774                           	
  1775  061C                     l9588:	
  1776                           ;main.c: 201: TMR1IF = 0;
  1777  061C  100C               	bcf	(96/8),(96)&7
  1778                           	line	202
  1779                           	
  1780  061D                     l9590:	
  1781                           ;main.c: 202: TMR1H = (unsigned char) (-62500 >> 8);
  1782  061D  300B               	movlw	(0Bh)
  1783  061E  008F               	movwf	(15)	;volatile
  1784                           	line	203
  1785                           	
  1786  061F                     l9592:	
  1787                           ;main.c: 203: TMR1L = (unsigned char) (-62500);
  1788  061F  30DC               	movlw	(0DCh)
  1789  0620  008E               	movwf	(14)	;volatile
  1790                           	line	204
  1791                           	
  1792  0621                     l9594:	
  1793                           ;main.c: 204: TMR1IE = 1;
  1794  0621  1683               	bsf	status, 5	;RP0=1, select bank1
  1795  0622  1303               	bcf	status, 6	;RP1=0, select bank1
  1796  0623  140C               	bsf	(1120/8)^080h,(1120)&7
  1797                           	line	205
  1798                           	
  1799  0624                     l9596:	
  1800                           ;main.c: 205: count = 0;
  1801  0624  1683               	bsf	status, 5	;RP0=1, select bank3
  1802  0625  1703               	bsf	status, 6	;RP1=1, select bank3
  1803  0626  01A8               	clrf	(main@count)^0180h
  1804                           	line	206
  1805                           	
  1806  0627                     l9598:	
  1807                           ;main.c: 206: TMR1ON = 1;
  1808  0627  1283               	bcf	status, 5	;RP0=0, select bank0
  1809  0628  1303               	bcf	status, 6	;RP1=0, select bank0
  1810  0629  1410               	bsf	(128/8),(128)&7
  1811                           	line	208
  1812                           	
  1813  062A                     l9600:	
  1814                           ;main.c: 208: init_comms();
  1815  062A  160A  118A  2165   	fcall	_init_comms
              120A  118A         
  1816                           	line	209
  1817                           	
  1818  062F                     l9602:	
  1819                           ;main.c: 209: lengthDataInput = 0;
  1820  062F  1283               	bcf	status, 5	;RP0=0, select bank0
  1821  0630  1303               	bcf	status, 6	;RP1=0, select bank0
  1822  0631  01E0               	clrf	(_lengthDataInput)	;volatile
  1823                           	line	211
  1824                           	
  1825  0632                     l9604:	
  1826                           ;main.c: 211: PEIE = 1;
  1827  0632  170B               	bsf	(94/8),(94)&7
  1828                           	line	212
  1829                           	
  1830  0633                     l9606:	
  1831                           ;main.c: 212: GIE = 1;
  1832  0633  178B               	bsf	(95/8),(95)&7
  1833                           	line	216
  1834                           	
  1835  0634                     l9608:	
  1836                           ;main.c: 216: Data_Output[0] = '*';
  1837  0634  302A               	movlw	(02Ah)
  1838  0635  00C2               	movwf	(??_main+0)+0
  1839  0636  0842               	movf	(??_main+0)+0,w
  1840  0637  1683               	bsf	status, 5	;RP0=1, select bank1
  1841  0638  1303               	bcf	status, 6	;RP1=0, select bank1
  1842  0639  00AF               	movwf	(_Data_Output)^080h	;volatile
  1843                           	line	217
  1844                           	
  1845  063A                     l9610:	
  1846                           ;main.c: 217: Data_Output[1] = 0xFF;
  1847  063A  30FF               	movlw	(0FFh)
  1848  063B  1283               	bcf	status, 5	;RP0=0, select bank0
  1849  063C  1303               	bcf	status, 6	;RP1=0, select bank0
  1850  063D  00C2               	movwf	(??_main+0)+0
  1851  063E  0842               	movf	(??_main+0)+0,w
  1852  063F  1683               	bsf	status, 5	;RP0=1, select bank1
  1853  0640  1303               	bcf	status, 6	;RP1=0, select bank1
  1854  0641  00B0               	movwf	0+(_Data_Output)^080h+01h	;volatile
  1855                           	line	218
  1856                           	
  1857  0642                     l9612:	
  1858                           ;main.c: 218: Data_Output[2] = 0xFF;
  1859  0642  30FF               	movlw	(0FFh)
  1860  0643  1283               	bcf	status, 5	;RP0=0, select bank0
  1861  0644  1303               	bcf	status, 6	;RP1=0, select bank0
  1862  0645  00C2               	movwf	(??_main+0)+0
  1863  0646  0842               	movf	(??_main+0)+0,w
  1864  0647  1683               	bsf	status, 5	;RP0=1, select bank1
  1865  0648  1303               	bcf	status, 6	;RP1=0, select bank1
  1866  0649  00B1               	movwf	0+(_Data_Output)^080h+02h	;volatile
  1867                           	line	219
  1868                           	
  1869  064A                     l9614:	
  1870                           ;main.c: 219: Data_Output[3] = 0xFF;
  1871  064A  30FF               	movlw	(0FFh)
  1872  064B  1283               	bcf	status, 5	;RP0=0, select bank0
  1873  064C  1303               	bcf	status, 6	;RP1=0, select bank0
  1874  064D  00C2               	movwf	(??_main+0)+0
  1875  064E  0842               	movf	(??_main+0)+0,w
  1876  064F  1683               	bsf	status, 5	;RP0=1, select bank1
  1877  0650  1303               	bcf	status, 6	;RP1=0, select bank1
  1878  0651  00B2               	movwf	0+(_Data_Output)^080h+03h	;volatile
  1879                           	line	220
  1880                           	
  1881  0652                     l9616:	
  1882                           ;main.c: 220: Data_Output[4] = 0xFF;
  1883  0652  30FF               	movlw	(0FFh)
  1884  0653  1283               	bcf	status, 5	;RP0=0, select bank0
  1885  0654  1303               	bcf	status, 6	;RP1=0, select bank0
  1886  0655  00C2               	movwf	(??_main+0)+0
  1887  0656  0842               	movf	(??_main+0)+0,w
  1888  0657  1683               	bsf	status, 5	;RP0=1, select bank1
  1889  0658  1303               	bcf	status, 6	;RP1=0, select bank1
  1890  0659  00B3               	movwf	0+(_Data_Output)^080h+04h	;volatile
  1891                           	line	221
  1892                           	
  1893  065A                     l9618:	
  1894                           ;main.c: 221: Data_Output[5] = 0xFF;
  1895  065A  30FF               	movlw	(0FFh)
  1896  065B  1283               	bcf	status, 5	;RP0=0, select bank0
  1897  065C  1303               	bcf	status, 6	;RP1=0, select bank0
  1898  065D  00C2               	movwf	(??_main+0)+0
  1899  065E  0842               	movf	(??_main+0)+0,w
  1900  065F  1683               	bsf	status, 5	;RP0=1, select bank1
  1901  0660  1303               	bcf	status, 6	;RP1=0, select bank1
  1902  0661  00B4               	movwf	0+(_Data_Output)^080h+05h	;volatile
  1903                           	line	222
  1904                           	
  1905  0662                     l9620:	
  1906                           ;main.c: 222: Data_Output[6] = 0xFF;
  1907  0662  30FF               	movlw	(0FFh)
  1908  0663  1283               	bcf	status, 5	;RP0=0, select bank0
  1909  0664  1303               	bcf	status, 6	;RP1=0, select bank0
  1910  0665  00C2               	movwf	(??_main+0)+0
  1911  0666  0842               	movf	(??_main+0)+0,w
  1912  0667  1683               	bsf	status, 5	;RP0=1, select bank1
  1913  0668  1303               	bcf	status, 6	;RP1=0, select bank1
  1914  0669  00B5               	movwf	0+(_Data_Output)^080h+06h	;volatile
  1915                           	line	223
  1916                           	
  1917  066A                     l9622:	
  1918                           ;main.c: 223: Data_Output[7] = 0xFF;
  1919  066A  30FF               	movlw	(0FFh)
  1920  066B  1283               	bcf	status, 5	;RP0=0, select bank0
  1921  066C  1303               	bcf	status, 6	;RP1=0, select bank0
  1922  066D  00C2               	movwf	(??_main+0)+0
  1923  066E  0842               	movf	(??_main+0)+0,w
  1924  066F  1683               	bsf	status, 5	;RP0=1, select bank1
  1925  0670  1303               	bcf	status, 6	;RP1=0, select bank1
  1926  0671  00B6               	movwf	0+(_Data_Output)^080h+07h	;volatile
  1927                           	line	224
  1928                           	
  1929  0672                     l9624:	
  1930                           ;main.c: 224: Data_Output[8] = '#';
  1931  0672  3023               	movlw	(023h)
  1932  0673  1283               	bcf	status, 5	;RP0=0, select bank0
  1933  0674  1303               	bcf	status, 6	;RP1=0, select bank0
  1934  0675  00C2               	movwf	(??_main+0)+0
  1935  0676  0842               	movf	(??_main+0)+0,w
  1936  0677  1683               	bsf	status, 5	;RP0=1, select bank1
  1937  0678  1303               	bcf	status, 6	;RP1=0, select bank1
  1938  0679  00B7               	movwf	0+(_Data_Output)^080h+08h	;volatile
  1939                           	line	226
  1940                           	
  1941  067A                     l9626:	
  1942                           ;main.c: 226: compareMode = 'V';
  1943  067A  3056               	movlw	(056h)
  1944  067B  1283               	bcf	status, 5	;RP0=0, select bank0
  1945  067C  1303               	bcf	status, 6	;RP1=0, select bank0
  1946  067D  00C2               	movwf	(??_main+0)+0
  1947  067E  0842               	movf	(??_main+0)+0,w
  1948  067F  1683               	bsf	status, 5	;RP0=1, select bank3
  1949  0680  1703               	bsf	status, 6	;RP1=1, select bank3
  1950  0681  00AA               	movwf	(main@compareMode)^0180h
  1951                           	line	227
  1952                           	
  1953  0682                     l9628:	
  1954                           ;main.c: 227: compareAmpeValue = 0;
  1955  0682  01AB               	clrf	(main@compareAmpeValue)^0180h
  1956                           	line	229
  1957                           	
  1958  0683                     l9630:	
  1959                           # 229 "C:\Users\Studio-Master\Desktop\Work\THC\27.05_DTHC\DisplayDTHC\main.c"
  1960  0683  0064               clrwdt ;#
  1961                           psect	maintext
  1962                           	line	230
  1963                           	
  1964  0684                     l9632:	
  1965                           ;main.c: 230: _delay((unsigned long)((300)*(8000000UL/4000.0)));
  1966                           	opt asmopt_off
  1967  0684  3004               movlw  4
  1968  0685  1283               	bcf	status, 5	;RP0=0, select bank0
  1969  0686  1303               	bcf	status, 6	;RP1=0, select bank0
  1970  0687  00C4               movwf	((??_main+0)+0+2),f
  1971  0688  3009               movlw	9
  1972  0689  00C3               movwf	((??_main+0)+0+1),f
  1973  068A  3034               	movlw	52
  1974  068B  00C2               movwf	((??_main+0)+0),f
  1975  068C                     u6717:
  1976  068C  0BC2               	decfsz	((??_main+0)+0),f
  1977  068D  2E8C               	goto	u6717
  1978  068E  0BC3               	decfsz	((??_main+0)+0+1),f
  1979  068F  2E8C               	goto	u6717
  1980  0690  0BC4               	decfsz	((??_main+0)+0+2),f
  1981  0691  2E8C               	goto	u6717
  1982  0692  2E93               	nop2
  1983                           opt asmopt_on
  1984                           
  1985                           	line	231
  1986                           	
  1987  0693                     l9634:	
  1988                           ;main.c: 231: requiredInit = 1;
  1989  0693  1683               	bsf	status, 5	;RP0=1, select bank3
  1990  0694  1703               	bsf	status, 6	;RP1=1, select bank3
  1991  0695  01A9               	clrf	(main@requiredInit)^0180h
  1992  0696  1403               	bsf	status,0
  1993  0697  0DA9               	rlf	(main@requiredInit)^0180h,f
  1994                           	line	232
  1995                           	
  1996  0698                     l9636:	
  1997                           ;main.c: 232: SetValueTipV(0);
  1998  0698  3000               	movlw	low(0)
  1999  0699  1283               	bcf	status, 5	;RP0=0, select bank0
  2000  069A  1303               	bcf	status, 6	;RP1=0, select bank0
  2001  069B  00A0               	movwf	(?_SetValueTipV)
  2002  069C  3000               	movlw	high(0)
  2003  069D  00A1               	movwf	((?_SetValueTipV))+1
  2004  069E  160A  118A  20C0   	fcall	_SetValueTipV
              120A  118A         
  2005                           	line	233
  2006                           	
  2007  06A3                     l9638:	
  2008                           ;main.c: 233: SetValueSetV(0);
  2009  06A3  3000               	movlw	low(0)
  2010  06A4  1283               	bcf	status, 5	;RP0=0, select bank0
  2011  06A5  1303               	bcf	status, 6	;RP1=0, select bank0
  2012  06A6  00A0               	movwf	(?_SetValueSetV)
  2013  06A7  3000               	movlw	high(0)
  2014  06A8  00A1               	movwf	((?_SetValueSetV))+1
  2015  06A9  120A  158A  2001   	fcall	_SetValueSetV
              120A  118A         
  2016                           	line	234
  2017                           	
  2018  06AE                     l9640:	
  2019                           ;main.c: 234: SetVisible_TOR(0);
  2020  06AE  3000               	movlw	(0)
  2021  06AF  160A  118A  2119   	fcall	_SetVisible_TOR
              120A  118A         
  2022                           	line	235
  2023                           	
  2024  06B4                     l9642:	
  2025                           ;main.c: 235: SetVisible_ARC(0);
  2026  06B4  3000               	movlw	(0)
  2027  06B5  160A  118A  212B   	fcall	_SetVisible_ARC
              120A  118A         
  2028                           	line	236
  2029                           	
  2030  06BA                     l9644:	
  2031                           ;main.c: 236: SetArrow(NONE_ARROW);
  2032  06BA  3016               	movlw	(016h)
  2033  06BB  160A  118A  21CE   	fcall	_SetArrow
              120A  118A         
  2034                           	line	237
  2035                           	
  2036  06C0                     l9646:	
  2037                           ;main.c: 237: LCD_SetMode(LCD_RUN_MODE);
  2038  06C0  3003               	movlw	(03h)
  2039  06C1  120A  118A  22E2   	fcall	_LCD_SetMode
              120A  118A         
  2040                           	line	238
  2041                           	
  2042  06C6                     l9648:	
  2043                           ;main.c: 238: mode = LCD_RUN_MODE;
  2044  06C6  3003               	movlw	(03h)
  2045  06C7  1283               	bcf	status, 5	;RP0=0, select bank0
  2046  06C8  1303               	bcf	status, 6	;RP1=0, select bank0
  2047  06C9  00C2               	movwf	(??_main+0)+0
  2048  06CA  0842               	movf	(??_main+0)+0,w
  2049  06CB  00E7               	movwf	(_mode)
  2050                           	line	239
  2051                           	
  2052  06CC                     l9650:	
  2053                           ;main.c: 239: LCD_Update();
  2054  06CC  120A  118A  24EB   	fcall	_LCD_Update
              120A  118A         
  2055                           	line	240
  2056                           	
  2057  06D1                     l9652:	
  2058                           ;main.c: 240: REQUIRED_TRANSMIT = 0;
  2059  06D1  1683               	bsf	status, 5	;RP0=1, select bank3
  2060  06D2  1703               	bsf	status, 6	;RP1=1, select bank3
  2061  06D3  01A5               	clrf	(main@REQUIRED_TRANSMIT)^0180h
  2062  06D4  2ED5               	goto	l9654
  2063                           	line	242
  2064                           ;main.c: 242: while (1) {
  2065                           	
  2066  06D5                     l1129:	
  2067                           	line	243
  2068                           	
  2069  06D5                     l9654:	
  2070                           # 243 "C:\Users\Studio-Master\Desktop\Work\THC\27.05_DTHC\DisplayDTHC\main.c"
  2071  06D5  0064               clrwdt ;#
  2072                           psect	maintext
  2073                           	line	245
  2074                           	
  2075  06D6                     l9656:	
  2076                           ;main.c: 245: bt = GetButton();
  2077  06D6  160A  118A  22C8   	fcall	_GetButton
              120A  118A         
  2078  06DB  1283               	bcf	status, 5	;RP0=0, select bank0
  2079  06DC  1303               	bcf	status, 6	;RP1=0, select bank0
  2080  06DD  00C2               	movwf	(??_main+0)+0
  2081  06DE  0842               	movf	(??_main+0)+0,w
  2082  06DF  00D8               	movwf	(_bt)
  2083                           	line	246
  2084                           ;main.c: 246: switch (bt) {
  2085  06E0  120A  158A  2B97   	goto	l9812
  2086                           	line	247
  2087                           ;main.c: 247: case BUTTON_ENTER:
  2088                           	
  2089  06E3                     l1131:	
  2090                           	line	248
  2091                           	
  2092  06E3                     l9658:	
  2093                           ;main.c: 248: if ( mode == LCD_RUN_MODE || mode == LCD_TEST_VIEW_MODE ) {
  2094  06E3  0867               	movf	(_mode),w
  2095  06E4  3A03               	xorlw	03h
  2096  06E5  1903               	skipnz
  2097  06E6  2EE8               	goto	u6231
  2098  06E7  2EE9               	goto	u6230
  2099  06E8                     u6231:
  2100  06E8  2EF2               	goto	l9662
  2101  06E9                     u6230:
  2102                           	
  2103  06E9                     l9660:	
  2104  06E9  0867               	movf	(_mode),w
  2105  06EA  3A04               	xorlw	04h
  2106  06EB  1D03               	skipz
  2107  06EC  2EEE               	goto	u6241
  2108  06ED  2EF1               	goto	u6240
  2109  06EE                     u6241:
  2110  06EE  120A  158A  285A   	goto	l9670
  2111  06F1                     u6240:
  2112  06F1  2EF2               	goto	l9662
  2113                           	
  2114  06F2                     l1134:	
  2115                           	line	249
  2116                           	
  2117  06F2                     l9662:	
  2118                           ;main.c: 249: mode = LCD_EDIT_MODE;
  2119  06F2  3006               	movlw	(06h)
  2120  06F3  00C2               	movwf	(??_main+0)+0
  2121  06F4  0842               	movf	(??_main+0)+0,w
  2122  06F5  00E7               	movwf	(_mode)
  2123                           	line	250
  2124                           	
  2125  06F6                     l9664:	
  2126                           ;main.c: 250: countEnter = 0;
  2127  06F6  01DA               	clrf	(_countEnter)
  2128                           	line	251
  2129                           	
  2130  06F7                     l9666:	
  2131                           ;main.c: 251: LCD_SetMode( mode );
  2132  06F7  0867               	movf	(_mode),w
  2133  06F8  120A  118A  22E2   	fcall	_LCD_SetMode
              120A  118A         
  2134                           	line	256
  2135                           	
  2136  06FD                     l9668:	
  2137                           ;main.c: 256: tempMode = LCD_V_UD_MODE;
  2138  06FD  1283               	bcf	status, 5	;RP0=0, select bank0
  2139  06FE  1303               	bcf	status, 6	;RP1=0, select bank0
  2140  06FF  01E3               	clrf	(_tempMode)
  2141                           	line	257
  2142                           ;main.c: 257: }
  2143  0700  120A  158A  2BA5   	goto	l9814
  2144                           	line	258
  2145                           	
  2146  085A                     l1132:	
  2147                           	line	259
  2148                           	
  2149  085A                     l9670:	
  2150                           ;main.c: 258: else {
  2151                           ;main.c: 259: if ( mode == LCD_EDIT_MODE ) {
  2152  085A  0867               	movf	(_mode),w
  2153  085B  3A06               	xorlw	06h
  2154  085C  1D03               	skipz
  2155  085D  285F               	goto	u6251
  2156  085E  2860               	goto	u6250
  2157  085F                     u6251:
  2158  085F  2BA5               	goto	l9814
  2159  0860                     u6250:
  2160                           	line	260
  2161                           	
  2162  0860                     l9672:	
  2163                           ;main.c: 260: if ( countEnter == 0 ) {
  2164  0860  08DA               	movf	(_countEnter),f
  2165  0861  1D03               	skipz
  2166  0862  2864               	goto	u6261
  2167  0863  2865               	goto	u6260
  2168  0864                     u6261:
  2169  0864  28E9               	goto	l9712
  2170  0865                     u6260:
  2171                           	line	261
  2172                           	
  2173  0865                     l9674:	
  2174                           ;main.c: 261: countEnter = 1;
  2175  0865  01DA               	clrf	(_countEnter)
  2176  0866  1403               	bsf	status,0
  2177  0867  0DDA               	rlf	(_countEnter),f
  2178                           	line	262
  2179                           	
  2180  0868                     l9676:	
  2181                           ;main.c: 262: compareMode = 0;
  2182  0868  1683               	bsf	status, 5	;RP0=1, select bank3
  2183  0869  1703               	bsf	status, 6	;RP1=1, select bank3
  2184  086A  01AA               	clrf	(main@compareMode)^0180h
  2185                           	line	263
  2186                           ;main.c: 263: if ( tempMode == LCD_V_UD_MODE ) {
  2187  086B  1283               	bcf	status, 5	;RP0=0, select bank0
  2188  086C  1303               	bcf	status, 6	;RP1=0, select bank0
  2189  086D  08E3               	movf	(_tempMode),f
  2190  086E  1D03               	skipz
  2191  086F  2871               	goto	u6271
  2192  0870  2872               	goto	u6270
  2193  0871                     u6271:
  2194  0871  2878               	goto	l9680
  2195  0872                     u6270:
  2196                           	line	264
  2197                           	
  2198  0872                     l9678:	
  2199                           ;main.c: 264: maxCountEnter = countEnter+3;
  2200  0872  085A               	movf	(_countEnter),w
  2201  0873  3E03               	addlw	03h
  2202  0874  00C2               	movwf	(??_main+0)+0
  2203  0875  0842               	movf	(??_main+0)+0,w
  2204  0876  00E1               	movwf	(_maxCountEnter)
  2205                           	line	265
  2206                           ;main.c: 265: }
  2207  0877  28AD               	goto	l9700
  2208                           	line	266
  2209                           	
  2210  0878                     l1138:	
  2211                           	line	267
  2212                           	
  2213  0878                     l9680:	
  2214                           ;main.c: 266: else
  2215                           ;main.c: 267: if ( tempMode == LCD_ARC_I_MODE ) {
  2216  0878  0863               	movf	(_tempMode),w
  2217  0879  3A01               	xorlw	01h
  2218  087A  1D03               	skipz
  2219  087B  287D               	goto	u6281
  2220  087C  287E               	goto	u6280
  2221  087D                     u6281:
  2222  087D  288E               	goto	l9688
  2223  087E                     u6280:
  2224                           	line	268
  2225                           	
  2226  087E                     l9682:	
  2227                           ;main.c: 268: countEnter = 4;
  2228  087E  3004               	movlw	(04h)
  2229  087F  00C2               	movwf	(??_main+0)+0
  2230  0880  0842               	movf	(??_main+0)+0,w
  2231  0881  00DA               	movwf	(_countEnter)
  2232                           	line	269
  2233                           	
  2234  0882                     l9684:	
  2235                           ;main.c: 269: maxCountEnter = countEnter+2;
  2236  0882  085A               	movf	(_countEnter),w
  2237  0883  3E02               	addlw	02h
  2238  0884  00C2               	movwf	(??_main+0)+0
  2239  0885  0842               	movf	(??_main+0)+0,w
  2240  0886  00E1               	movwf	(_maxCountEnter)
  2241                           	line	270
  2242                           ;main.c: 270: compareMode = 1;
  2243  0887  1683               	bsf	status, 5	;RP0=1, select bank3
  2244  0888  1703               	bsf	status, 6	;RP1=1, select bank3
  2245  0889  01AA               	clrf	(main@compareMode)^0180h
  2246  088A  1403               	bsf	status,0
  2247  088B  0DAA               	rlf	(main@compareMode)^0180h,f
  2248                           	line	271
  2249                           	
  2250  088C                     l9686:	
  2251                           ;main.c: 271: compareAmpeValue = 0;
  2252  088C  01AB               	clrf	(main@compareAmpeValue)^0180h
  2253                           	line	272
  2254                           ;main.c: 272: }
  2255  088D  28AD               	goto	l9700
  2256                           	line	273
  2257                           	
  2258  088E                     l1140:	
  2259                           	line	274
  2260                           	
  2261  088E                     l9688:	
  2262                           ;main.c: 273: else
  2263                           ;main.c: 274: if ( tempMode == LCD_ARC_V_MODE ) {
  2264  088E  1283               	bcf	status, 5	;RP0=0, select bank0
  2265  088F  1303               	bcf	status, 6	;RP1=0, select bank0
  2266  0890  0863               	movf	(_tempMode),w
  2267  0891  3A02               	xorlw	02h
  2268  0892  1D03               	skipz
  2269  0893  2895               	goto	u6291
  2270  0894  2896               	goto	u6290
  2271  0895                     u6291:
  2272  0895  28A4               	goto	l9698
  2273  0896                     u6290:
  2274                           	line	275
  2275                           	
  2276  0896                     l9690:	
  2277                           ;main.c: 275: countEnter = 6;
  2278  0896  3006               	movlw	(06h)
  2279  0897  00C2               	movwf	(??_main+0)+0
  2280  0898  0842               	movf	(??_main+0)+0,w
  2281  0899  00DA               	movwf	(_countEnter)
  2282                           	line	276
  2283                           	
  2284  089A                     l9692:	
  2285                           ;main.c: 276: maxCountEnter = countEnter+6;
  2286  089A  085A               	movf	(_countEnter),w
  2287  089B  3E06               	addlw	06h
  2288  089C  00C2               	movwf	(??_main+0)+0
  2289  089D  0842               	movf	(??_main+0)+0,w
  2290  089E  00E1               	movwf	(_maxCountEnter)
  2291                           	line	277
  2292                           	
  2293  089F                     l9694:	
  2294                           ;main.c: 277: compareMode = 0;
  2295  089F  1683               	bsf	status, 5	;RP0=1, select bank3
  2296  08A0  1703               	bsf	status, 6	;RP1=1, select bank3
  2297  08A1  01AA               	clrf	(main@compareMode)^0180h
  2298                           	line	278
  2299                           	
  2300  08A2                     l9696:	
  2301                           ;main.c: 278: compareAmpeValue = 0;
  2302  08A2  01AB               	clrf	(main@compareAmpeValue)^0180h
  2303                           	line	279
  2304                           ;main.c: 279: }
  2305  08A3  28AD               	goto	l9700
  2306                           	line	280
  2307                           	
  2308  08A4                     l1142:	
  2309                           	line	281
  2310                           	
  2311  08A4                     l9698:	
  2312                           ;main.c: 280: else {
  2313                           ;main.c: 281: mode = tempMode;
  2314  08A4  1283               	bcf	status, 5	;RP0=0, select bank0
  2315  08A5  1303               	bcf	status, 6	;RP1=0, select bank0
  2316  08A6  0863               	movf	(_tempMode),w
  2317  08A7  00C2               	movwf	(??_main+0)+0
  2318  08A8  0842               	movf	(??_main+0)+0,w
  2319  08A9  00E7               	movwf	(_mode)
  2320  08AA  28AD               	goto	l9700
  2321                           	line	282
  2322                           	
  2323  08AB                     l1143:	
  2324  08AB  28AD               	goto	l9700
  2325                           	
  2326  08AC                     l1141:	
  2327  08AC  28AD               	goto	l9700
  2328                           	
  2329  08AD                     l1139:	
  2330                           	line	283
  2331                           	
  2332  08AD                     l9700:	
  2333                           ;main.c: 282: }
  2334                           ;main.c: 283: LCD_SetMode(tempMode);
  2335  08AD  1283               	bcf	status, 5	;RP0=0, select bank0
  2336  08AE  1303               	bcf	status, 6	;RP1=0, select bank0
  2337  08AF  0863               	movf	(_tempMode),w
  2338  08B0  120A  118A  22E2   	fcall	_LCD_SetMode
              120A  158A         
  2339                           	line	284
  2340                           	
  2341  08B5                     l9702:	
  2342                           ;main.c: 284: if ( mode != tempMode ) {
  2343  08B5  1283               	bcf	status, 5	;RP0=0, select bank0
  2344  08B6  1303               	bcf	status, 6	;RP1=0, select bank0
  2345  08B7  0867               	movf	(_mode),w
  2346  08B8  0663               	xorwf	(_tempMode),w
  2347  08B9  1903               	skipnz
  2348  08BA  28BC               	goto	u6301
  2349  08BB  28BD               	goto	u6300
  2350  08BC                     u6301:
  2351  08BC  2BA5               	goto	l9814
  2352  08BD                     u6300:
  2353                           	line	285
  2354                           	
  2355  08BD                     l9704:	
  2356                           ;main.c: 285: for ( temp = maxCountEnter - 1; temp >= countEnter; temp--)
  2357  08BD  0861               	movf	(_maxCountEnter),w
  2358  08BE  3EFF               	addlw	0FFh
  2359  08BF  00C2               	movwf	(??_main+0)+0
  2360  08C0  0842               	movf	(??_main+0)+0,w
  2361  08C1  1683               	bsf	status, 5	;RP0=1, select bank3
  2362  08C2  1703               	bsf	status, 6	;RP1=1, select bank3
  2363  08C3  00B0               	movwf	(main@temp)^0180h
  2364  08C4  28DC               	goto	l9710
  2365                           	line	286
  2366                           	
  2367  08C5                     l1146:	
  2368                           	
  2369  08C5                     l9706:	
  2370                           ;main.c: 286: LCD_SetEditValue( temp, value[temp] );
  2371  08C5  0830               	movf	(main@temp)^0180h,w
  2372  08C6  3EDE               	addlw	_value&0ffh
  2373  08C7  0084               	movwf	fsr0
  2374  08C8  1383               	bcf	status, 7	;select IRP bank1
  2375  08C9  0800               	movf	indf,w
  2376  08CA  1283               	bcf	status, 5	;RP0=0, select bank0
  2377  08CB  1303               	bcf	status, 6	;RP1=0, select bank0
  2378  08CC  00C2               	movwf	(??_main+0)+0
  2379  08CD  0842               	movf	(??_main+0)+0,w
  2380  08CE  00A6               	movwf	(?_LCD_SetEditValue)
  2381  08CF  1683               	bsf	status, 5	;RP0=1, select bank3
  2382  08D0  1703               	bsf	status, 6	;RP1=1, select bank3
  2383  08D1  0830               	movf	(main@temp)^0180h,w
  2384  08D2  160A  118A  23D0   	fcall	_LCD_SetEditValue
              120A  158A         
  2385                           	line	285
  2386                           	
  2387  08D7                     l9708:	
  2388  08D7  3001               	movlw	low(01h)
  2389  08D8  1683               	bsf	status, 5	;RP0=1, select bank3
  2390  08D9  1703               	bsf	status, 6	;RP1=1, select bank3
  2391  08DA  02B0               	subwf	(main@temp)^0180h,f
  2392  08DB  28DC               	goto	l9710
  2393                           	
  2394  08DC                     l1145:	
  2395                           	
  2396  08DC                     l9710:	
  2397  08DC  1283               	bcf	status, 5	;RP0=0, select bank0
  2398  08DD  1303               	bcf	status, 6	;RP1=0, select bank0
  2399  08DE  085A               	movf	(_countEnter),w
  2400  08DF  1683               	bsf	status, 5	;RP0=1, select bank3
  2401  08E0  1703               	bsf	status, 6	;RP1=1, select bank3
  2402  08E1  0230               	subwf	(main@temp)^0180h,w
  2403  08E2  1803               	skipnc
  2404  08E3  28E5               	goto	u6311
  2405  08E4  28E6               	goto	u6310
  2406  08E5                     u6311:
  2407  08E5  28C5               	goto	l9706
  2408  08E6                     u6310:
  2409  08E6  2BA5               	goto	l9814
  2410                           	
  2411  08E7                     l1147:	
  2412  08E7  2BA5               	goto	l9814
  2413                           	line	287
  2414                           	
  2415  08E8                     l1144:	
  2416                           	line	289
  2417                           ;main.c: 287: }
  2418                           ;main.c: 289: }
  2419  08E8  2BA5               	goto	l9814
  2420                           	line	290
  2421                           	
  2422  08E9                     l1137:	
  2423                           	line	291
  2424                           	
  2425  08E9                     l9712:	
  2426                           ;main.c: 290: else
  2427                           ;main.c: 291: if ( countEnter < maxCountEnter-1 ) {
  2428  08E9  1283               	bcf	status, 5	;RP0=0, select bank0
  2429  08EA  1303               	bcf	status, 6	;RP1=0, select bank0
  2430  08EB  0861               	movf	(_maxCountEnter),w
  2431  08EC  3EFF               	addlw	low(-1)
  2432  08ED  00C2               	movwf	(??_main+0)+0
  2433  08EE  30FF               	movlw	high(-1)
  2434  08EF  1803               	skipnc
  2435  08F0  3000               	movlw	(high(-1)+1)&0ffh
  2436  08F1  00C3               	movwf	((??_main+0)+0)+1
  2437  08F2  0843               	movf	1+(??_main+0)+0,w
  2438  08F3  3A80               	xorlw	80h
  2439  08F4  3C80               	sublw	080h
  2440  08F5  1D03               	skipz
  2441  08F6  28F9               	goto	u6325
  2442  08F7  0842               	movf	0+(??_main+0)+0,w
  2443  08F8  025A               	subwf	(_countEnter),w
  2444  08F9                     u6325:
  2445                           
  2446  08F9  1803               	skipnc
  2447  08FA  28FC               	goto	u6321
  2448  08FB  28FD               	goto	u6320
  2449  08FC                     u6321:
  2450  08FC  2912               	goto	l1149
  2451  08FD                     u6320:
  2452                           	line	292
  2453                           	
  2454  08FD                     l9714:	
  2455                           ;main.c: 292: countEnter++;
  2456  08FD  3001               	movlw	(01h)
  2457  08FE  1283               	bcf	status, 5	;RP0=0, select bank0
  2458  08FF  1303               	bcf	status, 6	;RP1=0, select bank0
  2459  0900  00C2               	movwf	(??_main+0)+0
  2460  0901  0842               	movf	(??_main+0)+0,w
  2461  0902  07DA               	addwf	(_countEnter),f
  2462                           	line	293
  2463                           	
  2464  0903                     l9716:	
  2465                           ;main.c: 293: LCD_SetEditValue( countEnter, value[countEnter] );
  2466  0903  085A               	movf	(_countEnter),w
  2467  0904  3EDE               	addlw	_value&0ffh
  2468  0905  0084               	movwf	fsr0
  2469  0906  1383               	bcf	status, 7	;select IRP bank1
  2470  0907  0800               	movf	indf,w
  2471  0908  00C2               	movwf	(??_main+0)+0
  2472  0909  0842               	movf	(??_main+0)+0,w
  2473  090A  00A6               	movwf	(?_LCD_SetEditValue)
  2474  090B  085A               	movf	(_countEnter),w
  2475  090C  160A  118A  23D0   	fcall	_LCD_SetEditValue
              120A  158A         
  2476                           	line	294
  2477                           ;main.c: 294: }
  2478  0911  2BA5               	goto	l9814
  2479                           	line	295
  2480                           	
  2481  0912                     l1149:	
  2482                           	line	297
  2483                           ;main.c: 295: else
  2484                           ;main.c: 296: {
  2485                           ;main.c: 297: FLAG_VALUE_CHANGED = 0;
  2486  0912  1283               	bcf	status, 5	;RP0=0, select bank0
  2487  0913  1303               	bcf	status, 6	;RP1=0, select bank0
  2488  0914  01D3               	clrf	(_FLAG_VALUE_CHANGED)	;volatile
  2489                           	line	298
  2490                           	
  2491  0915                     l9718:	
  2492                           ;main.c: 298: unIntTemp = (unsigned int) value[1] * 100 + value[2] * 10 + value[3];
  2493  0915  1683               	bsf	status, 5	;RP0=1, select bank1
  2494  0916  1303               	bcf	status, 6	;RP1=0, select bank1
  2495  0917  085F               	movf	0+(_value)^080h+01h,w
  2496  0918  1283               	bcf	status, 5	;RP0=0, select bank0
  2497  0919  1303               	bcf	status, 6	;RP1=0, select bank0
  2498  091A  00C2               	movwf	(??_main+0)+0
  2499  091B  01C3               	clrf	(??_main+0)+0+1
  2500  091C  0842               	movf	0+(??_main+0)+0,w
  2501  091D  00A0               	movwf	(?___wmul)
  2502  091E  0843               	movf	1+(??_main+0)+0,w
  2503  091F  00A1               	movwf	(?___wmul+1)
  2504  0920  3064               	movlw	low(064h)
  2505  0921  00A2               	movwf	0+(?___wmul)+02h
  2506  0922  3000               	movlw	high(064h)
  2507  0923  00A3               	movwf	(0+(?___wmul)+02h)+1
  2508  0924  160A  118A  21F6   	fcall	___wmul
              120A  158A         
  2509  0929  1283               	bcf	status, 5	;RP0=0, select bank0
  2510  092A  1303               	bcf	status, 6	;RP1=0, select bank0
  2511  092B  0820               	movf	(0+?___wmul),w
  2512  092C  00C4               	movwf	(??_main+2)+0
  2513  092D  0821               	movf	(1+?___wmul),w
  2514  092E  00C5               	movwf	((??_main+2)+0+1)
  2515  092F  1683               	bsf	status, 5	;RP0=1, select bank1
  2516  0930  1303               	bcf	status, 6	;RP1=0, select bank1
  2517  0931  0860               	movf	0+(_value)^080h+02h,w
  2518  0932  1283               	bcf	status, 5	;RP0=0, select bank0
  2519  0933  1303               	bcf	status, 6	;RP1=0, select bank0
  2520  0934  00C6               	movwf	(??_main+4)+0
  2521  0935  01C7               	clrf	(??_main+4)+0+1
  2522  0936  0846               	movf	0+(??_main+4)+0,w
  2523  0937  00A0               	movwf	(?___wmul)
  2524  0938  0847               	movf	1+(??_main+4)+0,w
  2525  0939  00A1               	movwf	(?___wmul+1)
  2526  093A  300A               	movlw	low(0Ah)
  2527  093B  00A2               	movwf	0+(?___wmul)+02h
  2528  093C  3000               	movlw	high(0Ah)
  2529  093D  00A3               	movwf	(0+(?___wmul)+02h)+1
  2530  093E  160A  118A  21F6   	fcall	___wmul
              120A  158A         
  2531  0943  1283               	bcf	status, 5	;RP0=0, select bank0
  2532  0944  1303               	bcf	status, 6	;RP1=0, select bank0
  2533  0945  0820               	movf	(0+(?___wmul)),w
  2534  0946  0744               	addwf	0+(??_main+2)+0,w
  2535  0947  00C8               	movwf	(??_main+6)+0
  2536  0948  0821               	movf	(1+(?___wmul)),w
  2537  0949  1803               	skipnc
  2538  094A  0A21               	incf	(1+(?___wmul)),w
  2539  094B  0745               	addwf	1+(??_main+2)+0,w
  2540  094C  00C9               	movwf	1+(??_main+6)+0
  2541  094D  1683               	bsf	status, 5	;RP0=1, select bank1
  2542  094E  1303               	bcf	status, 6	;RP1=0, select bank1
  2543  094F  0861               	movf	0+(_value)^080h+03h,w
  2544  0950  1283               	bcf	status, 5	;RP0=0, select bank0
  2545  0951  1303               	bcf	status, 6	;RP1=0, select bank0
  2546  0952  0748               	addwf	0+(??_main+6)+0,w
  2547  0953  00CA               	movwf	(_unIntTemp)
  2548  0954  3000               	movlw	0
  2549  0955  1803               	skipnc
  2550  0956  3001               	movlw	1
  2551  0957  0749               	addwf	1+(??_main+6)+0,w
  2552  0958  00CB               	movwf	1+(_unIntTemp)
  2553                           	line	299
  2554                           	
  2555  0959                     l9720:	
  2556                           ;main.c: 299: if (unIntTemp != voltage_set_value) {
  2557  0959  084D               	movf	(_voltage_set_value+1),w
  2558  095A  064B               	xorwf	(_unIntTemp+1),w
  2559  095B  1D03               	skipz
  2560  095C  295F               	goto	u6335
  2561  095D  084C               	movf	(_voltage_set_value),w
  2562  095E  064A               	xorwf	(_unIntTemp),w
  2563  095F                     u6335:
  2564                           
  2565  095F  1903               	skipnz
  2566  0960  2962               	goto	u6331
  2567  0961  2963               	goto	u6330
  2568  0962                     u6331:
  2569  0962  297A               	goto	l9728
  2570  0963                     u6330:
  2571                           	line	300
  2572                           	
  2573  0963                     l9722:	
  2574                           ;main.c: 300: voltage_set_value = unIntTemp;
  2575  0963  084B               	movf	(_unIntTemp+1),w
  2576  0964  01CD               	clrf	(_voltage_set_value+1)
  2577  0965  07CD               	addwf	(_voltage_set_value+1)
  2578  0966  084A               	movf	(_unIntTemp),w
  2579  0967  01CC               	clrf	(_voltage_set_value)
  2580  0968  07CC               	addwf	(_voltage_set_value)
  2581                           
  2582                           	line	301
  2583                           	
  2584  0969                     l9724:	
  2585                           ;main.c: 301: SetValueSetV(voltage_set_value);
  2586  0969  084D               	movf	(_voltage_set_value+1),w
  2587  096A  01A1               	clrf	(?_SetValueSetV+1)
  2588  096B  07A1               	addwf	(?_SetValueSetV+1)
  2589  096C  084C               	movf	(_voltage_set_value),w
  2590  096D  01A0               	clrf	(?_SetValueSetV)
  2591  096E  07A0               	addwf	(?_SetValueSetV)
  2592                           
  2593  096F  120A  158A  2001   	fcall	_SetValueSetV
              120A  158A         
  2594                           	line	302
  2595                           	
  2596  0974                     l9726:	
  2597                           ;main.c: 302: FLAG_VALUE_CHANGED = 1;
  2598  0974  1283               	bcf	status, 5	;RP0=0, select bank0
  2599  0975  1303               	bcf	status, 6	;RP1=0, select bank0
  2600  0976  01D3               	clrf	(_FLAG_VALUE_CHANGED)	;volatile
  2601  0977  1403               	bsf	status,0
  2602  0978  0DD3               	rlf	(_FLAG_VALUE_CHANGED),f	;volatile
  2603  0979  297A               	goto	l9728
  2604                           	line	303
  2605                           	
  2606  097A                     l1151:	
  2607                           	line	305
  2608                           	
  2609  097A                     l9728:	
  2610                           ;main.c: 303: }
  2611                           ;main.c: 305: unIntTemp = (unsigned int) value[4] * 10 + value[5];
  2612  097A  1683               	bsf	status, 5	;RP0=1, select bank1
  2613  097B  1303               	bcf	status, 6	;RP1=0, select bank1
  2614  097C  0862               	movf	0+(_value)^080h+04h,w
  2615  097D  1283               	bcf	status, 5	;RP0=0, select bank0
  2616  097E  1303               	bcf	status, 6	;RP1=0, select bank0
  2617  097F  00C2               	movwf	(??_main+0)+0
  2618  0980  01C3               	clrf	(??_main+0)+0+1
  2619  0981  0842               	movf	0+(??_main+0)+0,w
  2620  0982  00A0               	movwf	(?___wmul)
  2621  0983  0843               	movf	1+(??_main+0)+0,w
  2622  0984  00A1               	movwf	(?___wmul+1)
  2623  0985  300A               	movlw	low(0Ah)
  2624  0986  00A2               	movwf	0+(?___wmul)+02h
  2625  0987  3000               	movlw	high(0Ah)
  2626  0988  00A3               	movwf	(0+(?___wmul)+02h)+1
  2627  0989  160A  118A  21F6   	fcall	___wmul
              120A  158A         
  2628  098E  1683               	bsf	status, 5	;RP0=1, select bank1
  2629  098F  1303               	bcf	status, 6	;RP1=0, select bank1
  2630  0990  0863               	movf	0+(_value)^080h+05h,w
  2631  0991  1283               	bcf	status, 5	;RP0=0, select bank0
  2632  0992  1303               	bcf	status, 6	;RP1=0, select bank0
  2633  0993  0720               	addwf	(0+(?___wmul)),w
  2634  0994  00CA               	movwf	(_unIntTemp)
  2635  0995  3000               	movlw	0
  2636  0996  1803               	skipnc
  2637  0997  3001               	movlw	1
  2638  0998  0721               	addwf	(1+(?___wmul)),w
  2639  0999  00CB               	movwf	1+(_unIntTemp)
  2640                           	line	306
  2641                           ;main.c: 306: if (unIntTemp != compareAmpeValue) {
  2642  099A  1683               	bsf	status, 5	;RP0=1, select bank3
  2643  099B  1703               	bsf	status, 6	;RP1=1, select bank3
  2644  099C  082B               	movf	(main@compareAmpeValue)^0180h,w
  2645  099D  1283               	bcf	status, 5	;RP0=0, select bank0
  2646  099E  1303               	bcf	status, 6	;RP1=0, select bank0
  2647  099F  00C2               	movwf	(??_main+0)+0
  2648  09A0  01C3               	clrf	(??_main+0)+0+1
  2649  09A1  084B               	movf	(_unIntTemp+1),w
  2650  09A2  0643               	xorwf	1+(??_main+0)+0,w
  2651  09A3  1D03               	skipz
  2652  09A4  29A7               	goto	u6345
  2653  09A5  084A               	movf	(_unIntTemp),w
  2654  09A6  0642               	xorwf	0+(??_main+0)+0,w
  2655  09A7                     u6345:
  2656                           
  2657  09A7  1903               	skipnz
  2658  09A8  29AA               	goto	u6341
  2659  09A9  29AB               	goto	u6340
  2660  09AA                     u6341:
  2661  09AA  29B7               	goto	l9734
  2662  09AB                     u6340:
  2663                           	line	307
  2664                           	
  2665  09AB                     l9730:	
  2666                           ;main.c: 307: compareAmpeValue = unIntTemp;
  2667  09AB  084A               	movf	(_unIntTemp),w
  2668  09AC  00C2               	movwf	(??_main+0)+0
  2669  09AD  0842               	movf	(??_main+0)+0,w
  2670  09AE  1683               	bsf	status, 5	;RP0=1, select bank3
  2671  09AF  1703               	bsf	status, 6	;RP1=1, select bank3
  2672  09B0  00AB               	movwf	(main@compareAmpeValue)^0180h
  2673                           	line	308
  2674                           	
  2675  09B1                     l9732:	
  2676                           ;main.c: 308: FLAG_VALUE_CHANGED = 1;
  2677  09B1  1283               	bcf	status, 5	;RP0=0, select bank0
  2678  09B2  1303               	bcf	status, 6	;RP1=0, select bank0
  2679  09B3  01D3               	clrf	(_FLAG_VALUE_CHANGED)	;volatile
  2680  09B4  1403               	bsf	status,0
  2681  09B5  0DD3               	rlf	(_FLAG_VALUE_CHANGED),f	;volatile
  2682  09B6  29B7               	goto	l9734
  2683                           	line	309
  2684                           	
  2685  09B7                     l1152:	
  2686                           	line	311
  2687                           	
  2688  09B7                     l9734:	
  2689                           ;main.c: 309: }
  2690                           ;main.c: 311: unIntTemp = (unsigned int) value[6] * 100 + value[7] * 10 + value[8];
  2691  09B7  1683               	bsf	status, 5	;RP0=1, select bank1
  2692  09B8  1303               	bcf	status, 6	;RP1=0, select bank1
  2693  09B9  0864               	movf	0+(_value)^080h+06h,w
  2694  09BA  1283               	bcf	status, 5	;RP0=0, select bank0
  2695  09BB  1303               	bcf	status, 6	;RP1=0, select bank0
  2696  09BC  00C2               	movwf	(??_main+0)+0
  2697  09BD  01C3               	clrf	(??_main+0)+0+1
  2698  09BE  0842               	movf	0+(??_main+0)+0,w
  2699  09BF  00A0               	movwf	(?___wmul)
  2700  09C0  0843               	movf	1+(??_main+0)+0,w
  2701  09C1  00A1               	movwf	(?___wmul+1)
  2702  09C2  3064               	movlw	low(064h)
  2703  09C3  00A2               	movwf	0+(?___wmul)+02h
  2704  09C4  3000               	movlw	high(064h)
  2705  09C5  00A3               	movwf	(0+(?___wmul)+02h)+1
  2706  09C6  160A  118A  21F6   	fcall	___wmul
              120A  158A         
  2707  09CB  1283               	bcf	status, 5	;RP0=0, select bank0
  2708  09CC  1303               	bcf	status, 6	;RP1=0, select bank0
  2709  09CD  0820               	movf	(0+?___wmul),w
  2710  09CE  00C4               	movwf	(??_main+2)+0
  2711  09CF  0821               	movf	(1+?___wmul),w
  2712  09D0  00C5               	movwf	((??_main+2)+0+1)
  2713  09D1  1683               	bsf	status, 5	;RP0=1, select bank1
  2714  09D2  1303               	bcf	status, 6	;RP1=0, select bank1
  2715  09D3  0865               	movf	0+(_value)^080h+07h,w
  2716  09D4  1283               	bcf	status, 5	;RP0=0, select bank0
  2717  09D5  1303               	bcf	status, 6	;RP1=0, select bank0
  2718  09D6  00C6               	movwf	(??_main+4)+0
  2719  09D7  01C7               	clrf	(??_main+4)+0+1
  2720  09D8  0846               	movf	0+(??_main+4)+0,w
  2721  09D9  00A0               	movwf	(?___wmul)
  2722  09DA  0847               	movf	1+(??_main+4)+0,w
  2723  09DB  00A1               	movwf	(?___wmul+1)
  2724  09DC  300A               	movlw	low(0Ah)
  2725  09DD  00A2               	movwf	0+(?___wmul)+02h
  2726  09DE  3000               	movlw	high(0Ah)
  2727  09DF  00A3               	movwf	(0+(?___wmul)+02h)+1
  2728  09E0  160A  118A  21F6   	fcall	___wmul
              120A  158A         
  2729  09E5  1283               	bcf	status, 5	;RP0=0, select bank0
  2730  09E6  1303               	bcf	status, 6	;RP1=0, select bank0
  2731  09E7  0820               	movf	(0+(?___wmul)),w
  2732  09E8  0744               	addwf	0+(??_main+2)+0,w
  2733  09E9  00C8               	movwf	(??_main+6)+0
  2734  09EA  0821               	movf	(1+(?___wmul)),w
  2735  09EB  1803               	skipnc
  2736  09EC  0A21               	incf	(1+(?___wmul)),w
  2737  09ED  0745               	addwf	1+(??_main+2)+0,w
  2738  09EE  00C9               	movwf	1+(??_main+6)+0
  2739  09EF  1683               	bsf	status, 5	;RP0=1, select bank1
  2740  09F0  1303               	bcf	status, 6	;RP1=0, select bank1
  2741  09F1  0866               	movf	0+(_value)^080h+08h,w
  2742  09F2  1283               	bcf	status, 5	;RP0=0, select bank0
  2743  09F3  1303               	bcf	status, 6	;RP1=0, select bank0
  2744  09F4  0748               	addwf	0+(??_main+6)+0,w
  2745  09F5  00CA               	movwf	(_unIntTemp)
  2746  09F6  3000               	movlw	0
  2747  09F7  1803               	skipnc
  2748  09F8  3001               	movlw	1
  2749  09F9  0749               	addwf	1+(??_main+6)+0,w
  2750  09FA  00CB               	movwf	1+(_unIntTemp)
  2751                           	line	312
  2752                           	
  2753  09FB                     l9736:	
  2754                           ;main.c: 312: if (unIntTemp != maxVol) {
  2755  09FB  1683               	bsf	status, 5	;RP0=1, select bank3
  2756  09FC  1703               	bsf	status, 6	;RP1=1, select bank3
  2757  09FD  082D               	movf	(main@maxVol+1)^0180h,w
  2758  09FE  1283               	bcf	status, 5	;RP0=0, select bank0
  2759  09FF  1303               	bcf	status, 6	;RP1=0, select bank0
  2760  0A00  064B               	xorwf	(_unIntTemp+1),w
  2761  0A01  1D03               	skipz
  2762  0A02  2A09               	goto	u6355
  2763  0A03  1683               	bsf	status, 5	;RP0=1, select bank3
  2764  0A04  1703               	bsf	status, 6	;RP1=1, select bank3
  2765  0A05  082C               	movf	(main@maxVol)^0180h,w
  2766  0A06  1283               	bcf	status, 5	;RP0=0, select bank0
  2767  0A07  1303               	bcf	status, 6	;RP1=0, select bank0
  2768  0A08  064A               	xorwf	(_unIntTemp),w
  2769  0A09                     u6355:
  2770                           
  2771  0A09  1903               	skipnz
  2772  0A0A  2A0C               	goto	u6351
  2773  0A0B  2A0D               	goto	u6350
  2774  0A0C                     u6351:
  2775  0A0C  2A1F               	goto	l9742
  2776  0A0D                     u6350:
  2777                           	line	313
  2778                           	
  2779  0A0D                     l9738:	
  2780                           ;main.c: 313: maxVol = unIntTemp;
  2781  0A0D  084B               	movf	(_unIntTemp+1),w
  2782  0A0E  1683               	bsf	status, 5	;RP0=1, select bank3
  2783  0A0F  1703               	bsf	status, 6	;RP1=1, select bank3
  2784  0A10  01AD               	clrf	(main@maxVol+1)^0180h
  2785  0A11  07AD               	addwf	(main@maxVol+1)^0180h
  2786  0A12  1283               	bcf	status, 5	;RP0=0, select bank0
  2787  0A13  1303               	bcf	status, 6	;RP1=0, select bank0
  2788  0A14  084A               	movf	(_unIntTemp),w
  2789  0A15  1683               	bsf	status, 5	;RP0=1, select bank3
  2790  0A16  1703               	bsf	status, 6	;RP1=1, select bank3
  2791  0A17  01AC               	clrf	(main@maxVol)^0180h
  2792  0A18  07AC               	addwf	(main@maxVol)^0180h
  2793                           
  2794                           	line	314
  2795                           	
  2796  0A19                     l9740:	
  2797                           ;main.c: 314: FLAG_VALUE_CHANGED = 1;
  2798  0A19  1283               	bcf	status, 5	;RP0=0, select bank0
  2799  0A1A  1303               	bcf	status, 6	;RP1=0, select bank0
  2800  0A1B  01D3               	clrf	(_FLAG_VALUE_CHANGED)	;volatile
  2801  0A1C  1403               	bsf	status,0
  2802  0A1D  0DD3               	rlf	(_FLAG_VALUE_CHANGED),f	;volatile
  2803  0A1E  2A1F               	goto	l9742
  2804                           	line	315
  2805                           	
  2806  0A1F                     l1153:	
  2807                           	line	317
  2808                           	
  2809  0A1F                     l9742:	
  2810                           ;main.c: 315: }
  2811                           ;main.c: 317: unIntTemp = (unsigned int) value[9] * 100 + value[10] * 10 + value[11];
  2812  0A1F  1683               	bsf	status, 5	;RP0=1, select bank1
  2813  0A20  1303               	bcf	status, 6	;RP1=0, select bank1
  2814  0A21  0867               	movf	0+(_value)^080h+09h,w
  2815  0A22  1283               	bcf	status, 5	;RP0=0, select bank0
  2816  0A23  1303               	bcf	status, 6	;RP1=0, select bank0
  2817  0A24  00C2               	movwf	(??_main+0)+0
  2818  0A25  01C3               	clrf	(??_main+0)+0+1
  2819  0A26  0842               	movf	0+(??_main+0)+0,w
  2820  0A27  00A0               	movwf	(?___wmul)
  2821  0A28  0843               	movf	1+(??_main+0)+0,w
  2822  0A29  00A1               	movwf	(?___wmul+1)
  2823  0A2A  3064               	movlw	low(064h)
  2824  0A2B  00A2               	movwf	0+(?___wmul)+02h
  2825  0A2C  3000               	movlw	high(064h)
  2826  0A2D  00A3               	movwf	(0+(?___wmul)+02h)+1
  2827  0A2E  160A  118A  21F6   	fcall	___wmul
              120A  158A         
  2828  0A33  1283               	bcf	status, 5	;RP0=0, select bank0
  2829  0A34  1303               	bcf	status, 6	;RP1=0, select bank0
  2830  0A35  0820               	movf	(0+?___wmul),w
  2831  0A36  00C4               	movwf	(??_main+2)+0
  2832  0A37  0821               	movf	(1+?___wmul),w
  2833  0A38  00C5               	movwf	((??_main+2)+0+1)
  2834  0A39  1683               	bsf	status, 5	;RP0=1, select bank1
  2835  0A3A  1303               	bcf	status, 6	;RP1=0, select bank1
  2836  0A3B  0868               	movf	0+(_value)^080h+0Ah,w
  2837  0A3C  1283               	bcf	status, 5	;RP0=0, select bank0
  2838  0A3D  1303               	bcf	status, 6	;RP1=0, select bank0
  2839  0A3E  00C6               	movwf	(??_main+4)+0
  2840  0A3F  01C7               	clrf	(??_main+4)+0+1
  2841  0A40  0846               	movf	0+(??_main+4)+0,w
  2842  0A41  00A0               	movwf	(?___wmul)
  2843  0A42  0847               	movf	1+(??_main+4)+0,w
  2844  0A43  00A1               	movwf	(?___wmul+1)
  2845  0A44  300A               	movlw	low(0Ah)
  2846  0A45  00A2               	movwf	0+(?___wmul)+02h
  2847  0A46  3000               	movlw	high(0Ah)
  2848  0A47  00A3               	movwf	(0+(?___wmul)+02h)+1
  2849  0A48  160A  118A  21F6   	fcall	___wmul
              120A  158A         
  2850  0A4D  1283               	bcf	status, 5	;RP0=0, select bank0
  2851  0A4E  1303               	bcf	status, 6	;RP1=0, select bank0
  2852  0A4F  0820               	movf	(0+(?___wmul)),w
  2853  0A50  0744               	addwf	0+(??_main+2)+0,w
  2854  0A51  00C8               	movwf	(??_main+6)+0
  2855  0A52  0821               	movf	(1+(?___wmul)),w
  2856  0A53  1803               	skipnc
  2857  0A54  0A21               	incf	(1+(?___wmul)),w
  2858  0A55  0745               	addwf	1+(??_main+2)+0,w
  2859  0A56  00C9               	movwf	1+(??_main+6)+0
  2860  0A57  1683               	bsf	status, 5	;RP0=1, select bank1
  2861  0A58  1303               	bcf	status, 6	;RP1=0, select bank1
  2862  0A59  0869               	movf	0+(_value)^080h+0Bh,w
  2863  0A5A  1283               	bcf	status, 5	;RP0=0, select bank0
  2864  0A5B  1303               	bcf	status, 6	;RP1=0, select bank0
  2865  0A5C  0748               	addwf	0+(??_main+6)+0,w
  2866  0A5D  00CA               	movwf	(_unIntTemp)
  2867  0A5E  3000               	movlw	0
  2868  0A5F  1803               	skipnc
  2869  0A60  3001               	movlw	1
  2870  0A61  0749               	addwf	1+(??_main+6)+0,w
  2871  0A62  00CB               	movwf	1+(_unIntTemp)
  2872                           	line	318
  2873                           	
  2874  0A63                     l9744:	
  2875                           ;main.c: 318: if (unIntTemp != minVol) {
  2876  0A63  1683               	bsf	status, 5	;RP0=1, select bank3
  2877  0A64  1703               	bsf	status, 6	;RP1=1, select bank3
  2878  0A65  082F               	movf	(main@minVol+1)^0180h,w
  2879  0A66  1283               	bcf	status, 5	;RP0=0, select bank0
  2880  0A67  1303               	bcf	status, 6	;RP1=0, select bank0
  2881  0A68  064B               	xorwf	(_unIntTemp+1),w
  2882  0A69  1D03               	skipz
  2883  0A6A  2A71               	goto	u6365
  2884  0A6B  1683               	bsf	status, 5	;RP0=1, select bank3
  2885  0A6C  1703               	bsf	status, 6	;RP1=1, select bank3
  2886  0A6D  082E               	movf	(main@minVol)^0180h,w
  2887  0A6E  1283               	bcf	status, 5	;RP0=0, select bank0
  2888  0A6F  1303               	bcf	status, 6	;RP1=0, select bank0
  2889  0A70  064A               	xorwf	(_unIntTemp),w
  2890  0A71                     u6365:
  2891                           
  2892  0A71  1903               	skipnz
  2893  0A72  2A74               	goto	u6361
  2894  0A73  2A75               	goto	u6360
  2895  0A74                     u6361:
  2896  0A74  2A86               	goto	l1154
  2897  0A75                     u6360:
  2898                           	line	319
  2899                           	
  2900  0A75                     l9746:	
  2901                           ;main.c: 319: minVol = unIntTemp;
  2902  0A75  084B               	movf	(_unIntTemp+1),w
  2903  0A76  1683               	bsf	status, 5	;RP0=1, select bank3
  2904  0A77  1703               	bsf	status, 6	;RP1=1, select bank3
  2905  0A78  01AF               	clrf	(main@minVol+1)^0180h
  2906  0A79  07AF               	addwf	(main@minVol+1)^0180h
  2907  0A7A  1283               	bcf	status, 5	;RP0=0, select bank0
  2908  0A7B  1303               	bcf	status, 6	;RP1=0, select bank0
  2909  0A7C  084A               	movf	(_unIntTemp),w
  2910  0A7D  1683               	bsf	status, 5	;RP0=1, select bank3
  2911  0A7E  1703               	bsf	status, 6	;RP1=1, select bank3
  2912  0A7F  01AE               	clrf	(main@minVol)^0180h
  2913  0A80  07AE               	addwf	(main@minVol)^0180h
  2914                           
  2915                           	line	320
  2916                           	
  2917  0A81                     l9748:	
  2918                           ;main.c: 320: FLAG_VALUE_CHANGED = 1;
  2919  0A81  1283               	bcf	status, 5	;RP0=0, select bank0
  2920  0A82  1303               	bcf	status, 6	;RP1=0, select bank0
  2921  0A83  01D3               	clrf	(_FLAG_VALUE_CHANGED)	;volatile
  2922  0A84  1403               	bsf	status,0
  2923  0A85  0DD3               	rlf	(_FLAG_VALUE_CHANGED),f	;volatile
  2924                           	line	321
  2925                           	
  2926  0A86                     l1154:	
  2927                           	line	323
  2928                           ;main.c: 321: }
  2929                           ;main.c: 323: if (FLAG_VALUE_CHANGED) {
  2930  0A86  0853               	movf	(_FLAG_VALUE_CHANGED),w	;volatile
  2931  0A87  1D03               	skipz
  2932  0A88  2A8A               	goto	u6370
  2933  0A89  2AE3               	goto	l9766
  2934  0A8A                     u6370:
  2935                           	line	324
  2936                           	
  2937  0A8A                     l9750:	
  2938                           ;main.c: 324: LCD_SubMode(compareMode);
  2939  0A8A  1683               	bsf	status, 5	;RP0=1, select bank3
  2940  0A8B  1703               	bsf	status, 6	;RP1=1, select bank3
  2941  0A8C  082A               	movf	(main@compareMode)^0180h,w
  2942  0A8D  160A  118A  213D   	fcall	_LCD_SubMode
              120A  158A         
  2943                           	line	325
  2944                           	
  2945  0A92                     l9752:	
  2946                           ;main.c: 325: Data_Output[1] = (unsigned char)(voltage_set_value >> 8);
  2947  0A92  1283               	bcf	status, 5	;RP0=0, select bank0
  2948  0A93  1303               	bcf	status, 6	;RP1=0, select bank0
  2949  0A94  084D               	movf	(_voltage_set_value+1),w
  2950  0A95  00C2               	movwf	(??_main+0)+0
  2951  0A96  0842               	movf	(??_main+0)+0,w
  2952  0A97  1683               	bsf	status, 5	;RP0=1, select bank1
  2953  0A98  1303               	bcf	status, 6	;RP1=0, select bank1
  2954  0A99  00B0               	movwf	0+(_Data_Output)^080h+01h	;volatile
  2955                           	line	326
  2956                           	
  2957  0A9A                     l9754:	
  2958                           ;main.c: 326: Data_Output[2] = (unsigned char)voltage_set_value;
  2959  0A9A  1283               	bcf	status, 5	;RP0=0, select bank0
  2960  0A9B  1303               	bcf	status, 6	;RP1=0, select bank0
  2961  0A9C  084C               	movf	(_voltage_set_value),w
  2962  0A9D  00C2               	movwf	(??_main+0)+0
  2963  0A9E  0842               	movf	(??_main+0)+0,w
  2964  0A9F  1683               	bsf	status, 5	;RP0=1, select bank1
  2965  0AA0  1303               	bcf	status, 6	;RP1=0, select bank1
  2966  0AA1  00B1               	movwf	0+(_Data_Output)^080h+02h	;volatile
  2967                           	line	327
  2968                           	
  2969  0AA2                     l9756:	
  2970                           ;main.c: 327: Data_Output[3] = compareAmpeValue | ( compareMode << 7 );
  2971  0AA2  1683               	bsf	status, 5	;RP0=1, select bank3
  2972  0AA3  1703               	bsf	status, 6	;RP1=1, select bank3
  2973  0AA4  082A               	movf	(main@compareMode)^0180h,w
  2974  0AA5  1283               	bcf	status, 5	;RP0=0, select bank0
  2975  0AA6  1303               	bcf	status, 6	;RP1=0, select bank0
  2976  0AA7  00C2               	movwf	(??_main+0)+0
  2977  0AA8  3006               	movlw	(07h)-1
  2978  0AA9                     u6385:
  2979  0AA9  1003               	clrc
  2980  0AAA  0DC2               	rlf	(??_main+0)+0,f
  2981  0AAB  3EFF               	addlw	-1
  2982  0AAC  1D03               	skipz
  2983  0AAD  2AA9               	goto	u6385
  2984  0AAE  1003               	clrc
  2985  0AAF  0D42               	rlf	(??_main+0)+0,w
  2986  0AB0  1683               	bsf	status, 5	;RP0=1, select bank3
  2987  0AB1  1703               	bsf	status, 6	;RP1=1, select bank3
  2988  0AB2  042B               	iorwf	(main@compareAmpeValue)^0180h,w
  2989  0AB3  1283               	bcf	status, 5	;RP0=0, select bank0
  2990  0AB4  1303               	bcf	status, 6	;RP1=0, select bank0
  2991  0AB5  00C3               	movwf	(??_main+1)+0
  2992  0AB6  0843               	movf	(??_main+1)+0,w
  2993  0AB7  1683               	bsf	status, 5	;RP0=1, select bank1
  2994  0AB8  1303               	bcf	status, 6	;RP1=0, select bank1
  2995  0AB9  00B2               	movwf	0+(_Data_Output)^080h+03h	;volatile
  2996                           	line	328
  2997                           	
  2998  0ABA                     l9758:	
  2999                           ;main.c: 328: Data_Output[4] = (unsigned char)(maxVol >> 8);
  3000  0ABA  1683               	bsf	status, 5	;RP0=1, select bank3
  3001  0ABB  1703               	bsf	status, 6	;RP1=1, select bank3
  3002  0ABC  082D               	movf	(main@maxVol+1)^0180h,w
  3003  0ABD  1283               	bcf	status, 5	;RP0=0, select bank0
  3004  0ABE  1303               	bcf	status, 6	;RP1=0, select bank0
  3005  0ABF  00C2               	movwf	(??_main+0)+0
  3006  0AC0  0842               	movf	(??_main+0)+0,w
  3007  0AC1  1683               	bsf	status, 5	;RP0=1, select bank1
  3008  0AC2  1303               	bcf	status, 6	;RP1=0, select bank1
  3009  0AC3  00B3               	movwf	0+(_Data_Output)^080h+04h	;volatile
  3010                           	line	329
  3011                           	
  3012  0AC4                     l9760:	
  3013                           ;main.c: 329: Data_Output[5] = (unsigned char) maxVol;
  3014  0AC4  1683               	bsf	status, 5	;RP0=1, select bank3
  3015  0AC5  1703               	bsf	status, 6	;RP1=1, select bank3
  3016  0AC6  082C               	movf	(main@maxVol)^0180h,w
  3017  0AC7  1283               	bcf	status, 5	;RP0=0, select bank0
  3018  0AC8  1303               	bcf	status, 6	;RP1=0, select bank0
  3019  0AC9  00C2               	movwf	(??_main+0)+0
  3020  0ACA  0842               	movf	(??_main+0)+0,w
  3021  0ACB  1683               	bsf	status, 5	;RP0=1, select bank1
  3022  0ACC  1303               	bcf	status, 6	;RP1=0, select bank1
  3023  0ACD  00B4               	movwf	0+(_Data_Output)^080h+05h	;volatile
  3024                           	line	330
  3025                           	
  3026  0ACE                     l9762:	
  3027                           ;main.c: 330: Data_Output[6] = (unsigned char)(minVol >> 8);
  3028  0ACE  1683               	bsf	status, 5	;RP0=1, select bank3
  3029  0ACF  1703               	bsf	status, 6	;RP1=1, select bank3
  3030  0AD0  082F               	movf	(main@minVol+1)^0180h,w
  3031  0AD1  1283               	bcf	status, 5	;RP0=0, select bank0
  3032  0AD2  1303               	bcf	status, 6	;RP1=0, select bank0
  3033  0AD3  00C2               	movwf	(??_main+0)+0
  3034  0AD4  0842               	movf	(??_main+0)+0,w
  3035  0AD5  1683               	bsf	status, 5	;RP0=1, select bank1
  3036  0AD6  1303               	bcf	status, 6	;RP1=0, select bank1
  3037  0AD7  00B5               	movwf	0+(_Data_Output)^080h+06h	;volatile
  3038                           	line	331
  3039                           	
  3040  0AD8                     l9764:	
  3041                           ;main.c: 331: Data_Output[7] = (unsigned char) minVol;
  3042  0AD8  1683               	bsf	status, 5	;RP0=1, select bank3
  3043  0AD9  1703               	bsf	status, 6	;RP1=1, select bank3
  3044  0ADA  082E               	movf	(main@minVol)^0180h,w
  3045  0ADB  1283               	bcf	status, 5	;RP0=0, select bank0
  3046  0ADC  1303               	bcf	status, 6	;RP1=0, select bank0
  3047  0ADD  00C2               	movwf	(??_main+0)+0
  3048  0ADE  0842               	movf	(??_main+0)+0,w
  3049  0ADF  1683               	bsf	status, 5	;RP0=1, select bank1
  3050  0AE0  1303               	bcf	status, 6	;RP1=0, select bank1
  3051  0AE1  00B6               	movwf	0+(_Data_Output)^080h+07h	;volatile
  3052  0AE2  2AE3               	goto	l9766
  3053                           	line	332
  3054                           	
  3055  0AE3                     l1155:	
  3056                           	line	333
  3057                           	
  3058  0AE3                     l9766:	
  3059                           ;main.c: 332: }
  3060                           ;main.c: 333: mode = LCD_RUN_MODE;
  3061  0AE3  3003               	movlw	(03h)
  3062  0AE4  1283               	bcf	status, 5	;RP0=0, select bank0
  3063  0AE5  00C2               	movwf	(??_main+0)+0
  3064  0AE6  0842               	movf	(??_main+0)+0,w
  3065  0AE7  00E7               	movwf	(_mode)
  3066                           	line	334
  3067                           	
  3068  0AE8                     l9768:	
  3069                           ;main.c: 334: LCD_SetMode( mode );
  3070  0AE8  0867               	movf	(_mode),w
  3071  0AE9  120A  118A  22E2   	fcall	_LCD_SetMode
              120A  158A         
  3072  0AEE  2BA5               	goto	l9814
  3073                           	line	335
  3074                           	
  3075  0AEF                     l1150:	
  3076  0AEF  2BA5               	goto	l9814
  3077                           	
  3078  0AF0                     l1148:	
  3079  0AF0  2BA5               	goto	l9814
  3080                           	line	336
  3081                           	
  3082  0AF1                     l1136:	
  3083  0AF1  2BA5               	goto	l9814
  3084                           	line	337
  3085                           	
  3086  0AF2                     l1135:	
  3087                           	line	338
  3088                           ;main.c: 335: }
  3089                           ;main.c: 336: }
  3090                           ;main.c: 337: }
  3091                           ;main.c: 338: break;
  3092  0AF2  2BA5               	goto	l9814
  3093                           	line	339
  3094                           ;main.c: 339: case BUTTON_UP:
  3095                           	
  3096  0AF3                     l1157:	
  3097                           	line	340
  3098                           	
  3099  0AF3                     l9770:	
  3100                           ;main.c: 340: if ( mode == LCD_EDIT_MODE ){
  3101  0AF3  1283               	bcf	status, 5	;RP0=0, select bank0
  3102  0AF4  1303               	bcf	status, 6	;RP1=0, select bank0
  3103  0AF5  0867               	movf	(_mode),w
  3104  0AF6  3A06               	xorlw	06h
  3105  0AF7  1D03               	skipz
  3106  0AF8  2AFA               	goto	u6391
  3107  0AF9  2AFB               	goto	u6390
  3108  0AFA                     u6391:
  3109  0AFA  2BA5               	goto	l9814
  3110  0AFB                     u6390:
  3111                           	line	341
  3112                           	
  3113  0AFB                     l9772:	
  3114                           ;main.c: 341: if ( countEnter > 0) {
  3115  0AFB  085A               	movf	(_countEnter),w
  3116  0AFC  1D03               	skipz
  3117  0AFD  2AFF               	goto	u6400
  3118  0AFE  2B24               	goto	l9782
  3119  0AFF                     u6400:
  3120                           	line	342
  3121                           	
  3122  0AFF                     l9774:	
  3123                           ;main.c: 342: if ( value[countEnter] < 9 )
  3124  0AFF  085A               	movf	(_countEnter),w
  3125  0B00  3EDE               	addlw	_value&0ffh
  3126  0B01  0084               	movwf	fsr0
  3127  0B02  3009               	movlw	(09h)
  3128  0B03  1383               	bcf	status, 7	;select IRP bank1
  3129  0B04  0200               	subwf	indf,w
  3130  0B05  1803               	skipnc
  3131  0B06  2B08               	goto	u6411
  3132  0B07  2B09               	goto	u6410
  3133  0B08                     u6411:
  3134  0B08  2B11               	goto	l9778
  3135  0B09                     u6410:
  3136                           	line	343
  3137                           	
  3138  0B09                     l9776:	
  3139                           ;main.c: 343: value[countEnter]++;
  3140  0B09  3001               	movlw	(01h)
  3141  0B0A  00C2               	movwf	(??_main+0)+0
  3142  0B0B  085A               	movf	(_countEnter),w
  3143  0B0C  3EDE               	addlw	_value&0ffh
  3144  0B0D  0084               	movwf	fsr0
  3145  0B0E  0842               	movf	(??_main+0)+0,w
  3146  0B0F  0780               	addwf	indf,f
  3147  0B10  2B16               	goto	l9780
  3148                           	line	344
  3149                           	
  3150  0B11                     l1160:	
  3151                           	line	345
  3152                           	
  3153  0B11                     l9778:	
  3154                           ;main.c: 344: else
  3155                           ;main.c: 345: value[countEnter] = 0;
  3156  0B11  085A               	movf	(_countEnter),w
  3157  0B12  3EDE               	addlw	_value&0ffh
  3158  0B13  0084               	movwf	fsr0
  3159  0B14  0180               	clrf	indf
  3160  0B15  2B16               	goto	l9780
  3161                           	
  3162  0B16                     l1161:	
  3163                           	line	346
  3164                           	
  3165  0B16                     l9780:	
  3166                           ;main.c: 346: LCD_SetEditValue( countEnter, value[countEnter]);
  3167  0B16  085A               	movf	(_countEnter),w
  3168  0B17  3EDE               	addlw	_value&0ffh
  3169  0B18  0084               	movwf	fsr0
  3170  0B19  0800               	movf	indf,w
  3171  0B1A  00C2               	movwf	(??_main+0)+0
  3172  0B1B  0842               	movf	(??_main+0)+0,w
  3173  0B1C  00A6               	movwf	(?_LCD_SetEditValue)
  3174  0B1D  085A               	movf	(_countEnter),w
  3175  0B1E  160A  118A  23D0   	fcall	_LCD_SetEditValue
              120A  158A         
  3176                           	line	347
  3177                           ;main.c: 347: }
  3178  0B23  2BA5               	goto	l9814
  3179                           	line	348
  3180                           	
  3181  0B24                     l1159:	
  3182                           	line	349
  3183                           	
  3184  0B24                     l9782:	
  3185                           ;main.c: 348: else {
  3186                           ;main.c: 349: if ( tempMode > LCD_V_UD_MODE ) {
  3187  0B24  1283               	bcf	status, 5	;RP0=0, select bank0
  3188  0B25  1303               	bcf	status, 6	;RP1=0, select bank0
  3189  0B26  0863               	movf	(_tempMode),w
  3190  0B27  1D03               	skipz
  3191  0B28  2B2A               	goto	u6420
  3192  0B29  2B2D               	goto	l9786
  3193  0B2A                     u6420:
  3194                           	line	350
  3195                           	
  3196  0B2A                     l9784:	
  3197                           ;main.c: 350: tempMode--;
  3198  0B2A  3001               	movlw	low(01h)
  3199  0B2B  02E3               	subwf	(_tempMode),f
  3200                           	line	351
  3201                           ;main.c: 351: }
  3202  0B2C  2B32               	goto	l9788
  3203                           	line	352
  3204                           	
  3205  0B2D                     l1163:	
  3206                           	line	353
  3207                           	
  3208  0B2D                     l9786:	
  3209                           ;main.c: 352: else {
  3210                           ;main.c: 353: tempMode = LCD_TEST_VIEW_MODE;
  3211  0B2D  3004               	movlw	(04h)
  3212  0B2E  00C2               	movwf	(??_main+0)+0
  3213  0B2F  0842               	movf	(??_main+0)+0,w
  3214  0B30  00E3               	movwf	(_tempMode)
  3215  0B31  2B32               	goto	l9788
  3216                           	line	354
  3217                           	
  3218  0B32                     l1164:	
  3219                           	line	355
  3220                           	
  3221  0B32                     l9788:	
  3222                           ;main.c: 354: }
  3223                           ;main.c: 355: LCD_SetEditValue( 0xFF, tempMode);
  3224  0B32  0863               	movf	(_tempMode),w
  3225  0B33  00C2               	movwf	(??_main+0)+0
  3226  0B34  0842               	movf	(??_main+0)+0,w
  3227  0B35  00A6               	movwf	(?_LCD_SetEditValue)
  3228  0B36  30FF               	movlw	(0FFh)
  3229  0B37  160A  118A  23D0   	fcall	_LCD_SetEditValue
              120A  158A         
  3230  0B3C  2BA5               	goto	l9814
  3231                           	line	356
  3232                           	
  3233  0B3D                     l1162:	
  3234  0B3D  2BA5               	goto	l9814
  3235                           	line	358
  3236                           	
  3237  0B3E                     l1158:	
  3238                           	line	359
  3239                           ;main.c: 356: }
  3240                           ;main.c: 358: }
  3241                           ;main.c: 359: break;
  3242  0B3E  2BA5               	goto	l9814
  3243                           	line	360
  3244                           ;main.c: 360: case BUTTON_DOWN:
  3245                           	
  3246  0B3F                     l1165:	
  3247                           	line	361
  3248                           	
  3249  0B3F                     l9790:	
  3250                           ;main.c: 361: if ( mode == LCD_EDIT_MODE ){
  3251  0B3F  1283               	bcf	status, 5	;RP0=0, select bank0
  3252  0B40  1303               	bcf	status, 6	;RP1=0, select bank0
  3253  0B41  0867               	movf	(_mode),w
  3254  0B42  3A06               	xorlw	06h
  3255  0B43  1D03               	skipz
  3256  0B44  2B46               	goto	u6431
  3257  0B45  2B47               	goto	u6430
  3258  0B46                     u6431:
  3259  0B46  2BA5               	goto	l9814
  3260  0B47                     u6430:
  3261                           	line	362
  3262                           	
  3263  0B47                     l9792:	
  3264                           ;main.c: 362: if ( countEnter > 0 ) {
  3265  0B47  085A               	movf	(_countEnter),w
  3266  0B48  1D03               	skipz
  3267  0B49  2B4B               	goto	u6440
  3268  0B4A  2B70               	goto	l9802
  3269  0B4B                     u6440:
  3270                           	line	363
  3271                           	
  3272  0B4B                     l9794:	
  3273                           ;main.c: 363: if ( value[countEnter] > 0 ) {
  3274  0B4B  085A               	movf	(_countEnter),w
  3275  0B4C  3EDE               	addlw	_value&0ffh
  3276  0B4D  0084               	movwf	fsr0
  3277  0B4E  1383               	bcf	status, 7	;select IRP bank1
  3278  0B4F  0880               	movf	indf
  3279  0B50  1903               	skipnz
  3280  0B51  2B53               	goto	u6451
  3281  0B52  2B54               	goto	u6450
  3282  0B53                     u6451:
  3283  0B53  2B5A               	goto	l9798
  3284  0B54                     u6450:
  3285                           	line	364
  3286                           	
  3287  0B54                     l9796:	
  3288                           ;main.c: 364: value[countEnter]--;
  3289  0B54  085A               	movf	(_countEnter),w
  3290  0B55  3EDE               	addlw	_value&0ffh
  3291  0B56  0084               	movwf	fsr0
  3292  0B57  3001               	movlw	low(01h)
  3293  0B58  0280               	subwf	indf,f
  3294                           	line	365
  3295                           ;main.c: 365: }
  3296  0B59  2B62               	goto	l9800
  3297                           	line	366
  3298                           	
  3299  0B5A                     l1168:	
  3300                           	line	367
  3301                           	
  3302  0B5A                     l9798:	
  3303                           ;main.c: 366: else {
  3304                           ;main.c: 367: value[countEnter] = 9;
  3305  0B5A  3009               	movlw	(09h)
  3306  0B5B  00C2               	movwf	(??_main+0)+0
  3307  0B5C  085A               	movf	(_countEnter),w
  3308  0B5D  3EDE               	addlw	_value&0ffh
  3309  0B5E  0084               	movwf	fsr0
  3310  0B5F  0842               	movf	(??_main+0)+0,w
  3311  0B60  0080               	movwf	indf
  3312  0B61  2B62               	goto	l9800
  3313                           	line	368
  3314                           	
  3315  0B62                     l1169:	
  3316                           	line	369
  3317                           	
  3318  0B62                     l9800:	
  3319                           ;main.c: 368: }
  3320                           ;main.c: 369: LCD_SetEditValue( countEnter, value[countEnter]);
  3321  0B62  085A               	movf	(_countEnter),w
  3322  0B63  3EDE               	addlw	_value&0ffh
  3323  0B64  0084               	movwf	fsr0
  3324  0B65  0800               	movf	indf,w
  3325  0B66  00C2               	movwf	(??_main+0)+0
  3326  0B67  0842               	movf	(??_main+0)+0,w
  3327  0B68  00A6               	movwf	(?_LCD_SetEditValue)
  3328  0B69  085A               	movf	(_countEnter),w
  3329  0B6A  160A  118A  23D0   	fcall	_LCD_SetEditValue
              120A  158A         
  3330                           	line	370
  3331                           ;main.c: 370: }
  3332  0B6F  2BA5               	goto	l9814
  3333                           	line	371
  3334                           	
  3335  0B70                     l1167:	
  3336                           	line	372
  3337                           	
  3338  0B70                     l9802:	
  3339                           ;main.c: 371: else {
  3340                           ;main.c: 372: if ( tempMode < LCD_TEST_VIEW_MODE ) {
  3341  0B70  3004               	movlw	(04h)
  3342  0B71  1283               	bcf	status, 5	;RP0=0, select bank0
  3343  0B72  1303               	bcf	status, 6	;RP1=0, select bank0
  3344  0B73  0263               	subwf	(_tempMode),w
  3345  0B74  1803               	skipnc
  3346  0B75  2B77               	goto	u6461
  3347  0B76  2B78               	goto	u6460
  3348  0B77                     u6461:
  3349  0B77  2B7D               	goto	l1171
  3350  0B78                     u6460:
  3351                           	line	373
  3352                           	
  3353  0B78                     l9804:	
  3354                           ;main.c: 373: tempMode++;
  3355  0B78  3001               	movlw	(01h)
  3356  0B79  00C2               	movwf	(??_main+0)+0
  3357  0B7A  0842               	movf	(??_main+0)+0,w
  3358  0B7B  07E3               	addwf	(_tempMode),f
  3359                           	line	374
  3360                           ;main.c: 374: }
  3361  0B7C  2B7F               	goto	l9806
  3362                           	line	375
  3363                           	
  3364  0B7D                     l1171:	
  3365                           	line	376
  3366                           ;main.c: 375: else {
  3367                           ;main.c: 376: tempMode = LCD_V_UD_MODE;
  3368  0B7D  01E3               	clrf	(_tempMode)
  3369  0B7E  2B7F               	goto	l9806
  3370                           	line	377
  3371                           	
  3372  0B7F                     l1172:	
  3373                           	line	378
  3374                           	
  3375  0B7F                     l9806:	
  3376                           ;main.c: 377: }
  3377                           ;main.c: 378: LCD_SetEditValue( 0xFF, tempMode);
  3378  0B7F  0863               	movf	(_tempMode),w
  3379  0B80  00C2               	movwf	(??_main+0)+0
  3380  0B81  0842               	movf	(??_main+0)+0,w
  3381  0B82  00A6               	movwf	(?_LCD_SetEditValue)
  3382  0B83  30FF               	movlw	(0FFh)
  3383  0B84  160A  118A  23D0   	fcall	_LCD_SetEditValue
              120A  158A         
  3384  0B89  2BA5               	goto	l9814
  3385                           	line	379
  3386                           	
  3387  0B8A                     l1170:	
  3388  0B8A  2BA5               	goto	l9814
  3389                           	line	380
  3390                           	
  3391  0B8B                     l1166:	
  3392                           	line	381
  3393                           ;main.c: 379: }
  3394                           ;main.c: 380: }
  3395                           ;main.c: 381: break;
  3396  0B8B  2BA5               	goto	l9814
  3397                           	line	382
  3398                           ;main.c: 382: case BUTTON_AM:
  3399                           	
  3400  0B8C                     l1173:	
  3401                           	line	383
  3402                           ;main.c: 383: if ( PORTAbits.RA0 == 0 ) {
  3403  0B8C  1805               	btfsc	(5),0	;volatile
  3404  0B8D  2B8F               	goto	u6471
  3405  0B8E  2B90               	goto	u6470
  3406  0B8F                     u6471:
  3407  0B8F  2B92               	goto	l1174
  3408  0B90                     u6470:
  3409                           	line	384
  3410                           	
  3411  0B90                     l9808:	
  3412                           ;main.c: 384: PORTAbits.RA0 = 1;;
  3413  0B90  1405               	bsf	(5),0	;volatile
  3414                           	line	385
  3415                           ;main.c: 385: }
  3416  0B91  2BA5               	goto	l9814
  3417                           	line	386
  3418                           	
  3419  0B92                     l1174:	
  3420                           	line	387
  3421                           ;main.c: 386: else {
  3422                           ;main.c: 387: PORTAbits.RA0 = 0;;
  3423  0B92  1005               	bcf	(5),0	;volatile
  3424  0B93  2BA5               	goto	l9814
  3425                           	line	388
  3426                           	
  3427  0B94                     l1175:	
  3428                           	line	389
  3429                           ;main.c: 388: }
  3430                           ;main.c: 389: break;
  3431  0B94  2BA5               	goto	l9814
  3432                           	line	390
  3433                           ;main.c: 390: default:
  3434                           	
  3435  0B95                     l1176:	
  3436                           	line	391
  3437                           ;main.c: 391: break;
  3438  0B95  2BA5               	goto	l9814
  3439                           	line	392
  3440                           	
  3441  0B96                     l9810:	
  3442                           ;main.c: 392: }
  3443  0B96  2BA5               	goto	l9814
  3444                           	line	246
  3445                           	
  3446  0B97                     l1130:	
  3447                           	
  3448  0B97                     l9812:	
  3449  0B97  0858               	movf	(_bt),w
  3450                           	; Switch size 1, requested type "space"
  3451                           ; Number of cases is 4, Range of values is 1 to 4
  3452                           ; switch strategies available:
  3453                           ; Name         Instructions Cycles
  3454                           ; simple_byte           13     7 (average)
  3455                           ; direct_byte           23    11 (fixed)
  3456                           ; jumptable            263     9 (fixed)
  3457                           ;	Chosen strategy is simple_byte
  3458                           
  3459                           	opt asmopt_off
  3460  0B98  3A01               	xorlw	1^0	; case 1
  3461  0B99  1903               	skipnz
  3462  0B9A  2AF3               	goto	l9770
  3463  0B9B  3A03               	xorlw	2^1	; case 2
  3464  0B9C  1903               	skipnz
  3465  0B9D  2B3F               	goto	l9790
  3466  0B9E  3A01               	xorlw	3^2	; case 3
  3467  0B9F  1903               	skipnz
  3468  0BA0  2FFD               	goto	l9658
  3469  0BA1  3A07               	xorlw	4^3	; case 4
  3470  0BA2  1903               	skipnz
  3471  0BA3  2B8C               	goto	l1173
  3472  0BA4  2BA5               	goto	l9814
  3473                           	opt asmopt_on
  3474                           
  3475                           	line	392
  3476                           	
  3477  0BA5                     l1156:	
  3478                           	line	395
  3479                           	
  3480  0BA5                     l9814:	
  3481                           ;main.c: 395: if (LCD_UPDATE_EVENT) {
  3482  0BA5  1283               	bcf	status, 5	;RP0=0, select bank0
  3483  0BA6  1303               	bcf	status, 6	;RP1=0, select bank0
  3484  0BA7  0855               	movf	(_LCD_UPDATE_EVENT),w	;volatile
  3485  0BA8  1D03               	skipz
  3486  0BA9  2BAB               	goto	u6480
  3487  0BAA  2BCC               	goto	l9824
  3488  0BAB                     u6480:
  3489                           	line	396
  3490                           	
  3491  0BAB                     l9816:	
  3492                           ;main.c: 396: LCD_UPDATE_EVENT = 0;
  3493  0BAB  01D5               	clrf	(_LCD_UPDATE_EVENT)	;volatile
  3494                           	line	397
  3495                           	
  3496  0BAC                     l9818:	
  3497                           ;main.c: 397: countLCD_Repaint++;
  3498  0BAC  3001               	movlw	low(01h)
  3499  0BAD  1683               	bsf	status, 5	;RP0=1, select bank1
  3500  0BAE  1303               	bcf	status, 6	;RP1=0, select bank1
  3501  0BAF  07BE               	addwf	(_countLCD_Repaint)^080h,f
  3502  0BB0  1803               	skipnc
  3503  0BB1  0ABF               	incf	(_countLCD_Repaint+1)^080h,f
  3504  0BB2  3000               	movlw	high(01h)
  3505  0BB3  07BF               	addwf	(_countLCD_Repaint+1)^080h,f
  3506                           	line	398
  3507                           ;main.c: 398: if ( countLCD_Repaint == 200 ) {
  3508  0BB4  30C8               	movlw	0C8h
  3509  0BB5  063E               	xorwf	(_countLCD_Repaint)^080h,w
  3510  0BB6  043F               	iorwf	(_countLCD_Repaint+1)^080h,w
  3511  0BB7  1D03               	skipz
  3512  0BB8  2BBA               	goto	u6491
  3513  0BB9  2BBB               	goto	u6490
  3514  0BBA                     u6491:
  3515  0BBA  2BCC               	goto	l9824
  3516  0BBB                     u6490:
  3517                           	line	399
  3518                           	
  3519  0BBB                     l9820:	
  3520                           ;main.c: 399: LCD_Repaint(0);
  3521  0BBB  3000               	movlw	(0)
  3522  0BBC  160A  118A  2533   	fcall	_LCD_Repaint
              120A  158A         
  3523                           	line	400
  3524                           ;main.c: 400: LCD_Update();
  3525  0BC1  120A  118A  24EB   	fcall	_LCD_Update
              120A  158A         
  3526                           	line	401
  3527                           	
  3528  0BC6                     l9822:	
  3529                           ;main.c: 401: countLCD_Repaint = 0;
  3530  0BC6  1683               	bsf	status, 5	;RP0=1, select bank1
  3531  0BC7  1303               	bcf	status, 6	;RP1=0, select bank1
  3532  0BC8  01BE               	clrf	(_countLCD_Repaint)^080h
  3533  0BC9  01BF               	clrf	(_countLCD_Repaint+1)^080h
  3534  0BCA  2BCC               	goto	l9824
  3535                           	line	402
  3536                           	
  3537  0BCB                     l1178:	
  3538  0BCB  2BCC               	goto	l9824
  3539                           	line	403
  3540                           	
  3541  0BCC                     l1177:	
  3542                           	line	405
  3543                           	
  3544  0BCC                     l9824:	
  3545                           ;main.c: 402: }
  3546                           ;main.c: 403: }
  3547                           ;main.c: 405: if (UART_RECEIVE_EVENT) {
  3548  0BCC  1283               	bcf	status, 5	;RP0=0, select bank0
  3549  0BCD  0856               	movf	(_UART_RECEIVE_EVENT),w	;volatile
  3550  0BCE  1D03               	skipz
  3551  0BCF  2BD1               	goto	u6500
  3552  0BD0  2FF6               	goto	l9654
  3553  0BD1                     u6500:
  3554                           	line	406
  3555                           	
  3556  0BD1                     l9826:	
  3557                           ;main.c: 406: UART_RECEIVE_EVENT = 0;
  3558  0BD1  01D6               	clrf	(_UART_RECEIVE_EVENT)	;volatile
  3559                           	line	408
  3560                           	
  3561  0BD2                     l9828:	
  3562                           ;main.c: 408: if ( Data_Input[0] == '*') {
  3563  0BD2  1683               	bsf	status, 5	;RP0=1, select bank1
  3564  0BD3  1303               	bcf	status, 6	;RP1=0, select bank1
  3565  0BD4  0820               	movf	(_Data_Input)^080h,w	;volatile
  3566  0BD5  3A2A               	xorlw	02Ah
  3567  0BD6  1D03               	skipz
  3568  0BD7  2BD9               	goto	u6511
  3569  0BD8  2BDA               	goto	u6510
  3570  0BD9                     u6511:
  3571  0BD9  2C4B               	goto	l9842
  3572  0BDA                     u6510:
  3573                           	line	409
  3574                           	
  3575  0BDA                     l9830:	
  3576                           ;main.c: 409: unIntTemp = ((unsigned int)Data_Input[1] << 8) | Data_Input[2];
  3577  0BDA  0822               	movf	0+(_Data_Input)^080h+02h,w	;volatile
  3578  0BDB  1283               	bcf	status, 5	;RP0=0, select bank0
  3579  0BDC  1303               	bcf	status, 6	;RP1=0, select bank0
  3580  0BDD  00C2               	movwf	(??_main+0)+0
  3581  0BDE  01C3               	clrf	(??_main+0)+0+1
  3582  0BDF  1683               	bsf	status, 5	;RP0=1, select bank1
  3583  0BE0  1303               	bcf	status, 6	;RP1=0, select bank1
  3584  0BE1  0821               	movf	0+(_Data_Input)^080h+01h,w	;volatile
  3585  0BE2  1283               	bcf	status, 5	;RP0=0, select bank0
  3586  0BE3  1303               	bcf	status, 6	;RP1=0, select bank0
  3587  0BE4  00C4               	movwf	(??_main+2)+0
  3588  0BE5  01C5               	clrf	(??_main+2)+0+1
  3589  0BE6  0844               	movf	(??_main+2)+0,w
  3590  0BE7  00C5               	movwf	(??_main+2)+1
  3591  0BE8  01C4               	clrf	(??_main+2)+0
  3592  0BE9  0842               	movf	0+(??_main+0)+0,w
  3593  0BEA  0444               	iorwf	0+(??_main+2)+0,w
  3594  0BEB  00CA               	movwf	(_unIntTemp)
  3595  0BEC  0843               	movf	1+(??_main+0)+0,w
  3596  0BED  0445               	iorwf	1+(??_main+2)+0,w
  3597  0BEE  00CB               	movwf	1+(_unIntTemp)
  3598                           	line	410
  3599                           	
  3600  0BEF                     l9832:	
  3601                           ;main.c: 410: if (unIntTemp <= 999)
  3602  0BEF  3003               	movlw	high(03E8h)
  3603  0BF0  024B               	subwf	(_unIntTemp+1),w
  3604  0BF1  30E8               	movlw	low(03E8h)
  3605  0BF2  1903               	skipnz
  3606  0BF3  024A               	subwf	(_unIntTemp),w
  3607  0BF4  1803               	skipnc
  3608  0BF5  2BF7               	goto	u6521
  3609  0BF6  2BF8               	goto	u6520
  3610  0BF7                     u6521:
  3611  0BF7  2C04               	goto	l9836
  3612  0BF8                     u6520:
  3613                           	line	411
  3614                           	
  3615  0BF8                     l9834:	
  3616                           ;main.c: 411: SetValueTipV( unIntTemp );
  3617  0BF8  084B               	movf	(_unIntTemp+1),w
  3618  0BF9  01A1               	clrf	(?_SetValueTipV+1)
  3619  0BFA  07A1               	addwf	(?_SetValueTipV+1)
  3620  0BFB  084A               	movf	(_unIntTemp),w
  3621  0BFC  01A0               	clrf	(?_SetValueTipV)
  3622  0BFD  07A0               	addwf	(?_SetValueTipV)
  3623                           
  3624  0BFE  160A  118A  20C0   	fcall	_SetValueTipV
              120A  158A         
  3625  0C03  2C04               	goto	l9836
  3626                           	
  3627  0C04                     l1181:	
  3628                           	line	413
  3629                           	
  3630  0C04                     l9836:	
  3631                           ;main.c: 413: unIntTemp = ((unsigned int)Data_Input[4] << 8) | Data_Input[5];
  3632  0C04  1683               	bsf	status, 5	;RP0=1, select bank1
  3633  0C05  1303               	bcf	status, 6	;RP1=0, select bank1
  3634  0C06  0825               	movf	0+(_Data_Input)^080h+05h,w	;volatile
  3635  0C07  1283               	bcf	status, 5	;RP0=0, select bank0
  3636  0C08  1303               	bcf	status, 6	;RP1=0, select bank0
  3637  0C09  00C2               	movwf	(??_main+0)+0
  3638  0C0A  01C3               	clrf	(??_main+0)+0+1
  3639  0C0B  1683               	bsf	status, 5	;RP0=1, select bank1
  3640  0C0C  1303               	bcf	status, 6	;RP1=0, select bank1
  3641  0C0D  0824               	movf	0+(_Data_Input)^080h+04h,w	;volatile
  3642  0C0E  1283               	bcf	status, 5	;RP0=0, select bank0
  3643  0C0F  1303               	bcf	status, 6	;RP1=0, select bank0
  3644  0C10  00C4               	movwf	(??_main+2)+0
  3645  0C11  01C5               	clrf	(??_main+2)+0+1
  3646  0C12  0844               	movf	(??_main+2)+0,w
  3647  0C13  00C5               	movwf	(??_main+2)+1
  3648  0C14  01C4               	clrf	(??_main+2)+0
  3649  0C15  0842               	movf	0+(??_main+0)+0,w
  3650  0C16  0444               	iorwf	0+(??_main+2)+0,w
  3651  0C17  00CA               	movwf	(_unIntTemp)
  3652  0C18  0843               	movf	1+(??_main+0)+0,w
  3653  0C19  0445               	iorwf	1+(??_main+2)+0,w
  3654  0C1A  00CB               	movwf	1+(_unIntTemp)
  3655                           	line	414
  3656                           	
  3657  0C1B                     l9838:	
  3658                           ;main.c: 414: if (unIntTemp <= 999)
  3659  0C1B  3003               	movlw	high(03E8h)
  3660  0C1C  024B               	subwf	(_unIntTemp+1),w
  3661  0C1D  30E8               	movlw	low(03E8h)
  3662  0C1E  1903               	skipnz
  3663  0C1F  024A               	subwf	(_unIntTemp),w
  3664  0C20  1803               	skipnc
  3665  0C21  2C23               	goto	u6531
  3666  0C22  2C24               	goto	u6530
  3667  0C23                     u6531:
  3668  0C23  2C2F               	goto	l1182
  3669  0C24                     u6530:
  3670                           	line	415
  3671                           	
  3672  0C24                     l9840:	
  3673                           ;main.c: 415: SetValueTipI( unIntTemp );
  3674  0C24  084B               	movf	(_unIntTemp+1),w
  3675  0C25  01A1               	clrf	(?_SetValueTipI+1)
  3676  0C26  07A1               	addwf	(?_SetValueTipI+1)
  3677  0C27  084A               	movf	(_unIntTemp),w
  3678  0C28  01A0               	clrf	(?_SetValueTipI)
  3679  0C29  07A0               	addwf	(?_SetValueTipI)
  3680                           
  3681  0C2A  160A  118A  20F9   	fcall	_SetValueTipI
              120A  158A         
  3682                           	
  3683  0C2F                     l1182:	
  3684                           	line	417
  3685                           ;main.c: 417: SetVisible_TOR( Data_Input[3] & 0x80 );
  3686  0C2F  1683               	bsf	status, 5	;RP0=1, select bank1
  3687  0C30  1303               	bcf	status, 6	;RP1=0, select bank1
  3688  0C31  0823               	movf	0+(_Data_Input)^080h+03h,w	;volatile
  3689  0C32  3980               	andlw	080h
  3690  0C33  160A  118A  2119   	fcall	_SetVisible_TOR
              120A  158A         
  3691                           	line	418
  3692                           ;main.c: 418: SetVisible_ARC( Data_Input[3] & 0x40 );
  3693  0C38  1683               	bsf	status, 5	;RP0=1, select bank1
  3694  0C39  1303               	bcf	status, 6	;RP1=0, select bank1
  3695  0C3A  0823               	movf	0+(_Data_Input)^080h+03h,w	;volatile
  3696  0C3B  3940               	andlw	040h
  3697  0C3C  160A  118A  212B   	fcall	_SetVisible_ARC
              120A  158A         
  3698                           	line	419
  3699                           ;main.c: 419: SetArrow( Data_Input[3] & 0x3F );
  3700  0C41  1683               	bsf	status, 5	;RP0=1, select bank1
  3701  0C42  1303               	bcf	status, 6	;RP1=0, select bank1
  3702  0C43  0823               	movf	0+(_Data_Input)^080h+03h,w	;volatile
  3703  0C44  393F               	andlw	03Fh
  3704  0C45  160A  118A  21CE   	fcall	_SetArrow
              120A  158A         
  3705                           	line	420
  3706                           ;main.c: 420: }
  3707  0C4A  2F97               	goto	l9934
  3708                           	line	421
  3709                           	
  3710  0C4B                     l1180:	
  3711                           	line	422
  3712                           	
  3713  0C4B                     l9842:	
  3714                           ;main.c: 421: else
  3715                           ;main.c: 422: if (Data_Input[0] == '>') {
  3716  0C4B  1683               	bsf	status, 5	;RP0=1, select bank1
  3717  0C4C  1303               	bcf	status, 6	;RP1=0, select bank1
  3718  0C4D  0820               	movf	(_Data_Input)^080h,w	;volatile
  3719  0C4E  3A3E               	xorlw	03Eh
  3720  0C4F  1D03               	skipz
  3721  0C50  2C52               	goto	u6541
  3722  0C51  2C53               	goto	u6540
  3723  0C52                     u6541:
  3724  0C52  2F97               	goto	l9934
  3725  0C53                     u6540:
  3726                           	line	423
  3727                           	
  3728  0C53                     l9844:	
  3729                           ;main.c: 423: REQUIRED_TRANSMIT = 0;
  3730  0C53  1683               	bsf	status, 5	;RP0=1, select bank3
  3731  0C54  1703               	bsf	status, 6	;RP1=1, select bank3
  3732  0C55  01A5               	clrf	(main@REQUIRED_TRANSMIT)^0180h
  3733                           	line	425
  3734                           	
  3735  0C56                     l9846:	
  3736                           ;main.c: 425: for ( temp = 1; temp < 8; temp++ ) {
  3737  0C56  01B0               	clrf	(main@temp)^0180h
  3738  0C57  1403               	bsf	status,0
  3739  0C58  0DB0               	rlf	(main@temp)^0180h,f
  3740                           	
  3741  0C59                     l9848:	
  3742  0C59  3008               	movlw	(08h)
  3743  0C5A  0230               	subwf	(main@temp)^0180h,w
  3744  0C5B  1C03               	skipc
  3745  0C5C  2C5E               	goto	u6551
  3746  0C5D  2C5F               	goto	u6550
  3747  0C5E                     u6551:
  3748  0C5E  2C61               	goto	l9852
  3749  0C5F                     u6550:
  3750  0C5F  2C8B               	goto	l9860
  3751                           	
  3752  0C60                     l9850:	
  3753  0C60  2C8B               	goto	l9860
  3754                           	
  3755  0C61                     l1185:	
  3756                           	line	426
  3757                           	
  3758  0C61                     l9852:	
  3759                           ;main.c: 426: if (Data_Input[temp] != Data_Output[temp]) {
  3760  0C61  0830               	movf	(main@temp)^0180h,w
  3761  0C62  3EAF               	addlw	_Data_Output&0ffh
  3762  0C63  0084               	movwf	fsr
  3763  0C64  1383               	bcf	status, 7	;select IRP bank1
  3764  0C65  0800               	movf	indf,w
  3765  0C66  1283               	bcf	status, 5	;RP0=0, select bank0
  3766  0C67  1303               	bcf	status, 6	;RP1=0, select bank0
  3767  0C68  00C2               	movwf	(??_main+0)+0
  3768  0C69  1683               	bsf	status, 5	;RP0=1, select bank3
  3769  0C6A  1703               	bsf	status, 6	;RP1=1, select bank3
  3770  0C6B  0830               	movf	(main@temp)^0180h,w
  3771  0C6C  3EA0               	addlw	_Data_Input&0ffh
  3772  0C6D  0084               	movwf	fsr0
  3773  0C6E  0800               	movf	indf,w
  3774  0C6F  1283               	bcf	status, 5	;RP0=0, select bank0
  3775  0C70  1303               	bcf	status, 6	;RP1=0, select bank0
  3776  0C71  0642               	xorwf	(??_main+0)+0,w
  3777  0C72  1903               	skipnz
  3778  0C73  2C75               	goto	u6561
  3779  0C74  2C76               	goto	u6560
  3780  0C75                     u6561:
  3781  0C75  2C7C               	goto	l9856
  3782  0C76                     u6560:
  3783                           	line	427
  3784                           	
  3785  0C76                     l9854:	
  3786                           ;main.c: 427: REQUIRED_TRANSMIT = 1;
  3787  0C76  1683               	bsf	status, 5	;RP0=1, select bank3
  3788  0C77  1703               	bsf	status, 6	;RP1=1, select bank3
  3789  0C78  01A5               	clrf	(main@REQUIRED_TRANSMIT)^0180h
  3790  0C79  1403               	bsf	status,0
  3791  0C7A  0DA5               	rlf	(main@REQUIRED_TRANSMIT)^0180h,f
  3792                           	line	429
  3793                           ;main.c: 429: break;
  3794  0C7B  2C8B               	goto	l9860
  3795                           	line	430
  3796                           	
  3797  0C7C                     l1187:	
  3798                           	line	425
  3799                           	
  3800  0C7C                     l9856:	
  3801  0C7C  3001               	movlw	(01h)
  3802  0C7D  1283               	bcf	status, 5	;RP0=0, select bank0
  3803  0C7E  1303               	bcf	status, 6	;RP1=0, select bank0
  3804  0C7F  00C2               	movwf	(??_main+0)+0
  3805  0C80  0842               	movf	(??_main+0)+0,w
  3806  0C81  1683               	bsf	status, 5	;RP0=1, select bank3
  3807  0C82  1703               	bsf	status, 6	;RP1=1, select bank3
  3808  0C83  07B0               	addwf	(main@temp)^0180h,f
  3809                           	
  3810  0C84                     l9858:	
  3811  0C84  3008               	movlw	(08h)
  3812  0C85  0230               	subwf	(main@temp)^0180h,w
  3813  0C86  1C03               	skipc
  3814  0C87  2C89               	goto	u6571
  3815  0C88  2C8A               	goto	u6570
  3816  0C89                     u6571:
  3817  0C89  2C61               	goto	l9852
  3818  0C8A                     u6570:
  3819  0C8A  2C8B               	goto	l9860
  3820                           	
  3821  0C8B                     l1186:	
  3822                           	line	433
  3823                           	
  3824  0C8B                     l9860:	
  3825                           ;main.c: 430: }
  3826                           ;main.c: 431: }
  3827                           ;main.c: 433: if ( requiredInit ) {
  3828  0C8B  0829               	movf	(main@requiredInit)^0180h,w
  3829  0C8C  1D03               	skipz
  3830  0C8D  2C8F               	goto	u6580
  3831  0C8E  2F97               	goto	l9934
  3832  0C8F                     u6580:
  3833                           	line	434
  3834                           	
  3835  0C8F                     l9862:	
  3836                           ;main.c: 434: unIntTemp = ((unsigned int)Data_Input[1] << 8) | Data_Input[2];
  3837  0C8F  1683               	bsf	status, 5	;RP0=1, select bank1
  3838  0C90  1303               	bcf	status, 6	;RP1=0, select bank1
  3839  0C91  0822               	movf	0+(_Data_Input)^080h+02h,w	;volatile
  3840  0C92  1283               	bcf	status, 5	;RP0=0, select bank0
  3841  0C93  1303               	bcf	status, 6	;RP1=0, select bank0
  3842  0C94  00C2               	movwf	(??_main+0)+0
  3843  0C95  01C3               	clrf	(??_main+0)+0+1
  3844  0C96  1683               	bsf	status, 5	;RP0=1, select bank1
  3845  0C97  1303               	bcf	status, 6	;RP1=0, select bank1
  3846  0C98  0821               	movf	0+(_Data_Input)^080h+01h,w	;volatile
  3847  0C99  1283               	bcf	status, 5	;RP0=0, select bank0
  3848  0C9A  1303               	bcf	status, 6	;RP1=0, select bank0
  3849  0C9B  00C4               	movwf	(??_main+2)+0
  3850  0C9C  01C5               	clrf	(??_main+2)+0+1
  3851  0C9D  0844               	movf	(??_main+2)+0,w
  3852  0C9E  00C5               	movwf	(??_main+2)+1
  3853  0C9F  01C4               	clrf	(??_main+2)+0
  3854  0CA0  0842               	movf	0+(??_main+0)+0,w
  3855  0CA1  0444               	iorwf	0+(??_main+2)+0,w
  3856  0CA2  00CA               	movwf	(_unIntTemp)
  3857  0CA3  0843               	movf	1+(??_main+0)+0,w
  3858  0CA4  0445               	iorwf	1+(??_main+2)+0,w
  3859  0CA5  00CB               	movwf	1+(_unIntTemp)
  3860                           	line	435
  3861                           	
  3862  0CA6                     l9864:	
  3863                           ;main.c: 435: if ( unIntTemp <= 999 ) {
  3864  0CA6  3003               	movlw	high(03E8h)
  3865  0CA7  024B               	subwf	(_unIntTemp+1),w
  3866  0CA8  30E8               	movlw	low(03E8h)
  3867  0CA9  1903               	skipnz
  3868  0CAA  024A               	subwf	(_unIntTemp),w
  3869  0CAB  1803               	skipnc
  3870  0CAC  2CAE               	goto	u6591
  3871  0CAD  2CAF               	goto	u6590
  3872  0CAE                     u6591:
  3873  0CAE  2D44               	goto	l9878
  3874  0CAF                     u6590:
  3875                           	line	436
  3876                           	
  3877  0CAF                     l9866:	
  3878                           ;main.c: 436: voltage_set_value = unIntTemp;
  3879  0CAF  084B               	movf	(_unIntTemp+1),w
  3880  0CB0  01CD               	clrf	(_voltage_set_value+1)
  3881  0CB1  07CD               	addwf	(_voltage_set_value+1)
  3882  0CB2  084A               	movf	(_unIntTemp),w
  3883  0CB3  01CC               	clrf	(_voltage_set_value)
  3884  0CB4  07CC               	addwf	(_voltage_set_value)
  3885                           
  3886                           	line	437
  3887                           	
  3888  0CB5                     l9868:	
  3889                           ;main.c: 437: SetValueSetV(voltage_set_value);
  3890  0CB5  084D               	movf	(_voltage_set_value+1),w
  3891  0CB6  01A1               	clrf	(?_SetValueSetV+1)
  3892  0CB7  07A1               	addwf	(?_SetValueSetV+1)
  3893  0CB8  084C               	movf	(_voltage_set_value),w
  3894  0CB9  01A0               	clrf	(?_SetValueSetV)
  3895  0CBA  07A0               	addwf	(?_SetValueSetV)
  3896                           
  3897  0CBB  120A  158A  2001   	fcall	_SetValueSetV
              120A  158A         
  3898                           	line	438
  3899                           	
  3900  0CC0                     l9870:	
  3901                           ;main.c: 438: value[1] = voltage_set_value / 100;
  3902  0CC0  3064               	movlw	low(064h)
  3903  0CC1  1283               	bcf	status, 5	;RP0=0, select bank0
  3904  0CC2  1303               	bcf	status, 6	;RP1=0, select bank0
  3905  0CC3  00A6               	movwf	(?___lwdiv)
  3906  0CC4  3000               	movlw	high(064h)
  3907  0CC5  00A7               	movwf	((?___lwdiv))+1
  3908  0CC6  084D               	movf	(_voltage_set_value+1),w
  3909  0CC7  01A9               	clrf	1+(?___lwdiv)+02h
  3910  0CC8  07A9               	addwf	1+(?___lwdiv)+02h
  3911  0CC9  084C               	movf	(_voltage_set_value),w
  3912  0CCA  01A8               	clrf	0+(?___lwdiv)+02h
  3913  0CCB  07A8               	addwf	0+(?___lwdiv)+02h
  3914                           
  3915  0CCC  160A  118A  2318   	fcall	___lwdiv
              120A  158A         
  3916  0CD1  1283               	bcf	status, 5	;RP0=0, select bank0
  3917  0CD2  1303               	bcf	status, 6	;RP1=0, select bank0
  3918  0CD3  0826               	movf	(0+(?___lwdiv)),w
  3919  0CD4  00C2               	movwf	(??_main+0)+0
  3920  0CD5  0842               	movf	(??_main+0)+0,w
  3921  0CD6  1683               	bsf	status, 5	;RP0=1, select bank1
  3922  0CD7  1303               	bcf	status, 6	;RP1=0, select bank1
  3923  0CD8  00DF               	movwf	0+(_value)^080h+01h
  3924                           	line	439
  3925                           	
  3926  0CD9                     l9872:	
  3927                           ;main.c: 439: value[2] = ( voltage_set_value % 100 ) / 10;
  3928  0CD9  300A               	movlw	low(0Ah)
  3929  0CDA  1283               	bcf	status, 5	;RP0=0, select bank0
  3930  0CDB  1303               	bcf	status, 6	;RP1=0, select bank0
  3931  0CDC  00A6               	movwf	(?___lwdiv)
  3932  0CDD  3000               	movlw	high(0Ah)
  3933  0CDE  00A7               	movwf	((?___lwdiv))+1
  3934  0CDF  084D               	movf	(_voltage_set_value+1),w
  3935  0CE0  01A3               	clrf	1+(?___lwmod)+02h
  3936  0CE1  07A3               	addwf	1+(?___lwmod)+02h
  3937  0CE2  084C               	movf	(_voltage_set_value),w
  3938  0CE3  01A2               	clrf	0+(?___lwmod)+02h
  3939  0CE4  07A2               	addwf	0+(?___lwmod)+02h
  3940                           
  3941  0CE5  3064               	movlw	low(064h)
  3942  0CE6  00A0               	movwf	(?___lwmod)
  3943  0CE7  3000               	movlw	high(064h)
  3944  0CE8  00A1               	movwf	((?___lwmod))+1
  3945  0CE9  160A  118A  2282   	fcall	___lwmod
              120A  158A         
  3946  0CEE  1283               	bcf	status, 5	;RP0=0, select bank0
  3947  0CEF  1303               	bcf	status, 6	;RP1=0, select bank0
  3948  0CF0  0821               	movf	(1+(?___lwmod)),w
  3949  0CF1  01A9               	clrf	1+(?___lwdiv)+02h
  3950  0CF2  07A9               	addwf	1+(?___lwdiv)+02h
  3951  0CF3  0820               	movf	(0+(?___lwmod)),w
  3952  0CF4  01A8               	clrf	0+(?___lwdiv)+02h
  3953  0CF5  07A8               	addwf	0+(?___lwdiv)+02h
  3954                           
  3955  0CF6  160A  118A  2318   	fcall	___lwdiv
              120A  158A         
  3956  0CFB  1283               	bcf	status, 5	;RP0=0, select bank0
  3957  0CFC  1303               	bcf	status, 6	;RP1=0, select bank0
  3958  0CFD  0826               	movf	(0+(?___lwdiv)),w
  3959  0CFE  00C2               	movwf	(??_main+0)+0
  3960  0CFF  0842               	movf	(??_main+0)+0,w
  3961  0D00  1683               	bsf	status, 5	;RP0=1, select bank1
  3962  0D01  1303               	bcf	status, 6	;RP1=0, select bank1
  3963  0D02  00E0               	movwf	0+(_value)^080h+02h
  3964                           	line	440
  3965                           	
  3966  0D03                     l9874:	
  3967                           ;main.c: 440: value[3] = ( voltage_set_value % 100 ) % 10;
  3968  0D03  1283               	bcf	status, 5	;RP0=0, select bank0
  3969  0D04  1303               	bcf	status, 6	;RP1=0, select bank0
  3970  0D05  084D               	movf	(_voltage_set_value+1),w
  3971  0D06  01A3               	clrf	1+(?___lwmod)+02h
  3972  0D07  07A3               	addwf	1+(?___lwmod)+02h
  3973  0D08  084C               	movf	(_voltage_set_value),w
  3974  0D09  01A2               	clrf	0+(?___lwmod)+02h
  3975  0D0A  07A2               	addwf	0+(?___lwmod)+02h
  3976                           
  3977  0D0B  3064               	movlw	low(064h)
  3978  0D0C  00A0               	movwf	(?___lwmod)
  3979  0D0D  3000               	movlw	high(064h)
  3980  0D0E  00A1               	movwf	((?___lwmod))+1
  3981  0D0F  160A  118A  2282   	fcall	___lwmod
              120A  158A         
  3982  0D14  1283               	bcf	status, 5	;RP0=0, select bank0
  3983  0D15  1303               	bcf	status, 6	;RP1=0, select bank0
  3984  0D16  0821               	movf	(1+(?___lwmod)),w
  3985  0D17  1683               	bsf	status, 5	;RP0=1, select bank3
  3986  0D18  1703               	bsf	status, 6	;RP1=1, select bank3
  3987  0D19  01A7               	clrf	(_main$6110+1)^0180h
  3988  0D1A  07A7               	addwf	(_main$6110+1)^0180h
  3989  0D1B  1283               	bcf	status, 5	;RP0=0, select bank0
  3990  0D1C  1303               	bcf	status, 6	;RP1=0, select bank0
  3991  0D1D  0820               	movf	(0+(?___lwmod)),w
  3992  0D1E  1683               	bsf	status, 5	;RP0=1, select bank3
  3993  0D1F  1703               	bsf	status, 6	;RP1=1, select bank3
  3994  0D20  01A6               	clrf	(_main$6110)^0180h
  3995  0D21  07A6               	addwf	(_main$6110)^0180h
  3996                           
  3997                           	
  3998  0D22                     l9876:	
  3999                           ;main.c: 440: value[3] = ( voltage_set_value % 100 ) % 10;
  4000  0D22  300A               	movlw	low(0Ah)
  4001  0D23  1283               	bcf	status, 5	;RP0=0, select bank0
  4002  0D24  1303               	bcf	status, 6	;RP1=0, select bank0
  4003  0D25  00A0               	movwf	(?___lwmod)
  4004  0D26  3000               	movlw	high(0Ah)
  4005  0D27  00A1               	movwf	((?___lwmod))+1
  4006  0D28  1683               	bsf	status, 5	;RP0=1, select bank3
  4007  0D29  1703               	bsf	status, 6	;RP1=1, select bank3
  4008  0D2A  0827               	movf	(_main$6110+1)^0180h,w
  4009  0D2B  1283               	bcf	status, 5	;RP0=0, select bank0
  4010  0D2C  1303               	bcf	status, 6	;RP1=0, select bank0
  4011  0D2D  01A3               	clrf	1+(?___lwmod)+02h
  4012  0D2E  07A3               	addwf	1+(?___lwmod)+02h
  4013  0D2F  1683               	bsf	status, 5	;RP0=1, select bank3
  4014  0D30  1703               	bsf	status, 6	;RP1=1, select bank3
  4015  0D31  0826               	movf	(_main$6110)^0180h,w
  4016  0D32  1283               	bcf	status, 5	;RP0=0, select bank0
  4017  0D33  1303               	bcf	status, 6	;RP1=0, select bank0
  4018  0D34  01A2               	clrf	0+(?___lwmod)+02h
  4019  0D35  07A2               	addwf	0+(?___lwmod)+02h
  4020                           
  4021  0D36  160A  118A  2282   	fcall	___lwmod
              120A  158A         
  4022  0D3B  1283               	bcf	status, 5	;RP0=0, select bank0
  4023  0D3C  1303               	bcf	status, 6	;RP1=0, select bank0
  4024  0D3D  0820               	movf	(0+(?___lwmod)),w
  4025  0D3E  00C2               	movwf	(??_main+0)+0
  4026  0D3F  0842               	movf	(??_main+0)+0,w
  4027  0D40  1683               	bsf	status, 5	;RP0=1, select bank1
  4028  0D41  1303               	bcf	status, 6	;RP1=0, select bank1
  4029  0D42  00E1               	movwf	0+(_value)^080h+03h
  4030  0D43  2D44               	goto	l9878
  4031                           	line	441
  4032                           	
  4033  0D44                     l1189:	
  4034                           	line	443
  4035                           	
  4036  0D44                     l9878:	
  4037                           ;main.c: 441: }
  4038                           ;main.c: 443: temp = Data_Input[3] & ~(1<<7);
  4039  0D44  1683               	bsf	status, 5	;RP0=1, select bank1
  4040  0D45  1303               	bcf	status, 6	;RP1=0, select bank1
  4041  0D46  0823               	movf	0+(_Data_Input)^080h+03h,w	;volatile
  4042  0D47  397F               	andlw	07Fh
  4043  0D48  1283               	bcf	status, 5	;RP0=0, select bank0
  4044  0D49  1303               	bcf	status, 6	;RP1=0, select bank0
  4045  0D4A  00C2               	movwf	(??_main+0)+0
  4046  0D4B  0842               	movf	(??_main+0)+0,w
  4047  0D4C  1683               	bsf	status, 5	;RP0=1, select bank3
  4048  0D4D  1703               	bsf	status, 6	;RP1=1, select bank3
  4049  0D4E  00B0               	movwf	(main@temp)^0180h
  4050                           	line	444
  4051                           	
  4052  0D4F                     l9880:	
  4053                           ;main.c: 444: if ( temp <= 99 ) {
  4054  0D4F  3064               	movlw	(064h)
  4055  0D50  0230               	subwf	(main@temp)^0180h,w
  4056  0D51  1803               	skipnc
  4057  0D52  2D54               	goto	u6601
  4058  0D53  2D55               	goto	u6600
  4059  0D54                     u6601:
  4060  0D54  2DB2               	goto	l9892
  4061  0D55                     u6600:
  4062                           	line	445
  4063                           	
  4064  0D55                     l9882:	
  4065                           ;main.c: 445: compareAmpeValue = temp;
  4066  0D55  0830               	movf	(main@temp)^0180h,w
  4067  0D56  1283               	bcf	status, 5	;RP0=0, select bank0
  4068  0D57  1303               	bcf	status, 6	;RP1=0, select bank0
  4069  0D58  00C2               	movwf	(??_main+0)+0
  4070  0D59  0842               	movf	(??_main+0)+0,w
  4071  0D5A  1683               	bsf	status, 5	;RP0=1, select bank3
  4072  0D5B  1703               	bsf	status, 6	;RP1=1, select bank3
  4073  0D5C  00AB               	movwf	(main@compareAmpeValue)^0180h
  4074                           	line	446
  4075                           	
  4076  0D5D                     l9884:	
  4077                           ;main.c: 446: compareMode = Data_Input[3]>>7;
  4078  0D5D  1683               	bsf	status, 5	;RP0=1, select bank1
  4079  0D5E  1303               	bcf	status, 6	;RP1=0, select bank1
  4080  0D5F  0823               	movf	0+(_Data_Input)^080h+03h,w	;volatile
  4081  0D60  1283               	bcf	status, 5	;RP0=0, select bank0
  4082  0D61  1303               	bcf	status, 6	;RP1=0, select bank0
  4083  0D62  00C2               	movwf	(??_main+0)+0
  4084  0D63  3007               	movlw	07h
  4085  0D64                     u6615:
  4086  0D64  1003               	clrc
  4087  0D65  0CC2               	rrf	(??_main+0)+0,f
  4088  0D66  3EFF               	addlw	-1
  4089  0D67  1D03               	skipz
  4090  0D68  2D64               	goto	u6615
  4091  0D69  0842               	movf	0+(??_main+0)+0,w
  4092  0D6A  00C3               	movwf	(??_main+1)+0
  4093  0D6B  0843               	movf	(??_main+1)+0,w
  4094  0D6C  1683               	bsf	status, 5	;RP0=1, select bank3
  4095  0D6D  1703               	bsf	status, 6	;RP1=1, select bank3
  4096  0D6E  00AA               	movwf	(main@compareMode)^0180h
  4097                           	line	447
  4098                           	
  4099  0D6F                     l9886:	
  4100                           ;main.c: 447: LCD_SubMode(compareMode);
  4101  0D6F  082A               	movf	(main@compareMode)^0180h,w
  4102  0D70  160A  118A  213D   	fcall	_LCD_SubMode
              120A  158A         
  4103                           	line	448
  4104                           	
  4105  0D75                     l9888:	
  4106                           ;main.c: 448: value[4] = compareAmpeValue / 10;
  4107  0D75  300A               	movlw	low(0Ah)
  4108  0D76  1283               	bcf	status, 5	;RP0=0, select bank0
  4109  0D77  1303               	bcf	status, 6	;RP1=0, select bank0
  4110  0D78  00A0               	movwf	(?___awdiv)
  4111  0D79  3000               	movlw	high(0Ah)
  4112  0D7A  00A1               	movwf	((?___awdiv))+1
  4113  0D7B  1683               	bsf	status, 5	;RP0=1, select bank3
  4114  0D7C  1703               	bsf	status, 6	;RP1=1, select bank3
  4115  0D7D  082B               	movf	(main@compareAmpeValue)^0180h,w
  4116  0D7E  1283               	bcf	status, 5	;RP0=0, select bank0
  4117  0D7F  1303               	bcf	status, 6	;RP1=0, select bank0
  4118  0D80  00C2               	movwf	(??_main+0)+0
  4119  0D81  01C3               	clrf	(??_main+0)+0+1
  4120  0D82  0842               	movf	0+(??_main+0)+0,w
  4121  0D83  00A2               	movwf	0+(?___awdiv)+02h
  4122  0D84  0843               	movf	1+(??_main+0)+0,w
  4123  0D85  00A3               	movwf	1+(?___awdiv)+02h
  4124  0D86  160A  118A  2442   	fcall	___awdiv
              120A  158A         
  4125  0D8B  1283               	bcf	status, 5	;RP0=0, select bank0
  4126  0D8C  1303               	bcf	status, 6	;RP1=0, select bank0
  4127  0D8D  0820               	movf	(0+(?___awdiv)),w
  4128  0D8E  00C4               	movwf	(??_main+2)+0
  4129  0D8F  0844               	movf	(??_main+2)+0,w
  4130  0D90  1683               	bsf	status, 5	;RP0=1, select bank1
  4131  0D91  1303               	bcf	status, 6	;RP1=0, select bank1
  4132  0D92  00E2               	movwf	0+(_value)^080h+04h
  4133                           	line	449
  4134                           	
  4135  0D93                     l9890:	
  4136                           ;main.c: 449: value[5] = compareAmpeValue % 10;
  4137  0D93  300A               	movlw	low(0Ah)
  4138  0D94  1283               	bcf	status, 5	;RP0=0, select bank0
  4139  0D95  1303               	bcf	status, 6	;RP1=0, select bank0
  4140  0D96  00A0               	movwf	(?___awmod)
  4141  0D97  3000               	movlw	high(0Ah)
  4142  0D98  00A1               	movwf	((?___awmod))+1
  4143  0D99  1683               	bsf	status, 5	;RP0=1, select bank3
  4144  0D9A  1703               	bsf	status, 6	;RP1=1, select bank3
  4145  0D9B  082B               	movf	(main@compareAmpeValue)^0180h,w
  4146  0D9C  1283               	bcf	status, 5	;RP0=0, select bank0
  4147  0D9D  1303               	bcf	status, 6	;RP1=0, select bank0
  4148  0D9E  00C2               	movwf	(??_main+0)+0
  4149  0D9F  01C3               	clrf	(??_main+0)+0+1
  4150  0DA0  0842               	movf	0+(??_main+0)+0,w
  4151  0DA1  00A2               	movwf	0+(?___awmod)+02h
  4152  0DA2  0843               	movf	1+(??_main+0)+0,w
  4153  0DA3  00A3               	movwf	1+(?___awmod)+02h
  4154  0DA4  160A  118A  2368   	fcall	___awmod
              120A  158A         
  4155  0DA9  1283               	bcf	status, 5	;RP0=0, select bank0
  4156  0DAA  1303               	bcf	status, 6	;RP1=0, select bank0
  4157  0DAB  0820               	movf	(0+(?___awmod)),w
  4158  0DAC  00C4               	movwf	(??_main+2)+0
  4159  0DAD  0844               	movf	(??_main+2)+0,w
  4160  0DAE  1683               	bsf	status, 5	;RP0=1, select bank1
  4161  0DAF  1303               	bcf	status, 6	;RP1=0, select bank1
  4162  0DB0  00E3               	movwf	0+(_value)^080h+05h
  4163  0DB1  2DB2               	goto	l9892
  4164                           	line	450
  4165                           	
  4166  0DB2                     l1190:	
  4167                           	line	452
  4168                           	
  4169  0DB2                     l9892:	
  4170                           ;main.c: 450: }
  4171                           ;main.c: 452: unIntTemp = ((unsigned int)Data_Input[4] << 8) | Data_Input[5];
  4172  0DB2  1303               	bcf	status, 6	;RP1=0, select bank1
  4173  0DB3  0825               	movf	0+(_Data_Input)^080h+05h,w	;volatile
  4174  0DB4  1283               	bcf	status, 5	;RP0=0, select bank0
  4175  0DB5  1303               	bcf	status, 6	;RP1=0, select bank0
  4176  0DB6  00C2               	movwf	(??_main+0)+0
  4177  0DB7  01C3               	clrf	(??_main+0)+0+1
  4178  0DB8  1683               	bsf	status, 5	;RP0=1, select bank1
  4179  0DB9  1303               	bcf	status, 6	;RP1=0, select bank1
  4180  0DBA  0824               	movf	0+(_Data_Input)^080h+04h,w	;volatile
  4181  0DBB  1283               	bcf	status, 5	;RP0=0, select bank0
  4182  0DBC  1303               	bcf	status, 6	;RP1=0, select bank0
  4183  0DBD  00C4               	movwf	(??_main+2)+0
  4184  0DBE  01C5               	clrf	(??_main+2)+0+1
  4185  0DBF  0844               	movf	(??_main+2)+0,w
  4186  0DC0  00C5               	movwf	(??_main+2)+1
  4187  0DC1  01C4               	clrf	(??_main+2)+0
  4188  0DC2  0842               	movf	0+(??_main+0)+0,w
  4189  0DC3  0444               	iorwf	0+(??_main+2)+0,w
  4190  0DC4  00CA               	movwf	(_unIntTemp)
  4191  0DC5  0843               	movf	1+(??_main+0)+0,w
  4192  0DC6  0445               	iorwf	1+(??_main+2)+0,w
  4193  0DC7  00CB               	movwf	1+(_unIntTemp)
  4194                           	line	453
  4195                           	
  4196  0DC8                     l9894:	
  4197                           ;main.c: 453: if ( unIntTemp <= 999 ) {
  4198  0DC8  3003               	movlw	high(03E8h)
  4199  0DC9  024B               	subwf	(_unIntTemp+1),w
  4200  0DCA  30E8               	movlw	low(03E8h)
  4201  0DCB  1903               	skipnz
  4202  0DCC  024A               	subwf	(_unIntTemp),w
  4203  0DCD  1803               	skipnc
  4204  0DCE  2DD0               	goto	u6621
  4205  0DCF  2DD1               	goto	u6620
  4206  0DD0                     u6621:
  4207  0DD0  2E77               	goto	l9906
  4208  0DD1                     u6620:
  4209                           	line	454
  4210                           	
  4211  0DD1                     l9896:	
  4212                           ;main.c: 454: maxVol = unIntTemp;
  4213  0DD1  084B               	movf	(_unIntTemp+1),w
  4214  0DD2  1683               	bsf	status, 5	;RP0=1, select bank3
  4215  0DD3  1703               	bsf	status, 6	;RP1=1, select bank3
  4216  0DD4  01AD               	clrf	(main@maxVol+1)^0180h
  4217  0DD5  07AD               	addwf	(main@maxVol+1)^0180h
  4218  0DD6  1283               	bcf	status, 5	;RP0=0, select bank0
  4219  0DD7  1303               	bcf	status, 6	;RP1=0, select bank0
  4220  0DD8  084A               	movf	(_unIntTemp),w
  4221  0DD9  1683               	bsf	status, 5	;RP0=1, select bank3
  4222  0DDA  1703               	bsf	status, 6	;RP1=1, select bank3
  4223  0DDB  01AC               	clrf	(main@maxVol)^0180h
  4224  0DDC  07AC               	addwf	(main@maxVol)^0180h
  4225                           
  4226                           	line	455
  4227                           	
  4228  0DDD                     l9898:	
  4229                           ;main.c: 455: value[6] = maxVol / 100;
  4230  0DDD  3064               	movlw	low(064h)
  4231  0DDE  1283               	bcf	status, 5	;RP0=0, select bank0
  4232  0DDF  1303               	bcf	status, 6	;RP1=0, select bank0
  4233  0DE0  00A6               	movwf	(?___lwdiv)
  4234  0DE1  3000               	movlw	high(064h)
  4235  0DE2  00A7               	movwf	((?___lwdiv))+1
  4236  0DE3  1683               	bsf	status, 5	;RP0=1, select bank3
  4237  0DE4  1703               	bsf	status, 6	;RP1=1, select bank3
  4238  0DE5  082D               	movf	(main@maxVol+1)^0180h,w
  4239  0DE6  1283               	bcf	status, 5	;RP0=0, select bank0
  4240  0DE7  1303               	bcf	status, 6	;RP1=0, select bank0
  4241  0DE8  01A9               	clrf	1+(?___lwdiv)+02h
  4242  0DE9  07A9               	addwf	1+(?___lwdiv)+02h
  4243  0DEA  1683               	bsf	status, 5	;RP0=1, select bank3
  4244  0DEB  1703               	bsf	status, 6	;RP1=1, select bank3
  4245  0DEC  082C               	movf	(main@maxVol)^0180h,w
  4246  0DED  1283               	bcf	status, 5	;RP0=0, select bank0
  4247  0DEE  1303               	bcf	status, 6	;RP1=0, select bank0
  4248  0DEF  01A8               	clrf	0+(?___lwdiv)+02h
  4249  0DF0  07A8               	addwf	0+(?___lwdiv)+02h
  4250                           
  4251  0DF1  160A  118A  2318   	fcall	___lwdiv
              120A  158A         
  4252  0DF6  1283               	bcf	status, 5	;RP0=0, select bank0
  4253  0DF7  1303               	bcf	status, 6	;RP1=0, select bank0
  4254  0DF8  0826               	movf	(0+(?___lwdiv)),w
  4255  0DF9  00C2               	movwf	(??_main+0)+0
  4256  0DFA  0842               	movf	(??_main+0)+0,w
  4257  0DFB  1683               	bsf	status, 5	;RP0=1, select bank1
  4258  0DFC  1303               	bcf	status, 6	;RP1=0, select bank1
  4259  0DFD  00E4               	movwf	0+(_value)^080h+06h
  4260                           	line	456
  4261                           	
  4262  0DFE                     l9900:	
  4263                           ;main.c: 456: value[7] = ( maxVol % 100 ) / 10;
  4264  0DFE  300A               	movlw	low(0Ah)
  4265  0DFF  1283               	bcf	status, 5	;RP0=0, select bank0
  4266  0E00  1303               	bcf	status, 6	;RP1=0, select bank0
  4267  0E01  00A6               	movwf	(?___lwdiv)
  4268  0E02  3000               	movlw	high(0Ah)
  4269  0E03  00A7               	movwf	((?___lwdiv))+1
  4270  0E04  1683               	bsf	status, 5	;RP0=1, select bank3
  4271  0E05  1703               	bsf	status, 6	;RP1=1, select bank3
  4272  0E06  082D               	movf	(main@maxVol+1)^0180h,w
  4273  0E07  1283               	bcf	status, 5	;RP0=0, select bank0
  4274  0E08  1303               	bcf	status, 6	;RP1=0, select bank0
  4275  0E09  01A3               	clrf	1+(?___lwmod)+02h
  4276  0E0A  07A3               	addwf	1+(?___lwmod)+02h
  4277  0E0B  1683               	bsf	status, 5	;RP0=1, select bank3
  4278  0E0C  1703               	bsf	status, 6	;RP1=1, select bank3
  4279  0E0D  082C               	movf	(main@maxVol)^0180h,w
  4280  0E0E  1283               	bcf	status, 5	;RP0=0, select bank0
  4281  0E0F  1303               	bcf	status, 6	;RP1=0, select bank0
  4282  0E10  01A2               	clrf	0+(?___lwmod)+02h
  4283  0E11  07A2               	addwf	0+(?___lwmod)+02h
  4284                           
  4285  0E12  3064               	movlw	low(064h)
  4286  0E13  00A0               	movwf	(?___lwmod)
  4287  0E14  3000               	movlw	high(064h)
  4288  0E15  00A1               	movwf	((?___lwmod))+1
  4289  0E16  160A  118A  2282   	fcall	___lwmod
              120A  158A         
  4290  0E1B  1283               	bcf	status, 5	;RP0=0, select bank0
  4291  0E1C  1303               	bcf	status, 6	;RP1=0, select bank0
  4292  0E1D  0821               	movf	(1+(?___lwmod)),w
  4293  0E1E  01A9               	clrf	1+(?___lwdiv)+02h
  4294  0E1F  07A9               	addwf	1+(?___lwdiv)+02h
  4295  0E20  0820               	movf	(0+(?___lwmod)),w
  4296  0E21  01A8               	clrf	0+(?___lwdiv)+02h
  4297  0E22  07A8               	addwf	0+(?___lwdiv)+02h
  4298                           
  4299  0E23  160A  118A  2318   	fcall	___lwdiv
              120A  158A         
  4300  0E28  1283               	bcf	status, 5	;RP0=0, select bank0
  4301  0E29  1303               	bcf	status, 6	;RP1=0, select bank0
  4302  0E2A  0826               	movf	(0+(?___lwdiv)),w
  4303  0E2B  00C2               	movwf	(??_main+0)+0
  4304  0E2C  0842               	movf	(??_main+0)+0,w
  4305  0E2D  1683               	bsf	status, 5	;RP0=1, select bank1
  4306  0E2E  1303               	bcf	status, 6	;RP1=0, select bank1
  4307  0E2F  00E5               	movwf	0+(_value)^080h+07h
  4308                           	line	457
  4309                           	
  4310  0E30                     l9902:	
  4311                           ;main.c: 457: value[8] = ( maxVol % 100 ) % 10;
  4312  0E30  1683               	bsf	status, 5	;RP0=1, select bank3
  4313  0E31  1703               	bsf	status, 6	;RP1=1, select bank3
  4314  0E32  082D               	movf	(main@maxVol+1)^0180h,w
  4315  0E33  1283               	bcf	status, 5	;RP0=0, select bank0
  4316  0E34  1303               	bcf	status, 6	;RP1=0, select bank0
  4317  0E35  01A3               	clrf	1+(?___lwmod)+02h
  4318  0E36  07A3               	addwf	1+(?___lwmod)+02h
  4319  0E37  1683               	bsf	status, 5	;RP0=1, select bank3
  4320  0E38  1703               	bsf	status, 6	;RP1=1, select bank3
  4321  0E39  082C               	movf	(main@maxVol)^0180h,w
  4322  0E3A  1283               	bcf	status, 5	;RP0=0, select bank0
  4323  0E3B  1303               	bcf	status, 6	;RP1=0, select bank0
  4324  0E3C  01A2               	clrf	0+(?___lwmod)+02h
  4325  0E3D  07A2               	addwf	0+(?___lwmod)+02h
  4326                           
  4327  0E3E  3064               	movlw	low(064h)
  4328  0E3F  00A0               	movwf	(?___lwmod)
  4329  0E40  3000               	movlw	high(064h)
  4330  0E41  00A1               	movwf	((?___lwmod))+1
  4331  0E42  160A  118A  2282   	fcall	___lwmod
              120A  158A         
  4332  0E47  1283               	bcf	status, 5	;RP0=0, select bank0
  4333  0E48  1303               	bcf	status, 6	;RP1=0, select bank0
  4334  0E49  0821               	movf	(1+(?___lwmod)),w
  4335  0E4A  1683               	bsf	status, 5	;RP0=1, select bank3
  4336  0E4B  1703               	bsf	status, 6	;RP1=1, select bank3
  4337  0E4C  01A7               	clrf	(_main$6110+1)^0180h
  4338  0E4D  07A7               	addwf	(_main$6110+1)^0180h
  4339  0E4E  1283               	bcf	status, 5	;RP0=0, select bank0
  4340  0E4F  1303               	bcf	status, 6	;RP1=0, select bank0
  4341  0E50  0820               	movf	(0+(?___lwmod)),w
  4342  0E51  1683               	bsf	status, 5	;RP0=1, select bank3
  4343  0E52  1703               	bsf	status, 6	;RP1=1, select bank3
  4344  0E53  01A6               	clrf	(_main$6110)^0180h
  4345  0E54  07A6               	addwf	(_main$6110)^0180h
  4346                           
  4347                           	
  4348  0E55                     l9904:	
  4349                           ;main.c: 457: value[8] = ( maxVol % 100 ) % 10;
  4350  0E55  300A               	movlw	low(0Ah)
  4351  0E56  1283               	bcf	status, 5	;RP0=0, select bank0
  4352  0E57  1303               	bcf	status, 6	;RP1=0, select bank0
  4353  0E58  00A0               	movwf	(?___lwmod)
  4354  0E59  3000               	movlw	high(0Ah)
  4355  0E5A  00A1               	movwf	((?___lwmod))+1
  4356  0E5B  1683               	bsf	status, 5	;RP0=1, select bank3
  4357  0E5C  1703               	bsf	status, 6	;RP1=1, select bank3
  4358  0E5D  0827               	movf	(_main$6110+1)^0180h,w
  4359  0E5E  1283               	bcf	status, 5	;RP0=0, select bank0
  4360  0E5F  1303               	bcf	status, 6	;RP1=0, select bank0
  4361  0E60  01A3               	clrf	1+(?___lwmod)+02h
  4362  0E61  07A3               	addwf	1+(?___lwmod)+02h
  4363  0E62  1683               	bsf	status, 5	;RP0=1, select bank3
  4364  0E63  1703               	bsf	status, 6	;RP1=1, select bank3
  4365  0E64  0826               	movf	(_main$6110)^0180h,w
  4366  0E65  1283               	bcf	status, 5	;RP0=0, select bank0
  4367  0E66  1303               	bcf	status, 6	;RP1=0, select bank0
  4368  0E67  01A2               	clrf	0+(?___lwmod)+02h
  4369  0E68  07A2               	addwf	0+(?___lwmod)+02h
  4370                           
  4371  0E69  160A  118A  2282   	fcall	___lwmod
              120A  158A         
  4372  0E6E  1283               	bcf	status, 5	;RP0=0, select bank0
  4373  0E6F  1303               	bcf	status, 6	;RP1=0, select bank0
  4374  0E70  0820               	movf	(0+(?___lwmod)),w
  4375  0E71  00C2               	movwf	(??_main+0)+0
  4376  0E72  0842               	movf	(??_main+0)+0,w
  4377  0E73  1683               	bsf	status, 5	;RP0=1, select bank1
  4378  0E74  1303               	bcf	status, 6	;RP1=0, select bank1
  4379  0E75  00E6               	movwf	0+(_value)^080h+08h
  4380  0E76  2E77               	goto	l9906
  4381                           	line	458
  4382                           	
  4383  0E77                     l1191:	
  4384                           	line	460
  4385                           	
  4386  0E77                     l9906:	
  4387                           ;main.c: 458: }
  4388                           ;main.c: 460: unIntTemp = ((unsigned int)Data_Input[6] << 8) | Data_Input[7];
  4389  0E77  1683               	bsf	status, 5	;RP0=1, select bank1
  4390  0E78  1303               	bcf	status, 6	;RP1=0, select bank1
  4391  0E79  0827               	movf	0+(_Data_Input)^080h+07h,w	;volatile
  4392  0E7A  1283               	bcf	status, 5	;RP0=0, select bank0
  4393  0E7B  1303               	bcf	status, 6	;RP1=0, select bank0
  4394  0E7C  00C2               	movwf	(??_main+0)+0
  4395  0E7D  01C3               	clrf	(??_main+0)+0+1
  4396  0E7E  1683               	bsf	status, 5	;RP0=1, select bank1
  4397  0E7F  1303               	bcf	status, 6	;RP1=0, select bank1
  4398  0E80  0826               	movf	0+(_Data_Input)^080h+06h,w	;volatile
  4399  0E81  1283               	bcf	status, 5	;RP0=0, select bank0
  4400  0E82  1303               	bcf	status, 6	;RP1=0, select bank0
  4401  0E83  00C4               	movwf	(??_main+2)+0
  4402  0E84  01C5               	clrf	(??_main+2)+0+1
  4403  0E85  0844               	movf	(??_main+2)+0,w
  4404  0E86  00C5               	movwf	(??_main+2)+1
  4405  0E87  01C4               	clrf	(??_main+2)+0
  4406  0E88  0842               	movf	0+(??_main+0)+0,w
  4407  0E89  0444               	iorwf	0+(??_main+2)+0,w
  4408  0E8A  00CA               	movwf	(_unIntTemp)
  4409  0E8B  0843               	movf	1+(??_main+0)+0,w
  4410  0E8C  0445               	iorwf	1+(??_main+2)+0,w
  4411  0E8D  00CB               	movwf	1+(_unIntTemp)
  4412                           	line	461
  4413                           	
  4414  0E8E                     l9908:	
  4415                           ;main.c: 461: if ( unIntTemp <= 999 ) {
  4416  0E8E  3003               	movlw	high(03E8h)
  4417  0E8F  024B               	subwf	(_unIntTemp+1),w
  4418  0E90  30E8               	movlw	low(03E8h)
  4419  0E91  1903               	skipnz
  4420  0E92  024A               	subwf	(_unIntTemp),w
  4421  0E93  1803               	skipnc
  4422  0E94  2E96               	goto	u6631
  4423  0E95  2E97               	goto	u6630
  4424  0E96                     u6631:
  4425  0E96  2F3D               	goto	l9920
  4426  0E97                     u6630:
  4427                           	line	462
  4428                           	
  4429  0E97                     l9910:	
  4430                           ;main.c: 462: minVol = unIntTemp;
  4431  0E97  084B               	movf	(_unIntTemp+1),w
  4432  0E98  1683               	bsf	status, 5	;RP0=1, select bank3
  4433  0E99  1703               	bsf	status, 6	;RP1=1, select bank3
  4434  0E9A  01AF               	clrf	(main@minVol+1)^0180h
  4435  0E9B  07AF               	addwf	(main@minVol+1)^0180h
  4436  0E9C  1283               	bcf	status, 5	;RP0=0, select bank0
  4437  0E9D  1303               	bcf	status, 6	;RP1=0, select bank0
  4438  0E9E  084A               	movf	(_unIntTemp),w
  4439  0E9F  1683               	bsf	status, 5	;RP0=1, select bank3
  4440  0EA0  1703               	bsf	status, 6	;RP1=1, select bank3
  4441  0EA1  01AE               	clrf	(main@minVol)^0180h
  4442  0EA2  07AE               	addwf	(main@minVol)^0180h
  4443                           
  4444                           	line	463
  4445                           	
  4446  0EA3                     l9912:	
  4447                           ;main.c: 463: value[9] = minVol / 100;
  4448  0EA3  3064               	movlw	low(064h)
  4449  0EA4  1283               	bcf	status, 5	;RP0=0, select bank0
  4450  0EA5  1303               	bcf	status, 6	;RP1=0, select bank0
  4451  0EA6  00A6               	movwf	(?___lwdiv)
  4452  0EA7  3000               	movlw	high(064h)
  4453  0EA8  00A7               	movwf	((?___lwdiv))+1
  4454  0EA9  1683               	bsf	status, 5	;RP0=1, select bank3
  4455  0EAA  1703               	bsf	status, 6	;RP1=1, select bank3
  4456  0EAB  082F               	movf	(main@minVol+1)^0180h,w
  4457  0EAC  1283               	bcf	status, 5	;RP0=0, select bank0
  4458  0EAD  1303               	bcf	status, 6	;RP1=0, select bank0
  4459  0EAE  01A9               	clrf	1+(?___lwdiv)+02h
  4460  0EAF  07A9               	addwf	1+(?___lwdiv)+02h
  4461  0EB0  1683               	bsf	status, 5	;RP0=1, select bank3
  4462  0EB1  1703               	bsf	status, 6	;RP1=1, select bank3
  4463  0EB2  082E               	movf	(main@minVol)^0180h,w
  4464  0EB3  1283               	bcf	status, 5	;RP0=0, select bank0
  4465  0EB4  1303               	bcf	status, 6	;RP1=0, select bank0
  4466  0EB5  01A8               	clrf	0+(?___lwdiv)+02h
  4467  0EB6  07A8               	addwf	0+(?___lwdiv)+02h
  4468                           
  4469  0EB7  160A  118A  2318   	fcall	___lwdiv
              120A  158A         
  4470  0EBC  1283               	bcf	status, 5	;RP0=0, select bank0
  4471  0EBD  1303               	bcf	status, 6	;RP1=0, select bank0
  4472  0EBE  0826               	movf	(0+(?___lwdiv)),w
  4473  0EBF  00C2               	movwf	(??_main+0)+0
  4474  0EC0  0842               	movf	(??_main+0)+0,w
  4475  0EC1  1683               	bsf	status, 5	;RP0=1, select bank1
  4476  0EC2  1303               	bcf	status, 6	;RP1=0, select bank1
  4477  0EC3  00E7               	movwf	0+(_value)^080h+09h
  4478                           	line	464
  4479                           	
  4480  0EC4                     l9914:	
  4481                           ;main.c: 464: value[10] = ( minVol % 100 ) / 10;
  4482  0EC4  300A               	movlw	low(0Ah)
  4483  0EC5  1283               	bcf	status, 5	;RP0=0, select bank0
  4484  0EC6  1303               	bcf	status, 6	;RP1=0, select bank0
  4485  0EC7  00A6               	movwf	(?___lwdiv)
  4486  0EC8  3000               	movlw	high(0Ah)
  4487  0EC9  00A7               	movwf	((?___lwdiv))+1
  4488  0ECA  1683               	bsf	status, 5	;RP0=1, select bank3
  4489  0ECB  1703               	bsf	status, 6	;RP1=1, select bank3
  4490  0ECC  082F               	movf	(main@minVol+1)^0180h,w
  4491  0ECD  1283               	bcf	status, 5	;RP0=0, select bank0
  4492  0ECE  1303               	bcf	status, 6	;RP1=0, select bank0
  4493  0ECF  01A3               	clrf	1+(?___lwmod)+02h
  4494  0ED0  07A3               	addwf	1+(?___lwmod)+02h
  4495  0ED1  1683               	bsf	status, 5	;RP0=1, select bank3
  4496  0ED2  1703               	bsf	status, 6	;RP1=1, select bank3
  4497  0ED3  082E               	movf	(main@minVol)^0180h,w
  4498  0ED4  1283               	bcf	status, 5	;RP0=0, select bank0
  4499  0ED5  1303               	bcf	status, 6	;RP1=0, select bank0
  4500  0ED6  01A2               	clrf	0+(?___lwmod)+02h
  4501  0ED7  07A2               	addwf	0+(?___lwmod)+02h
  4502                           
  4503  0ED8  3064               	movlw	low(064h)
  4504  0ED9  00A0               	movwf	(?___lwmod)
  4505  0EDA  3000               	movlw	high(064h)
  4506  0EDB  00A1               	movwf	((?___lwmod))+1
  4507  0EDC  160A  118A  2282   	fcall	___lwmod
              120A  158A         
  4508  0EE1  1283               	bcf	status, 5	;RP0=0, select bank0
  4509  0EE2  1303               	bcf	status, 6	;RP1=0, select bank0
  4510  0EE3  0821               	movf	(1+(?___lwmod)),w
  4511  0EE4  01A9               	clrf	1+(?___lwdiv)+02h
  4512  0EE5  07A9               	addwf	1+(?___lwdiv)+02h
  4513  0EE6  0820               	movf	(0+(?___lwmod)),w
  4514  0EE7  01A8               	clrf	0+(?___lwdiv)+02h
  4515  0EE8  07A8               	addwf	0+(?___lwdiv)+02h
  4516                           
  4517  0EE9  160A  118A  2318   	fcall	___lwdiv
              120A  158A         
  4518  0EEE  1283               	bcf	status, 5	;RP0=0, select bank0
  4519  0EEF  1303               	bcf	status, 6	;RP1=0, select bank0
  4520  0EF0  0826               	movf	(0+(?___lwdiv)),w
  4521  0EF1  00C2               	movwf	(??_main+0)+0
  4522  0EF2  0842               	movf	(??_main+0)+0,w
  4523  0EF3  1683               	bsf	status, 5	;RP0=1, select bank1
  4524  0EF4  1303               	bcf	status, 6	;RP1=0, select bank1
  4525  0EF5  00E8               	movwf	0+(_value)^080h+0Ah
  4526                           	line	465
  4527                           	
  4528  0EF6                     l9916:	
  4529                           ;main.c: 465: value[11] = ( minVol % 100 ) % 10;
  4530  0EF6  1683               	bsf	status, 5	;RP0=1, select bank3
  4531  0EF7  1703               	bsf	status, 6	;RP1=1, select bank3
  4532  0EF8  082F               	movf	(main@minVol+1)^0180h,w
  4533  0EF9  1283               	bcf	status, 5	;RP0=0, select bank0
  4534  0EFA  1303               	bcf	status, 6	;RP1=0, select bank0
  4535  0EFB  01A3               	clrf	1+(?___lwmod)+02h
  4536  0EFC  07A3               	addwf	1+(?___lwmod)+02h
  4537  0EFD  1683               	bsf	status, 5	;RP0=1, select bank3
  4538  0EFE  1703               	bsf	status, 6	;RP1=1, select bank3
  4539  0EFF  082E               	movf	(main@minVol)^0180h,w
  4540  0F00  1283               	bcf	status, 5	;RP0=0, select bank0
  4541  0F01  1303               	bcf	status, 6	;RP1=0, select bank0
  4542  0F02  01A2               	clrf	0+(?___lwmod)+02h
  4543  0F03  07A2               	addwf	0+(?___lwmod)+02h
  4544                           
  4545  0F04  3064               	movlw	low(064h)
  4546  0F05  00A0               	movwf	(?___lwmod)
  4547  0F06  3000               	movlw	high(064h)
  4548  0F07  00A1               	movwf	((?___lwmod))+1
  4549  0F08  160A  118A  2282   	fcall	___lwmod
              120A  158A         
  4550  0F0D  1283               	bcf	status, 5	;RP0=0, select bank0
  4551  0F0E  1303               	bcf	status, 6	;RP1=0, select bank0
  4552  0F0F  0821               	movf	(1+(?___lwmod)),w
  4553  0F10  1683               	bsf	status, 5	;RP0=1, select bank3
  4554  0F11  1703               	bsf	status, 6	;RP1=1, select bank3
  4555  0F12  01A7               	clrf	(_main$6110+1)^0180h
  4556  0F13  07A7               	addwf	(_main$6110+1)^0180h
  4557  0F14  1283               	bcf	status, 5	;RP0=0, select bank0
  4558  0F15  1303               	bcf	status, 6	;RP1=0, select bank0
  4559  0F16  0820               	movf	(0+(?___lwmod)),w
  4560  0F17  1683               	bsf	status, 5	;RP0=1, select bank3
  4561  0F18  1703               	bsf	status, 6	;RP1=1, select bank3
  4562  0F19  01A6               	clrf	(_main$6110)^0180h
  4563  0F1A  07A6               	addwf	(_main$6110)^0180h
  4564                           
  4565                           	
  4566  0F1B                     l9918:	
  4567                           ;main.c: 465: value[11] = ( minVol % 100 ) % 10;
  4568  0F1B  300A               	movlw	low(0Ah)
  4569  0F1C  1283               	bcf	status, 5	;RP0=0, select bank0
  4570  0F1D  1303               	bcf	status, 6	;RP1=0, select bank0
  4571  0F1E  00A0               	movwf	(?___lwmod)
  4572  0F1F  3000               	movlw	high(0Ah)
  4573  0F20  00A1               	movwf	((?___lwmod))+1
  4574  0F21  1683               	bsf	status, 5	;RP0=1, select bank3
  4575  0F22  1703               	bsf	status, 6	;RP1=1, select bank3
  4576  0F23  0827               	movf	(_main$6110+1)^0180h,w
  4577  0F24  1283               	bcf	status, 5	;RP0=0, select bank0
  4578  0F25  1303               	bcf	status, 6	;RP1=0, select bank0
  4579  0F26  01A3               	clrf	1+(?___lwmod)+02h
  4580  0F27  07A3               	addwf	1+(?___lwmod)+02h
  4581  0F28  1683               	bsf	status, 5	;RP0=1, select bank3
  4582  0F29  1703               	bsf	status, 6	;RP1=1, select bank3
  4583  0F2A  0826               	movf	(_main$6110)^0180h,w
  4584  0F2B  1283               	bcf	status, 5	;RP0=0, select bank0
  4585  0F2C  1303               	bcf	status, 6	;RP1=0, select bank0
  4586  0F2D  01A2               	clrf	0+(?___lwmod)+02h
  4587  0F2E  07A2               	addwf	0+(?___lwmod)+02h
  4588                           
  4589  0F2F  160A  118A  2282   	fcall	___lwmod
              120A  158A         
  4590  0F34  1283               	bcf	status, 5	;RP0=0, select bank0
  4591  0F35  1303               	bcf	status, 6	;RP1=0, select bank0
  4592  0F36  0820               	movf	(0+(?___lwmod)),w
  4593  0F37  00C2               	movwf	(??_main+0)+0
  4594  0F38  0842               	movf	(??_main+0)+0,w
  4595  0F39  1683               	bsf	status, 5	;RP0=1, select bank1
  4596  0F3A  1303               	bcf	status, 6	;RP1=0, select bank1
  4597  0F3B  00E9               	movwf	0+(_value)^080h+0Bh
  4598  0F3C  2F3D               	goto	l9920
  4599                           	line	466
  4600                           	
  4601  0F3D                     l1192:	
  4602                           	line	468
  4603                           	
  4604  0F3D                     l9920:	
  4605                           ;main.c: 466: }
  4606                           ;main.c: 468: Data_Output[1] = (unsigned char)(voltage_set_value >> 8);
  4607  0F3D  1283               	bcf	status, 5	;RP0=0, select bank0
  4608  0F3E  084D               	movf	(_voltage_set_value+1),w
  4609  0F3F  00C2               	movwf	(??_main+0)+0
  4610  0F40  0842               	movf	(??_main+0)+0,w
  4611  0F41  1683               	bsf	status, 5	;RP0=1, select bank1
  4612  0F42  1303               	bcf	status, 6	;RP1=0, select bank1
  4613  0F43  00B0               	movwf	0+(_Data_Output)^080h+01h	;volatile
  4614                           	line	469
  4615                           	
  4616  0F44                     l9922:	
  4617                           ;main.c: 469: Data_Output[2] = (unsigned char)voltage_set_value;
  4618  0F44  1283               	bcf	status, 5	;RP0=0, select bank0
  4619  0F45  1303               	bcf	status, 6	;RP1=0, select bank0
  4620  0F46  084C               	movf	(_voltage_set_value),w
  4621  0F47  00C2               	movwf	(??_main+0)+0
  4622  0F48  0842               	movf	(??_main+0)+0,w
  4623  0F49  1683               	bsf	status, 5	;RP0=1, select bank1
  4624  0F4A  1303               	bcf	status, 6	;RP1=0, select bank1
  4625  0F4B  00B1               	movwf	0+(_Data_Output)^080h+02h	;volatile
  4626                           	line	470
  4627                           	
  4628  0F4C                     l9924:	
  4629                           ;main.c: 470: Data_Output[3] = compareAmpeValue | ( compareMode << 7 );
  4630  0F4C  1683               	bsf	status, 5	;RP0=1, select bank3
  4631  0F4D  1703               	bsf	status, 6	;RP1=1, select bank3
  4632  0F4E  082A               	movf	(main@compareMode)^0180h,w
  4633  0F4F  1283               	bcf	status, 5	;RP0=0, select bank0
  4634  0F50  1303               	bcf	status, 6	;RP1=0, select bank0
  4635  0F51  00C2               	movwf	(??_main+0)+0
  4636  0F52  3006               	movlw	(07h)-1
  4637  0F53                     u6645:
  4638  0F53  1003               	clrc
  4639  0F54  0DC2               	rlf	(??_main+0)+0,f
  4640  0F55  3EFF               	addlw	-1
  4641  0F56  1D03               	skipz
  4642  0F57  2F53               	goto	u6645
  4643  0F58  1003               	clrc
  4644  0F59  0D42               	rlf	(??_main+0)+0,w
  4645  0F5A  1683               	bsf	status, 5	;RP0=1, select bank3
  4646  0F5B  1703               	bsf	status, 6	;RP1=1, select bank3
  4647  0F5C  042B               	iorwf	(main@compareAmpeValue)^0180h,w
  4648  0F5D  1283               	bcf	status, 5	;RP0=0, select bank0
  4649  0F5E  1303               	bcf	status, 6	;RP1=0, select bank0
  4650  0F5F  00C3               	movwf	(??_main+1)+0
  4651  0F60  0843               	movf	(??_main+1)+0,w
  4652  0F61  1683               	bsf	status, 5	;RP0=1, select bank1
  4653  0F62  1303               	bcf	status, 6	;RP1=0, select bank1
  4654  0F63  00B2               	movwf	0+(_Data_Output)^080h+03h	;volatile
  4655                           	line	471
  4656                           	
  4657  0F64                     l9926:	
  4658                           ;main.c: 471: Data_Output[4] = (unsigned char)(maxVol >> 8);
  4659  0F64  1683               	bsf	status, 5	;RP0=1, select bank3
  4660  0F65  1703               	bsf	status, 6	;RP1=1, select bank3
  4661  0F66  082D               	movf	(main@maxVol+1)^0180h,w
  4662  0F67  1283               	bcf	status, 5	;RP0=0, select bank0
  4663  0F68  1303               	bcf	status, 6	;RP1=0, select bank0
  4664  0F69  00C2               	movwf	(??_main+0)+0
  4665  0F6A  0842               	movf	(??_main+0)+0,w
  4666  0F6B  1683               	bsf	status, 5	;RP0=1, select bank1
  4667  0F6C  1303               	bcf	status, 6	;RP1=0, select bank1
  4668  0F6D  00B3               	movwf	0+(_Data_Output)^080h+04h	;volatile
  4669                           	line	472
  4670                           ;main.c: 472: Data_Output[5] = (unsigned char) maxVol;
  4671  0F6E  1683               	bsf	status, 5	;RP0=1, select bank3
  4672  0F6F  1703               	bsf	status, 6	;RP1=1, select bank3
  4673  0F70  082C               	movf	(main@maxVol)^0180h,w
  4674  0F71  1283               	bcf	status, 5	;RP0=0, select bank0
  4675  0F72  1303               	bcf	status, 6	;RP1=0, select bank0
  4676  0F73  00C2               	movwf	(??_main+0)+0
  4677  0F74  0842               	movf	(??_main+0)+0,w
  4678  0F75  1683               	bsf	status, 5	;RP0=1, select bank1
  4679  0F76  1303               	bcf	status, 6	;RP1=0, select bank1
  4680  0F77  00B4               	movwf	0+(_Data_Output)^080h+05h	;volatile
  4681                           	line	473
  4682                           	
  4683  0F78                     l9928:	
  4684                           ;main.c: 473: Data_Output[6] = (unsigned char)(minVol >> 8);
  4685  0F78  1683               	bsf	status, 5	;RP0=1, select bank3
  4686  0F79  1703               	bsf	status, 6	;RP1=1, select bank3
  4687  0F7A  082F               	movf	(main@minVol+1)^0180h,w
  4688  0F7B  1283               	bcf	status, 5	;RP0=0, select bank0
  4689  0F7C  1303               	bcf	status, 6	;RP1=0, select bank0
  4690  0F7D  00C2               	movwf	(??_main+0)+0
  4691  0F7E  0842               	movf	(??_main+0)+0,w
  4692  0F7F  1683               	bsf	status, 5	;RP0=1, select bank1
  4693  0F80  1303               	bcf	status, 6	;RP1=0, select bank1
  4694  0F81  00B5               	movwf	0+(_Data_Output)^080h+06h	;volatile
  4695                           	line	474
  4696                           	
  4697  0F82                     l9930:	
  4698                           ;main.c: 474: Data_Output[7] = (unsigned char) minVol;
  4699  0F82  1683               	bsf	status, 5	;RP0=1, select bank3
  4700  0F83  1703               	bsf	status, 6	;RP1=1, select bank3
  4701  0F84  082E               	movf	(main@minVol)^0180h,w
  4702  0F85  1283               	bcf	status, 5	;RP0=0, select bank0
  4703  0F86  1303               	bcf	status, 6	;RP1=0, select bank0
  4704  0F87  00C2               	movwf	(??_main+0)+0
  4705  0F88  0842               	movf	(??_main+0)+0,w
  4706  0F89  1683               	bsf	status, 5	;RP0=1, select bank1
  4707  0F8A  1303               	bcf	status, 6	;RP1=0, select bank1
  4708  0F8B  00B6               	movwf	0+(_Data_Output)^080h+07h	;volatile
  4709                           	line	475
  4710                           	
  4711  0F8C                     l9932:	
  4712                           ;main.c: 475: requiredInit++;
  4713  0F8C  3001               	movlw	(01h)
  4714  0F8D  1283               	bcf	status, 5	;RP0=0, select bank0
  4715  0F8E  1303               	bcf	status, 6	;RP1=0, select bank0
  4716  0F8F  00C2               	movwf	(??_main+0)+0
  4717  0F90  0842               	movf	(??_main+0)+0,w
  4718  0F91  1683               	bsf	status, 5	;RP0=1, select bank3
  4719  0F92  1703               	bsf	status, 6	;RP1=1, select bank3
  4720  0F93  07A9               	addwf	(main@requiredInit)^0180h,f
  4721  0F94  2F97               	goto	l9934
  4722                           	line	476
  4723                           	
  4724  0F95                     l1188:	
  4725  0F95  2F97               	goto	l9934
  4726                           	line	477
  4727                           	
  4728  0F96                     l1184:	
  4729  0F96  2F97               	goto	l9934
  4730                           	line	479
  4731                           	
  4732  0F97                     l1183:	
  4733                           	
  4734  0F97                     l9934:	
  4735                           ;main.c: 476: }
  4736                           ;main.c: 477: }
  4737                           ;main.c: 479: if ( requiredInit == 3 ) {
  4738  0F97  1683               	bsf	status, 5	;RP0=1, select bank3
  4739  0F98  1703               	bsf	status, 6	;RP1=1, select bank3
  4740  0F99  0829               	movf	(main@requiredInit)^0180h,w
  4741  0F9A  3A03               	xorlw	03h
  4742  0F9B  1D03               	skipz
  4743  0F9C  2F9E               	goto	u6651
  4744  0F9D  2F9F               	goto	u6650
  4745  0F9E                     u6651:
  4746  0F9E  2FB5               	goto	l9944
  4747  0F9F                     u6650:
  4748                           	line	480
  4749                           	
  4750  0F9F                     l9936:	
  4751                           ;main.c: 480: LCD_SubMode(compareMode);
  4752  0F9F  082A               	movf	(main@compareMode)^0180h,w
  4753  0FA0  160A  118A  213D   	fcall	_LCD_SubMode
              120A  158A         
  4754                           	line	481
  4755                           	
  4756  0FA5                     l9938:	
  4757                           ;main.c: 481: LCD_SetMode( LCD_RUN_MODE );
  4758  0FA5  3003               	movlw	(03h)
  4759  0FA6  120A  118A  22E2   	fcall	_LCD_SetMode
              120A  158A         
  4760                           	line	482
  4761                           	
  4762  0FAB                     l9940:	
  4763                           ;main.c: 482: mode = LCD_RUN_MODE;
  4764  0FAB  3003               	movlw	(03h)
  4765  0FAC  1283               	bcf	status, 5	;RP0=0, select bank0
  4766  0FAD  1303               	bcf	status, 6	;RP1=0, select bank0
  4767  0FAE  00C2               	movwf	(??_main+0)+0
  4768  0FAF  0842               	movf	(??_main+0)+0,w
  4769  0FB0  00E7               	movwf	(_mode)
  4770                           	line	483
  4771                           	
  4772  0FB1                     l9942:	
  4773                           ;main.c: 483: requiredInit = 0;
  4774  0FB1  1683               	bsf	status, 5	;RP0=1, select bank3
  4775  0FB2  1703               	bsf	status, 6	;RP1=1, select bank3
  4776  0FB3  01A9               	clrf	(main@requiredInit)^0180h
  4777  0FB4  2FB5               	goto	l9944
  4778                           	line	484
  4779                           	
  4780  0FB5                     l1193:	
  4781                           	line	485
  4782                           	
  4783  0FB5                     l9944:	
  4784                           # 485 "C:\Users\Studio-Master\Desktop\Work\THC\27.05_DTHC\DisplayDTHC\main.c"
  4785  0FB5  0064               clrwdt ;#
  4786                           psect	maintext
  4787                           	line	486
  4788                           	
  4789  0FB6                     l9946:	
  4790                           ;main.c: 486: if ( REQUIRED_TRANSMIT || requiredInit || FLAG_VALUE_CHANGED ) {
  4791  0FB6  1683               	bsf	status, 5	;RP0=1, select bank3
  4792  0FB7  1703               	bsf	status, 6	;RP1=1, select bank3
  4793  0FB8  08A5               	movf	(main@REQUIRED_TRANSMIT)^0180h,f
  4794  0FB9  1D03               	skipz
  4795  0FBA  2FBC               	goto	u6661
  4796  0FBB  2FBD               	goto	u6660
  4797  0FBC                     u6661:
  4798  0FBC  2FC8               	goto	l1196
  4799  0FBD                     u6660:
  4800                           	
  4801  0FBD                     l9948:	
  4802  0FBD  08A9               	movf	(main@requiredInit)^0180h,f
  4803  0FBE  1D03               	skipz
  4804  0FBF  2FC1               	goto	u6671
  4805  0FC0  2FC2               	goto	u6670
  4806  0FC1                     u6671:
  4807  0FC1  2FC8               	goto	l1196
  4808  0FC2                     u6670:
  4809                           	
  4810  0FC2                     l9950:	
  4811  0FC2  1283               	bcf	status, 5	;RP0=0, select bank0
  4812  0FC3  1303               	bcf	status, 6	;RP1=0, select bank0
  4813  0FC4  0853               	movf	(_FLAG_VALUE_CHANGED),w	;volatile
  4814  0FC5  1D03               	skipz
  4815  0FC6  2FC8               	goto	u6680
  4816  0FC7  2FF0               	goto	l9962
  4817  0FC8                     u6680:
  4818                           	
  4819  0FC8                     l1196:	
  4820                           	line	487
  4821                           ;main.c: 487: for ( count = 0; count < 9; count++ )
  4822  0FC8  1683               	bsf	status, 5	;RP0=1, select bank3
  4823  0FC9  1703               	bsf	status, 6	;RP1=1, select bank3
  4824  0FCA  01A8               	clrf	(main@count)^0180h
  4825                           	
  4826  0FCB                     l9952:	
  4827  0FCB  3009               	movlw	(09h)
  4828  0FCC  0228               	subwf	(main@count)^0180h,w
  4829  0FCD  1C03               	skipc
  4830  0FCE  2FD0               	goto	u6691
  4831  0FCF  2FD1               	goto	u6690
  4832  0FD0                     u6691:
  4833  0FD0  2FD3               	goto	l9956
  4834  0FD1                     u6690:
  4835  0FD1  2FEB               	goto	l1198
  4836                           	
  4837  0FD2                     l9954:	
  4838  0FD2  2FEB               	goto	l1198
  4839                           	line	488
  4840                           	
  4841  0FD3                     l1197:	
  4842                           	
  4843  0FD3                     l9956:	
  4844                           ;main.c: 488: putch(Data_Output[count]);
  4845  0FD3  0828               	movf	(main@count)^0180h,w
  4846  0FD4  3EAF               	addlw	_Data_Output&0ffh
  4847  0FD5  0084               	movwf	fsr0
  4848  0FD6  1383               	bcf	status, 7	;select IRP bank1
  4849  0FD7  0800               	movf	indf,w
  4850  0FD8  160A  118A  20C9   	fcall	_putch
              120A  158A         
  4851                           	line	487
  4852                           	
  4853  0FDD                     l9958:	
  4854  0FDD  3001               	movlw	(01h)
  4855  0FDE  1283               	bcf	status, 5	;RP0=0, select bank0
  4856  0FDF  1303               	bcf	status, 6	;RP1=0, select bank0
  4857  0FE0  00C2               	movwf	(??_main+0)+0
  4858  0FE1  0842               	movf	(??_main+0)+0,w
  4859  0FE2  1683               	bsf	status, 5	;RP0=1, select bank3
  4860  0FE3  1703               	bsf	status, 6	;RP1=1, select bank3
  4861  0FE4  07A8               	addwf	(main@count)^0180h,f
  4862                           	
  4863  0FE5                     l9960:	
  4864  0FE5  3009               	movlw	(09h)
  4865  0FE6  0228               	subwf	(main@count)^0180h,w
  4866  0FE7  1C03               	skipc
  4867  0FE8  2FEA               	goto	u6701
  4868  0FE9  2FEB               	goto	u6700
  4869  0FEA                     u6701:
  4870  0FEA  2FD3               	goto	l9956
  4871  0FEB                     u6700:
  4872                           	
  4873  0FEB                     l1198:	
  4874                           	line	489
  4875                           ;main.c: 489: REQUIRED_TRANSMIT = 0;
  4876  0FEB  01A5               	clrf	(main@REQUIRED_TRANSMIT)^0180h
  4877                           	line	490
  4878                           ;main.c: 490: FLAG_VALUE_CHANGED = 0;
  4879  0FEC  1283               	bcf	status, 5	;RP0=0, select bank0
  4880  0FED  1303               	bcf	status, 6	;RP1=0, select bank0
  4881  0FEE  01D3               	clrf	(_FLAG_VALUE_CHANGED)	;volatile
  4882  0FEF  2FF0               	goto	l9962
  4883                           	line	491
  4884                           	
  4885  0FF0                     l1194:	
  4886                           	line	492
  4887                           	
  4888  0FF0                     l9962:	
  4889                           ;main.c: 491: }
  4890                           ;main.c: 492: LCD_Update();
  4891  0FF0  120A  118A  24EB   	fcall	_LCD_Update
              120A  158A         
  4892  0FF5  2FF6               	goto	l9654
  4893                           	line	493
  4894                           	
  4895  0FF6                     l1179:	
  4896  0FF6  120A  118A  2ED5   	goto	l9654
  4897                           	line	494
  4898                           	
  4899  0FF9                     l1199:	
  4900                           	line	242
  4901  0FF9  2FF6               	goto	l9654
  4902                           	
  4903  0FFA                     l1200:	
  4904                           	line	495
  4905                           	
  4906  0FFA                     l1201:	
  4907                           	global	start
  4908  0FFA  120A  118A  2812   	ljmp	start
      + 0FFD                     L1:	
  4909                           	opt stack 0
  4910                           GLOBAL	__end_of_main
  4911  1007                     	__end_of_main:
  4912 ;; =============== function _main ends ============
  4913                           
  4914                           	signat	_main,88
  4915                           	global	_LCD_Repaint
  4916                           psect	text1164,local,class=CODE,delta=2
  4917                           global __ptext1164
  4918  1533                     __ptext1164:
  4919                           
  4920 ;; *************** function _LCD_Repaint *****************
  4921 ;; Defined at:
  4922 ;;		line 114 in file "C:\Users\Studio-Master\Desktop\Work\THC\27.05_DTHC\DisplayDTHC\dthc_lcd_controller.c"
  4923 ;; Parameters:    Size  Location     Type
  4924 ;;  cmd             1    wreg     unsigned char 
  4925 ;; Auto vars:     Size  Location     Type
  4926 ;;  cmd             1   33[BANK0 ] unsigned char 
  4927 ;; Return value:  Size  Location     Type
  4928 ;;		None               void
  4929 ;; Registers used:
  4930 ;;		wreg, fsr0l, fsr0h, status,2, status,0, btemp+1, pclath, cstack
  4931 ;; Tracked objects:
  4932 ;;		On entry : 0/0
  4933 ;;		On exit  : 0/0
  4934 ;;		Unchanged: 0/0
  4935 ;; Data sizes:     COMMON   BANK0   BANK1   BANK3   BANK2
  4936 ;;      Params:         0       0       0       0       0
  4937 ;;      Locals:         0       1       0       0       0
  4938 ;;      Temps:          0       1       0       0       0
  4939 ;;      Totals:         0       2       0       0       0
  4940 ;;Total ram usage:        2 bytes
  4941 ;; Hardware stack levels used:    1
  4942 ;; Hardware stack levels required when called:    5
  4943 ;; This function calls:
  4944 ;;		_Clear_LCD
  4945 ;;		_SetCursor
  4946 ;;		_strcpy
  4947 ;;		_print_LCD
  4948 ;;		_WriteDataLCD
  4949 ;;		_Enable_Blink_LCD
  4950 ;;		_sprintf
  4951 ;; This function is called by:
  4952 ;;		_main
  4953 ;; This function uses a non-reentrant model
  4954 ;;
  4955                           psect	text1164
  4956                           	file	"C:\Users\Studio-Master\Desktop\Work\THC\27.05_DTHC\DisplayDTHC\dthc_lcd_controlle
                                 r.c"
  4957                           	line	114
  4958                           	global	__size_of_LCD_Repaint
  4959  0083                     	__size_of_LCD_Repaint	equ	__end_of_LCD_Repaint-_LCD_Repaint
  4960                           	
  4961  1533                     _LCD_Repaint:	
  4962                           	opt	stack 2
  4963                           ; Regs used in _LCD_Repaint: [wreg-fsr0h+status,2+status,0+btemp+1+pclath+cstack]
  4964                           ;LCD_Repaint@cmd stored from wreg
  4965  1533  1283               	bcf	status, 5	;RP0=0, select bank0
  4966  1534  1303               	bcf	status, 6	;RP1=0, select bank0
  4967  1535  00C1               	movwf	(LCD_Repaint@cmd)
  4968                           	line	115
  4969                           	
  4970  1536                     l9546:	
  4971                           ;dthc_lcd_controller.c: 115: if ( cmd == 0 && LCD_Status == LCD_RUN_MODE ) {
  4972  1536  08C1               	movf	(LCD_Repaint@cmd),f
  4973  1537  1D03               	skipz
  4974  1538  2D3A               	goto	u6201
  4975  1539  2D3B               	goto	u6200
  4976  153A                     u6201:
  4977  153A  2DB5               	goto	l3415
  4978  153B                     u6200:
  4979                           	
  4980  153B                     l9548:	
  4981  153B  0864               	movf	(dthc_lcd_controller@LCD_Status),w	;volatile
  4982  153C  3A03               	xorlw	03h
  4983  153D  1D03               	skipz
  4984  153E  2D40               	goto	u6211
  4985  153F  2D41               	goto	u6210
  4986  1540                     u6211:
  4987  1540  2DB5               	goto	l3415
  4988  1541                     u6210:
  4989                           	line	116
  4990                           	
  4991  1541                     l9550:	
  4992                           ;dthc_lcd_controller.c: 116: Clear_LCD();
  4993  1541  160A  118A  20ED   	fcall	_Clear_LCD
              160A  118A         
  4994                           	line	117
  4995                           ;dthc_lcd_controller.c: 117: SetCursor( 0x00);
  4996  1546  3000               	movlw	(0)
  4997  1547  160A  118A  265A   	fcall	_SetCursor
              160A  118A         
  4998                           	line	118
  4999                           	
  5000  154C                     l9552:	
  5001                           ;dthc_lcd_controller.c: 118: strcpy( lcd_buf, MainScreen1);
  5002  154C  3039               	movlw	((_MainScreen1-__stringbase))&0ffh
  5003  154D  1283               	bcf	status, 5	;RP0=0, select bank0
  5004  154E  1303               	bcf	status, 6	;RP1=0, select bank0
  5005  154F  00C0               	movwf	(??_LCD_Repaint+0)+0
  5006  1550  0840               	movf	(??_LCD_Repaint+0)+0,w
  5007  1551  00A0               	movwf	(?_strcpy)
  5008  1552  30CE               	movlw	(_lcd_buf)&0ffh
  5009  1553  160A  118A  21AC   	fcall	_strcpy
              160A  118A         
  5010                           	line	119
  5011                           	
  5012  1558                     l9554:	
  5013                           ;dthc_lcd_controller.c: 119: print_LCD();
  5014  1558  120A  118A  27DF   	fcall	_print_LCD
              160A  118A         
  5015                           	line	120
  5016                           	
  5017  155D                     l9556:	
  5018                           ;dthc_lcd_controller.c: 120: if (nameMode != 0) {
  5019  155D  1283               	bcf	status, 5	;RP0=0, select bank0
  5020  155E  1303               	bcf	status, 6	;RP1=0, select bank0
  5021  155F  0866               	movf	(dthc_lcd_controller@nameMode),w
  5022  1560  1D03               	skipz
  5023  1561  2D63               	goto	u6220
  5024  1562  2D77               	goto	l3412
  5025  1563                     u6220:
  5026                           	line	121
  5027                           	
  5028  1563                     l9558:	
  5029                           ;dthc_lcd_controller.c: 121: SetCursor(0x0B);
  5030  1563  300B               	movlw	(0Bh)
  5031  1564  160A  118A  265A   	fcall	_SetCursor
              160A  118A         
  5032                           	line	122
  5033                           ;dthc_lcd_controller.c: 122: WriteDataLCD(nameMode);
  5034  1569  1283               	bcf	status, 5	;RP0=0, select bank0
  5035  156A  1303               	bcf	status, 6	;RP1=0, select bank0
  5036  156B  0866               	movf	(dthc_lcd_controller@nameMode),w
  5037  156C  120A  118A  2703   	fcall	_WriteDataLCD
              160A  118A         
  5038                           	line	123
  5039                           ;dthc_lcd_controller.c: 123: SetCursor(0x0B);
  5040  1571  300B               	movlw	(0Bh)
  5041  1572  160A  118A  265A   	fcall	_SetCursor
              160A  118A         
  5042                           	line	124
  5043                           	
  5044  1577                     l3412:	
  5045                           	line	125
  5046                           ;dthc_lcd_controller.c: 124: }
  5047                           ;dthc_lcd_controller.c: 125: SetCursor( 0x40);
  5048  1577  3040               	movlw	(040h)
  5049  1578  160A  118A  265A   	fcall	_SetCursor
              160A  118A         
  5050                           	line	126
  5051                           	
  5052  157D                     l9560:	
  5053                           ;dthc_lcd_controller.c: 126: strcpy( lcd_buf, MainScreen2);
  5054  157D  303F               	movlw	((_MainScreen2-__stringbase))&0ffh
  5055  157E  1283               	bcf	status, 5	;RP0=0, select bank0
  5056  157F  1303               	bcf	status, 6	;RP1=0, select bank0
  5057  1580  00C0               	movwf	(??_LCD_Repaint+0)+0
  5058  1581  0840               	movf	(??_LCD_Repaint+0)+0,w
  5059  1582  00A0               	movwf	(?_strcpy)
  5060  1583  30CE               	movlw	(_lcd_buf)&0ffh
  5061  1584  160A  118A  21AC   	fcall	_strcpy
              160A  118A         
  5062                           	line	127
  5063                           	
  5064  1589                     l9562:	
  5065                           ;dthc_lcd_controller.c: 127: print_LCD();
  5066  1589  120A  118A  27DF   	fcall	_print_LCD
              160A  118A         
  5067                           	line	128
  5068                           ;dthc_lcd_controller.c: 128: Enable_Blink_LCD(1);
  5069  158E  3001               	movlw	(01h)
  5070  158F  160A  118A  2192   	fcall	_Enable_Blink_LCD
              160A  118A         
  5071                           	line	129
  5072                           ;dthc_lcd_controller.c: 129: SetCursor( 0x46 );
  5073  1594  3046               	movlw	(046h)
  5074  1595  160A  118A  265A   	fcall	_SetCursor
              160A  118A         
  5075                           	line	130
  5076                           	
  5077  159A                     l9564:	
  5078                           ;dthc_lcd_controller.c: 130: sprintf(lcd_buf, "%3u", valueSetV);
  5079  159A  30B4               	movlw	((STR_10-__stringbase))&0ffh
  5080  159B  1283               	bcf	status, 5	;RP0=0, select bank0
  5081  159C  1303               	bcf	status, 6	;RP1=0, select bank0
  5082  159D  00C0               	movwf	(??_LCD_Repaint+0)+0
  5083  159E  0840               	movf	(??_LCD_Repaint+0)+0,w
  5084  159F  00AE               	movwf	(?_sprintf)
  5085  15A0  084F               	movf	(dthc_lcd_controller@valueSetV+1),w	;volatile
  5086  15A1  01B0               	clrf	1+(?_sprintf)+01h
  5087  15A2  07B0               	addwf	1+(?_sprintf)+01h
  5088  15A3  084E               	movf	(dthc_lcd_controller@valueSetV),w	;volatile
  5089  15A4  01AF               	clrf	0+(?_sprintf)+01h
  5090  15A5  07AF               	addwf	0+(?_sprintf)+01h
  5091                           
  5092  15A6  30CE               	movlw	(_lcd_buf)&0ffh
  5093  15A7  120A  118A  20D2   	fcall	_sprintf
              160A  118A         
  5094                           	line	131
  5095                           	
  5096  15AC                     l9566:	
  5097                           ;dthc_lcd_controller.c: 131: print_LCD();
  5098  15AC  120A  118A  27DF   	fcall	_print_LCD
              160A  118A         
  5099                           	line	132
  5100                           ;dthc_lcd_controller.c: 132: }
  5101  15B1  2DB5               	goto	l3415
  5102                           	line	133
  5103                           	
  5104  15B2                     l3411:	
  5105  15B2  2DB5               	goto	l3415
  5106                           	line	134
  5107                           	
  5108  15B3                     l9568:	
  5109  15B3  2DB5               	goto	l3415
  5110                           	line	136
  5111                           	
  5112  15B4                     l3414:	
  5113  15B4  2DB5               	goto	l3415
  5114                           	line	137
  5115                           	
  5116  15B5                     l3413:	
  5117                           	
  5118  15B5                     l3415:	
  5119  15B5  0008               	return
  5120                           	opt stack 0
  5121                           GLOBAL	__end_of_LCD_Repaint
  5122  15B6                     	__end_of_LCD_Repaint:
  5123 ;; =============== function _LCD_Repaint ends ============
  5124                           
  5125                           	signat	_LCD_Repaint,4216
  5126                           	global	_LCD_SetEditValue
  5127                           psect	text1165,local,class=CODE,delta=2
  5128                           global __ptext1165
  5129  13D0                     __ptext1165:
  5130                           
  5131 ;; *************** function _LCD_SetEditValue *****************
  5132 ;; Defined at:
  5133 ;;		line 279 in file "C:\Users\Studio-Master\Desktop\Work\THC\27.05_DTHC\DisplayDTHC\dthc_lcd_controller.c"
  5134 ;; Parameters:    Size  Location     Type
  5135 ;;  pos             1    wreg     unsigned char 
  5136 ;;  value           1    6[BANK0 ] unsigned char 
  5137 ;; Auto vars:     Size  Location     Type
  5138 ;;  pos             1    8[BANK0 ] unsigned char 
  5139 ;; Return value:  Size  Location     Type
  5140 ;;		None               void
  5141 ;; Registers used:
  5142 ;;		wreg, fsr0l, fsr0h, status,2, status,0, pclath, cstack
  5143 ;; Tracked objects:
  5144 ;;		On entry : 0/0
  5145 ;;		On exit  : 0/0
  5146 ;;		Unchanged: 0/0
  5147 ;; Data sizes:     COMMON   BANK0   BANK1   BANK3   BANK2
  5148 ;;      Params:         0       1       0       0       0
  5149 ;;      Locals:         0       1       0       0       0
  5150 ;;      Temps:          0       1       0       0       0
  5151 ;;      Totals:         0       3       0       0       0
  5152 ;;Total ram usage:        3 bytes
  5153 ;; Hardware stack levels used:    1
  5154 ;; Hardware stack levels required when called:    5
  5155 ;; This function calls:
  5156 ;;		_SetCursor
  5157 ;;		_WriteDataLCD
  5158 ;;		_strcpy
  5159 ;;		_print_LCD
  5160 ;; This function is called by:
  5161 ;;		_main
  5162 ;; This function uses a non-reentrant model
  5163 ;;
  5164                           psect	text1165
  5165                           	file	"C:\Users\Studio-Master\Desktop\Work\THC\27.05_DTHC\DisplayDTHC\dthc_lcd_controlle
                                 r.c"
  5166                           	line	279
  5167                           	global	__size_of_LCD_SetEditValue
  5168  0072                     	__size_of_LCD_SetEditValue	equ	__end_of_LCD_SetEditValue-_LCD_SetEditValue
  5169                           	
  5170  13D0                     _LCD_SetEditValue:	
  5171                           	opt	stack 2
  5172                           ; Regs used in _LCD_SetEditValue: [wreg-fsr0h+status,2+status,0+pclath+cstack]
  5173                           ;LCD_SetEditValue@pos stored from wreg
  5174  13D0  1283               	bcf	status, 5	;RP0=0, select bank0
  5175  13D1  1303               	bcf	status, 6	;RP1=0, select bank0
  5176  13D2  00A8               	movwf	(LCD_SetEditValue@pos)
  5177                           	line	280
  5178                           	
  5179  13D3                     l9516:	
  5180                           ;dthc_lcd_controller.c: 280: if ( pos != 0xFF ) {
  5181  13D3  0828               	movf	(LCD_SetEditValue@pos),w
  5182  13D4  3AFF               	xorlw	0FFh
  5183  13D5  1903               	skipnz
  5184  13D6  2BD8               	goto	u6151
  5185  13D7  2BD9               	goto	u6150
  5186  13D8                     u6151:
  5187  13D8  2C1F               	goto	l9540
  5188  13D9                     u6150:
  5189                           	line	301
  5190                           	
  5191  13D9                     l9518:	
  5192                           ;dthc_lcd_controller.c: 301: if ( pos < 9 ) {
  5193  13D9  3009               	movlw	(09h)
  5194  13DA  0228               	subwf	(LCD_SetEditValue@pos),w
  5195  13DB  1803               	skipnc
  5196  13DC  2BDE               	goto	u6161
  5197  13DD  2BDF               	goto	u6160
  5198  13DE                     u6161:
  5199  13DE  2BF7               	goto	l9528
  5200  13DF                     u6160:
  5201                           	line	302
  5202                           	
  5203  13DF                     l9520:	
  5204                           ;dthc_lcd_controller.c: 302: if (pos > 5) {
  5205  13DF  3006               	movlw	(06h)
  5206  13E0  0228               	subwf	(LCD_SetEditValue@pos),w
  5207  13E1  1C03               	skipc
  5208  13E2  2BE4               	goto	u6171
  5209  13E3  2BE5               	goto	u6170
  5210  13E4                     u6171:
  5211  13E4  2BE8               	goto	l9524
  5212  13E5                     u6170:
  5213                           	line	303
  5214                           	
  5215  13E5                     l9522:	
  5216                           ;dthc_lcd_controller.c: 303: pos -= 5;
  5217  13E5  3005               	movlw	low(05h)
  5218  13E6  02A8               	subwf	(LCD_SetEditValue@pos),f
  5219                           	line	304
  5220                           ;dthc_lcd_controller.c: 304: }
  5221  13E7  2BF1               	goto	l3465
  5222                           	line	305
  5223                           	
  5224  13E8                     l3464:	
  5225                           	line	306
  5226                           	
  5227  13E8                     l9524:	
  5228                           ;dthc_lcd_controller.c: 305: else
  5229                           ;dthc_lcd_controller.c: 306: if (pos > 3) {
  5230  13E8  3004               	movlw	(04h)
  5231  13E9  0228               	subwf	(LCD_SetEditValue@pos),w
  5232  13EA  1C03               	skipc
  5233  13EB  2BED               	goto	u6181
  5234  13EC  2BEE               	goto	u6180
  5235  13ED                     u6181:
  5236  13ED  2BF1               	goto	l3465
  5237  13EE                     u6180:
  5238                           	line	307
  5239                           	
  5240  13EE                     l9526:	
  5241                           ;dthc_lcd_controller.c: 307: pos -= 2;
  5242  13EE  3002               	movlw	low(02h)
  5243  13EF  02A8               	subwf	(LCD_SetEditValue@pos),f
  5244  13F0  2BF1               	goto	l3465
  5245                           	line	308
  5246                           	
  5247  13F1                     l3466:	
  5248                           	line	309
  5249                           	
  5250  13F1                     l3465:	
  5251                           ;dthc_lcd_controller.c: 308: }
  5252                           ;dthc_lcd_controller.c: 309: pos = 0x05 + pos;
  5253  13F1  0828               	movf	(LCD_SetEditValue@pos),w
  5254  13F2  3E05               	addlw	05h
  5255  13F3  00A7               	movwf	(??_LCD_SetEditValue+0)+0
  5256  13F4  0827               	movf	(??_LCD_SetEditValue+0)+0,w
  5257  13F5  00A8               	movwf	(LCD_SetEditValue@pos)
  5258                           	line	310
  5259                           ;dthc_lcd_controller.c: 310: }
  5260  13F6  2BFD               	goto	l9530
  5261                           	line	311
  5262                           	
  5263  13F7                     l3463:	
  5264                           	line	312
  5265                           	
  5266  13F7                     l9528:	
  5267                           ;dthc_lcd_controller.c: 311: else {
  5268                           ;dthc_lcd_controller.c: 312: pos = 0x45 + ( pos - 8 );
  5269  13F7  0828               	movf	(LCD_SetEditValue@pos),w
  5270  13F8  3E3D               	addlw	03Dh
  5271  13F9  00A7               	movwf	(??_LCD_SetEditValue+0)+0
  5272  13FA  0827               	movf	(??_LCD_SetEditValue+0)+0,w
  5273  13FB  00A8               	movwf	(LCD_SetEditValue@pos)
  5274  13FC  2BFD               	goto	l9530
  5275                           	line	313
  5276                           	
  5277  13FD                     l3467:	
  5278                           	line	315
  5279                           	
  5280  13FD                     l9530:	
  5281                           ;dthc_lcd_controller.c: 313: }
  5282                           ;dthc_lcd_controller.c: 315: SetCursor( pos );
  5283  13FD  0828               	movf	(LCD_SetEditValue@pos),w
  5284  13FE  160A  118A  265A   	fcall	_SetCursor
              160A  118A         
  5285                           	line	317
  5286                           	
  5287  1403                     l9532:	
  5288                           ;dthc_lcd_controller.c: 317: if ( value <= 9 ) {
  5289  1403  300A               	movlw	(0Ah)
  5290  1404  1283               	bcf	status, 5	;RP0=0, select bank0
  5291  1405  1303               	bcf	status, 6	;RP1=0, select bank0
  5292  1406  0226               	subwf	(LCD_SetEditValue@value),w
  5293  1407  1803               	skipnc
  5294  1408  2C0A               	goto	u6191
  5295  1409  2C0B               	goto	u6190
  5296  140A                     u6191:
  5297  140A  2C10               	goto	l9536
  5298  140B                     u6190:
  5299                           	line	318
  5300                           	
  5301  140B                     l9534:	
  5302                           ;dthc_lcd_controller.c: 318: value += '0';
  5303  140B  3030               	movlw	(030h)
  5304  140C  00A7               	movwf	(??_LCD_SetEditValue+0)+0
  5305  140D  0827               	movf	(??_LCD_SetEditValue+0)+0,w
  5306  140E  07A6               	addwf	(LCD_SetEditValue@value),f
  5307  140F  2C10               	goto	l9536
  5308                           	line	319
  5309                           	
  5310  1410                     l3468:	
  5311                           	line	321
  5312                           	
  5313  1410                     l9536:	
  5314                           ;dthc_lcd_controller.c: 319: }
  5315                           ;dthc_lcd_controller.c: 321: WriteDataLCD( value );
  5316  1410  0826               	movf	(LCD_SetEditValue@value),w
  5317  1411  120A  118A  2703   	fcall	_WriteDataLCD
              160A  118A         
  5318                           	line	322
  5319                           	
  5320  1416                     l9538:	
  5321                           ;dthc_lcd_controller.c: 322: SetCursor( pos );
  5322  1416  1283               	bcf	status, 5	;RP0=0, select bank0
  5323  1417  1303               	bcf	status, 6	;RP1=0, select bank0
  5324  1418  0828               	movf	(LCD_SetEditValue@pos),w
  5325  1419  160A  118A  265A   	fcall	_SetCursor
              160A  118A         
  5326                           	line	323
  5327                           ;dthc_lcd_controller.c: 323: }
  5328  141E  2C41               	goto	l3470
  5329                           	line	324
  5330                           	
  5331  141F                     l3462:	
  5332                           	line	325
  5333                           	
  5334  141F                     l9540:	
  5335                           ;dthc_lcd_controller.c: 324: else {
  5336                           ;dthc_lcd_controller.c: 325: strcpy( lcd_buf, MainScreen4[value]);
  5337  141F  1283               	bcf	status, 5	;RP0=0, select bank0
  5338  1420  1303               	bcf	status, 6	;RP1=0, select bank0
  5339  1421  0826               	movf	(LCD_SetEditValue@value),w
  5340  1422  3EA0               	addlw	_MainScreen4&0ffh
  5341  1423  0084               	movwf	fsr0
  5342  1424  1783               	bsf	status, 7	;select IRP bank3
  5343  1425  0800               	movf	indf,w
  5344  1426  00A7               	movwf	(??_LCD_SetEditValue+0)+0
  5345  1427  0827               	movf	(??_LCD_SetEditValue+0)+0,w
  5346  1428  00A0               	movwf	(?_strcpy)
  5347  1429  30CE               	movlw	(_lcd_buf)&0ffh
  5348  142A  160A  118A  21AC   	fcall	_strcpy
              160A  118A         
  5349                           	line	326
  5350                           	
  5351  142F                     l9542:	
  5352                           ;dthc_lcd_controller.c: 326: SetCursor(0x42);
  5353  142F  3042               	movlw	(042h)
  5354  1430  160A  118A  265A   	fcall	_SetCursor
              160A  118A         
  5355                           	line	327
  5356                           	
  5357  1435                     l9544:	
  5358                           ;dthc_lcd_controller.c: 327: print_LCD();
  5359  1435  120A  118A  27DF   	fcall	_print_LCD
              160A  118A         
  5360                           	line	328
  5361                           ;dthc_lcd_controller.c: 328: SetCursor(0x56);
  5362  143A  3056               	movlw	(056h)
  5363  143B  160A  118A  265A   	fcall	_SetCursor
              160A  118A         
  5364  1440  2C41               	goto	l3470
  5365                           	line	329
  5366                           	
  5367  1441                     l3469:	
  5368                           	line	330
  5369                           	
  5370  1441                     l3470:	
  5371  1441  0008               	return
  5372                           	opt stack 0
  5373                           GLOBAL	__end_of_LCD_SetEditValue
  5374  1442                     	__end_of_LCD_SetEditValue:
  5375 ;; =============== function _LCD_SetEditValue ends ============
  5376                           
  5377                           	signat	_LCD_SetEditValue,8312
  5378                           	global	_LCD_Update
  5379                           psect	text1166,local,class=CODE,delta=2
  5380                           global __ptext1166
  5381  04EB                     __ptext1166:
  5382                           
  5383 ;; *************** function _LCD_Update *****************
  5384 ;; Defined at:
  5385 ;;		line 62 in file "C:\Users\Studio-Master\Desktop\Work\THC\27.05_DTHC\DisplayDTHC\dthc_lcd_controller.c"
  5386 ;; Parameters:    Size  Location     Type
  5387 ;;		None
  5388 ;; Auto vars:     Size  Location     Type
  5389 ;;		None
  5390 ;; Return value:  Size  Location     Type
  5391 ;;		None               void
  5392 ;; Registers used:
  5393 ;;		wreg, fsr0l, fsr0h, status,2, status,0, btemp+1, pclath, cstack
  5394 ;; Tracked objects:
  5395 ;;		On entry : 0/0
  5396 ;;		On exit  : 0/0
  5397 ;;		Unchanged: 0/0
  5398 ;; Data sizes:     COMMON   BANK0   BANK1   BANK3   BANK2
  5399 ;;      Params:         0       0       0       0       0
  5400 ;;      Locals:         0       0       0       0       0
  5401 ;;      Temps:          0       2       0       0       0
  5402 ;;      Totals:         0       2       0       0       0
  5403 ;;Total ram usage:        2 bytes
  5404 ;; Hardware stack levels used:    1
  5405 ;; Hardware stack levels required when called:    5
  5406 ;; This function calls:
  5407 ;;		_SetCursor
  5408 ;;		_sprintf
  5409 ;;		_print_LCD
  5410 ;;		_WriteDataLCD
  5411 ;; This function is called by:
  5412 ;;		_main
  5413 ;; This function uses a non-reentrant model
  5414 ;;
  5415                           psect	text1166
  5416                           	file	"C:\Users\Studio-Master\Desktop\Work\THC\27.05_DTHC\DisplayDTHC\dthc_lcd_controlle
                                 r.c"
  5417                           	line	62
  5418                           	global	__size_of_LCD_Update
  5419  010D                     	__size_of_LCD_Update	equ	__end_of_LCD_Update-_LCD_Update
  5420                           	
  5421  04EB                     _LCD_Update:	
  5422                           	opt	stack 2
  5423                           ; Regs used in _LCD_Update: [wreg-fsr0h+status,2+status,0+btemp+1+pclath+cstack]
  5424                           	line	65
  5425                           	
  5426  04EB                     l9452:	
  5427                           ;dthc_lcd_controller.c: 65: if ( LCD_Status == LCD_RUN_MODE ) {
  5428  04EB  1283               	bcf	status, 5	;RP0=0, select bank0
  5429  04EC  1303               	bcf	status, 6	;RP1=0, select bank0
  5430  04ED  0864               	movf	(dthc_lcd_controller@LCD_Status),w	;volatile
  5431  04EE  3A03               	xorlw	03h
  5432  04EF  1D03               	skipz
  5433  04F0  2CF2               	goto	u6101
  5434  04F1  2CF3               	goto	u6100
  5435  04F2                     u6101:
  5436  04F2  2D8D               	goto	l9490
  5437  04F3                     u6100:
  5438                           	line	66
  5439                           	
  5440  04F3                     l9454:	
  5441                           ;dthc_lcd_controller.c: 66: SetCursor(0x06);
  5442  04F3  3006               	movlw	(06h)
  5443  04F4  160A  118A  265A   	fcall	_SetCursor
              120A  118A         
  5444                           	line	67
  5445                           	
  5446  04F9                     l9456:	
  5447                           ;dthc_lcd_controller.c: 67: sprintf(lcd_buf, "%3u  %3s ", valueTipV, dispTOR);
  5448  04F9  308B               	movlw	((STR_6-__stringbase))&0ffh
  5449  04FA  1283               	bcf	status, 5	;RP0=0, select bank0
  5450  04FB  1303               	bcf	status, 6	;RP1=0, select bank0
  5451  04FC  00C0               	movwf	(??_LCD_Update+0)+0
  5452  04FD  0840               	movf	(??_LCD_Update+0)+0,w
  5453  04FE  00AE               	movwf	(?_sprintf)
  5454  04FF  0851               	movf	(dthc_lcd_controller@valueTipV+1),w	;volatile
  5455  0500  01B0               	clrf	1+(?_sprintf)+01h
  5456  0501  07B0               	addwf	1+(?_sprintf)+01h
  5457  0502  0850               	movf	(dthc_lcd_controller@valueTipV),w	;volatile
  5458  0503  01AF               	clrf	0+(?_sprintf)+01h
  5459  0504  07AF               	addwf	0+(?_sprintf)+01h
  5460                           
  5461  0505  085C               	movf	(_dispTOR),w
  5462  0506  00C1               	movwf	(??_LCD_Update+1)+0
  5463  0507  0841               	movf	(??_LCD_Update+1)+0,w
  5464  0508  00B1               	movwf	(0+?_sprintf+03h)
  5465  0509  30CE               	movlw	(_lcd_buf)&0ffh
  5466  050A  120A  118A  20D2   	fcall	_sprintf
              120A  118A         
  5467                           	line	68
  5468                           	
  5469  050F                     l9458:	
  5470                           ;dthc_lcd_controller.c: 68: print_LCD();
  5471  050F  120A  118A  27DF   	fcall	_print_LCD
              120A  118A         
  5472                           	line	69
  5473                           	
  5474  0514                     l9460:	
  5475                           ;dthc_lcd_controller.c: 69: WriteDataLCD( Up_State );
  5476  0514  1283               	bcf	status, 5	;RP0=0, select bank0
  5477  0515  1303               	bcf	status, 6	;RP1=0, select bank0
  5478  0516  0857               	movf	(_Up_State),w	;volatile
  5479  0517  120A  118A  2703   	fcall	_WriteDataLCD
              120A  118A         
  5480                           	line	70
  5481                           	
  5482  051C                     l9462:	
  5483                           ;dthc_lcd_controller.c: 70: if (nameMode != 0) {
  5484  051C  1283               	bcf	status, 5	;RP0=0, select bank0
  5485  051D  1303               	bcf	status, 6	;RP1=0, select bank0
  5486  051E  0866               	movf	(dthc_lcd_controller@nameMode),w
  5487  051F  1D03               	skipz
  5488  0520  2D22               	goto	u6110
  5489  0521  2D36               	goto	l3402
  5490  0522                     u6110:
  5491                           	line	71
  5492                           	
  5493  0522                     l9464:	
  5494                           ;dthc_lcd_controller.c: 71: SetCursor(0x0B);
  5495  0522  300B               	movlw	(0Bh)
  5496  0523  160A  118A  265A   	fcall	_SetCursor
              120A  118A         
  5497                           	line	72
  5498                           ;dthc_lcd_controller.c: 72: WriteDataLCD(nameMode);
  5499  0528  1283               	bcf	status, 5	;RP0=0, select bank0
  5500  0529  1303               	bcf	status, 6	;RP1=0, select bank0
  5501  052A  0866               	movf	(dthc_lcd_controller@nameMode),w
  5502  052B  120A  118A  2703   	fcall	_WriteDataLCD
              120A  118A         
  5503                           	line	73
  5504                           ;dthc_lcd_controller.c: 73: SetCursor(0x0B);
  5505  0530  300B               	movlw	(0Bh)
  5506  0531  160A  118A  265A   	fcall	_SetCursor
              120A  118A         
  5507                           	line	74
  5508                           	
  5509  0536                     l3402:	
  5510                           	line	75
  5511                           ;dthc_lcd_controller.c: 74: }
  5512                           ;dthc_lcd_controller.c: 75: SetCursor(0x4B);
  5513  0536  304B               	movlw	(04Bh)
  5514  0537  160A  118A  265A   	fcall	_SetCursor
              120A  118A         
  5515                           	line	76
  5516                           	
  5517  053C                     l9466:	
  5518                           ;dthc_lcd_controller.c: 76: sprintf(lcd_buf, "%3s ", dispARC);
  5519  053C  3090               	movlw	((STR_7-__stringbase))&0ffh
  5520  053D  1283               	bcf	status, 5	;RP0=0, select bank0
  5521  053E  1303               	bcf	status, 6	;RP1=0, select bank0
  5522  053F  00C0               	movwf	(??_LCD_Update+0)+0
  5523  0540  0840               	movf	(??_LCD_Update+0)+0,w
  5524  0541  00AE               	movwf	(?_sprintf)
  5525  0542  085B               	movf	(_dispARC),w
  5526  0543  00C1               	movwf	(??_LCD_Update+1)+0
  5527  0544  0841               	movf	(??_LCD_Update+1)+0,w
  5528  0545  00AF               	movwf	(0+?_sprintf+01h)
  5529  0546  30CE               	movlw	(_lcd_buf)&0ffh
  5530  0547  120A  118A  20D2   	fcall	_sprintf
              120A  118A         
  5531                           	line	77
  5532                           	
  5533  054C                     l9468:	
  5534                           ;dthc_lcd_controller.c: 77: print_LCD();
  5535  054C  120A  118A  27DF   	fcall	_print_LCD
              120A  118A         
  5536                           	line	78
  5537                           	
  5538  0551                     l9470:	
  5539                           ;dthc_lcd_controller.c: 78: WriteDataLCD( Down_State );
  5540  0551  1283               	bcf	status, 5	;RP0=0, select bank0
  5541  0552  1303               	bcf	status, 6	;RP1=0, select bank0
  5542  0553  0852               	movf	(_Down_State),w	;volatile
  5543  0554  120A  118A  2703   	fcall	_WriteDataLCD
              120A  118A         
  5544                           	line	80
  5545                           	
  5546  0559                     l9472:	
  5547                           ;dthc_lcd_controller.c: 80: if (Up_State != NONE_ARROW)
  5548  0559  1283               	bcf	status, 5	;RP0=0, select bank0
  5549  055A  1303               	bcf	status, 6	;RP1=0, select bank0
  5550  055B  0857               	movf	(_Up_State),w	;volatile
  5551  055C  3A16               	xorlw	016h
  5552  055D  1903               	skipnz
  5553  055E  2D60               	goto	u6121
  5554  055F  2D61               	goto	u6120
  5555  0560                     u6121:
  5556  0560  2D68               	goto	l9476
  5557  0561                     u6120:
  5558                           	line	81
  5559                           	
  5560  0561                     l9474:	
  5561                           ;dthc_lcd_controller.c: 81: SetCursor(0x0F);
  5562  0561  300F               	movlw	(0Fh)
  5563  0562  160A  118A  265A   	fcall	_SetCursor
              120A  118A         
  5564  0567  2D78               	goto	l9480
  5565                           	line	82
  5566                           	
  5567  0568                     l3403:	
  5568                           	line	83
  5569                           	
  5570  0568                     l9476:	
  5571                           ;dthc_lcd_controller.c: 82: else
  5572                           ;dthc_lcd_controller.c: 83: if (Down_State != NONE_ARROW)
  5573  0568  1283               	bcf	status, 5	;RP0=0, select bank0
  5574  0569  1303               	bcf	status, 6	;RP1=0, select bank0
  5575  056A  0852               	movf	(_Down_State),w	;volatile
  5576  056B  3A16               	xorlw	016h
  5577  056C  1903               	skipnz
  5578  056D  2D6F               	goto	u6131
  5579  056E  2D70               	goto	u6130
  5580  056F                     u6131:
  5581  056F  2D78               	goto	l9480
  5582  0570                     u6130:
  5583                           	line	84
  5584                           	
  5585  0570                     l9478:	
  5586                           ;dthc_lcd_controller.c: 84: SetCursor(0x4F);
  5587  0570  304F               	movlw	(04Fh)
  5588  0571  160A  118A  265A   	fcall	_SetCursor
              120A  118A         
  5589  0576  2D78               	goto	l9480
  5590                           	
  5591  0577                     l3405:	
  5592  0577  2D78               	goto	l9480
  5593                           	line	88
  5594                           	
  5595  0578                     l3404:	
  5596                           	
  5597  0578                     l9480:	
  5598                           ;dthc_lcd_controller.c: 88: valueTipV = 0;
  5599  0578  1283               	bcf	status, 5	;RP0=0, select bank0
  5600  0579  1303               	bcf	status, 6	;RP1=0, select bank0
  5601  057A  01D0               	clrf	(dthc_lcd_controller@valueTipV)	;volatile
  5602  057B  01D1               	clrf	(dthc_lcd_controller@valueTipV+1)	;volatile
  5603                           	line	89
  5604                           	
  5605  057C                     l9482:	
  5606                           ;dthc_lcd_controller.c: 89: Up_State = NONE_ARROW;
  5607  057C  3016               	movlw	(016h)
  5608  057D  00C0               	movwf	(??_LCD_Update+0)+0
  5609  057E  0840               	movf	(??_LCD_Update+0)+0,w
  5610  057F  00D7               	movwf	(_Up_State)	;volatile
  5611                           	line	90
  5612                           	
  5613  0580                     l9484:	
  5614                           ;dthc_lcd_controller.c: 90: Down_State = NONE_ARROW;
  5615  0580  3016               	movlw	(016h)
  5616  0581  00C0               	movwf	(??_LCD_Update+0)+0
  5617  0582  0840               	movf	(??_LCD_Update+0)+0,w
  5618  0583  00D2               	movwf	(_Down_State)	;volatile
  5619                           	line	91
  5620                           	
  5621  0584                     l9486:	
  5622                           ;dthc_lcd_controller.c: 91: dispTOR = StrNull;
  5623  0584  304D               	movlw	((_StrNull-__stringbase))&0ffh
  5624  0585  00C0               	movwf	(??_LCD_Update+0)+0
  5625  0586  0840               	movf	(??_LCD_Update+0)+0,w
  5626  0587  00DC               	movwf	(_dispTOR)
  5627                           	line	92
  5628                           	
  5629  0588                     l9488:	
  5630                           ;dthc_lcd_controller.c: 92: dispARC = StrNull;
  5631  0588  304D               	movlw	((_StrNull-__stringbase))&0ffh
  5632  0589  00C0               	movwf	(??_LCD_Update+0)+0
  5633  058A  0840               	movf	(??_LCD_Update+0)+0,w
  5634  058B  00DB               	movwf	(_dispARC)
  5635                           	line	93
  5636                           ;dthc_lcd_controller.c: 93: }
  5637  058C  2DF7               	goto	l3408
  5638                           	line	94
  5639                           	
  5640  058D                     l3401:	
  5641                           	line	95
  5642                           	
  5643  058D                     l9490:	
  5644                           ;dthc_lcd_controller.c: 94: else
  5645                           ;dthc_lcd_controller.c: 95: if ( LCD_Status == LCD_TEST_VIEW_MODE ) {
  5646  058D  0864               	movf	(dthc_lcd_controller@LCD_Status),w	;volatile
  5647  058E  3A04               	xorlw	04h
  5648  058F  1D03               	skipz
  5649  0590  2D92               	goto	u6141
  5650  0591  2D93               	goto	u6140
  5651  0592                     u6141:
  5652  0592  2DF7               	goto	l3408
  5653  0593                     u6140:
  5654                           	line	96
  5655                           	
  5656  0593                     l9492:	
  5657                           ;dthc_lcd_controller.c: 96: SetCursor(0x06);
  5658  0593  3006               	movlw	(06h)
  5659  0594  160A  118A  265A   	fcall	_SetCursor
              120A  118A         
  5660                           	line	97
  5661                           	
  5662  0599                     l9494:	
  5663                           ;dthc_lcd_controller.c: 97: sprintf(lcd_buf, "%3u", valueTipV);
  5664  0599  30B4               	movlw	((STR_8-__stringbase))&0ffh
  5665  059A  1283               	bcf	status, 5	;RP0=0, select bank0
  5666  059B  1303               	bcf	status, 6	;RP1=0, select bank0
  5667  059C  00C0               	movwf	(??_LCD_Update+0)+0
  5668  059D  0840               	movf	(??_LCD_Update+0)+0,w
  5669  059E  00AE               	movwf	(?_sprintf)
  5670  059F  0851               	movf	(dthc_lcd_controller@valueTipV+1),w	;volatile
  5671  05A0  01B0               	clrf	1+(?_sprintf)+01h
  5672  05A1  07B0               	addwf	1+(?_sprintf)+01h
  5673  05A2  0850               	movf	(dthc_lcd_controller@valueTipV),w	;volatile
  5674  05A3  01AF               	clrf	0+(?_sprintf)+01h
  5675  05A4  07AF               	addwf	0+(?_sprintf)+01h
  5676                           
  5677  05A5  30CE               	movlw	(_lcd_buf)&0ffh
  5678  05A6  120A  118A  20D2   	fcall	_sprintf
              120A  118A         
  5679                           	line	98
  5680                           	
  5681  05AB                     l9496:	
  5682                           ;dthc_lcd_controller.c: 98: print_LCD();
  5683  05AB  120A  118A  27DF   	fcall	_print_LCD
              120A  118A         
  5684                           	line	99
  5685                           	
  5686  05B0                     l9498:	
  5687                           ;dthc_lcd_controller.c: 99: SetCursor(0x46);
  5688  05B0  3046               	movlw	(046h)
  5689  05B1  160A  118A  265A   	fcall	_SetCursor
              120A  118A         
  5690                           	line	100
  5691                           	
  5692  05B6                     l9500:	
  5693                           ;dthc_lcd_controller.c: 100: sprintf(lcd_buf, "%3u", valueTipI);
  5694  05B6  30B4               	movlw	((STR_9-__stringbase))&0ffh
  5695  05B7  1283               	bcf	status, 5	;RP0=0, select bank0
  5696  05B8  1303               	bcf	status, 6	;RP1=0, select bank0
  5697  05B9  00C0               	movwf	(??_LCD_Update+0)+0
  5698  05BA  0840               	movf	(??_LCD_Update+0)+0,w
  5699  05BB  00AE               	movwf	(?_sprintf)
  5700  05BC  1683               	bsf	status, 5	;RP0=1, select bank1
  5701  05BD  1303               	bcf	status, 6	;RP1=0, select bank1
  5702  05BE  0847               	movf	(dthc_lcd_controller@valueTipI+1)^080h,w	;volatile
  5703  05BF  1283               	bcf	status, 5	;RP0=0, select bank0
  5704  05C0  1303               	bcf	status, 6	;RP1=0, select bank0
  5705  05C1  01B0               	clrf	1+(?_sprintf)+01h
  5706  05C2  07B0               	addwf	1+(?_sprintf)+01h
  5707  05C3  1683               	bsf	status, 5	;RP0=1, select bank1
  5708  05C4  1303               	bcf	status, 6	;RP1=0, select bank1
  5709  05C5  0846               	movf	(dthc_lcd_controller@valueTipI)^080h,w	;volatile
  5710  05C6  1283               	bcf	status, 5	;RP0=0, select bank0
  5711  05C7  1303               	bcf	status, 6	;RP1=0, select bank0
  5712  05C8  01AF               	clrf	0+(?_sprintf)+01h
  5713  05C9  07AF               	addwf	0+(?_sprintf)+01h
  5714                           
  5715  05CA  30CE               	movlw	(_lcd_buf)&0ffh
  5716  05CB  120A  118A  20D2   	fcall	_sprintf
              120A  118A         
  5717                           	line	101
  5718                           ;dthc_lcd_controller.c: 101: print_LCD();
  5719  05D0  120A  118A  27DF   	fcall	_print_LCD
              120A  118A         
  5720                           	line	102
  5721                           	
  5722  05D5                     l9502:	
  5723                           ;dthc_lcd_controller.c: 102: SetCursor(0x10);
  5724  05D5  3010               	movlw	(010h)
  5725  05D6  160A  118A  265A   	fcall	_SetCursor
              120A  118A         
  5726                           	line	103
  5727                           	
  5728  05DB                     l9504:	
  5729                           ;dthc_lcd_controller.c: 103: valueTipV = 0;
  5730  05DB  1283               	bcf	status, 5	;RP0=0, select bank0
  5731  05DC  1303               	bcf	status, 6	;RP1=0, select bank0
  5732  05DD  01D0               	clrf	(dthc_lcd_controller@valueTipV)	;volatile
  5733  05DE  01D1               	clrf	(dthc_lcd_controller@valueTipV+1)	;volatile
  5734                           	line	104
  5735                           	
  5736  05DF                     l9506:	
  5737                           ;dthc_lcd_controller.c: 104: valueTipI = 0;
  5738  05DF  1683               	bsf	status, 5	;RP0=1, select bank1
  5739  05E0  1303               	bcf	status, 6	;RP1=0, select bank1
  5740  05E1  01C6               	clrf	(dthc_lcd_controller@valueTipI)^080h	;volatile
  5741  05E2  01C7               	clrf	(dthc_lcd_controller@valueTipI+1)^080h	;volatile
  5742                           	line	105
  5743                           	
  5744  05E3                     l9508:	
  5745                           ;dthc_lcd_controller.c: 105: Up_State = NONE_ARROW;
  5746  05E3  3016               	movlw	(016h)
  5747  05E4  1283               	bcf	status, 5	;RP0=0, select bank0
  5748  05E5  1303               	bcf	status, 6	;RP1=0, select bank0
  5749  05E6  00C0               	movwf	(??_LCD_Update+0)+0
  5750  05E7  0840               	movf	(??_LCD_Update+0)+0,w
  5751  05E8  00D7               	movwf	(_Up_State)	;volatile
  5752                           	line	106
  5753                           	
  5754  05E9                     l9510:	
  5755                           ;dthc_lcd_controller.c: 106: Down_State = NONE_ARROW;
  5756  05E9  3016               	movlw	(016h)
  5757  05EA  00C0               	movwf	(??_LCD_Update+0)+0
  5758  05EB  0840               	movf	(??_LCD_Update+0)+0,w
  5759  05EC  00D2               	movwf	(_Down_State)	;volatile
  5760                           	line	107
  5761                           	
  5762  05ED                     l9512:	
  5763                           ;dthc_lcd_controller.c: 107: dispTOR = StrNull;
  5764  05ED  304D               	movlw	((_StrNull-__stringbase))&0ffh
  5765  05EE  00C0               	movwf	(??_LCD_Update+0)+0
  5766  05EF  0840               	movf	(??_LCD_Update+0)+0,w
  5767  05F0  00DC               	movwf	(_dispTOR)
  5768                           	line	108
  5769                           	
  5770  05F1                     l9514:	
  5771                           ;dthc_lcd_controller.c: 108: dispARC = StrNull;
  5772  05F1  304D               	movlw	((_StrNull-__stringbase))&0ffh
  5773  05F2  00C0               	movwf	(??_LCD_Update+0)+0
  5774  05F3  0840               	movf	(??_LCD_Update+0)+0,w
  5775  05F4  00DB               	movwf	(_dispARC)
  5776  05F5  2DF7               	goto	l3408
  5777                           	line	109
  5778                           	
  5779  05F6                     l3407:	
  5780  05F6  2DF7               	goto	l3408
  5781                           	line	112
  5782                           	
  5783  05F7                     l3406:	
  5784                           	
  5785  05F7                     l3408:	
  5786  05F7  0008               	return
  5787                           	opt stack 0
  5788                           GLOBAL	__end_of_LCD_Update
  5789  05F8                     	__end_of_LCD_Update:
  5790 ;; =============== function _LCD_Update ends ============
  5791                           
  5792                           	signat	_LCD_Update,88
  5793                           	global	_LCD_SetMode
  5794                           psect	text1167,local,class=CODE,delta=2
  5795                           global __ptext1167
  5796  02E2                     __ptext1167:
  5797                           
  5798 ;; *************** function _LCD_SetMode *****************
  5799 ;; Defined at:
  5800 ;;		line 147 in file "C:\Users\Studio-Master\Desktop\Work\THC\27.05_DTHC\DisplayDTHC\dthc_lcd_controller.c"
  5801 ;; Parameters:    Size  Location     Type
  5802 ;;  mode            1    wreg     enum E283
  5803 ;; Auto vars:     Size  Location     Type
  5804 ;;  mode            1   33[BANK0 ] enum E283
  5805 ;; Return value:  Size  Location     Type
  5806 ;;		None               void
  5807 ;; Registers used:
  5808 ;;		wreg, fsr0l, fsr0h, status,2, status,0, btemp+1, pclath, cstack
  5809 ;; Tracked objects:
  5810 ;;		On entry : 0/0
  5811 ;;		On exit  : 0/0
  5812 ;;		Unchanged: 0/0
  5813 ;; Data sizes:     COMMON   BANK0   BANK1   BANK3   BANK2
  5814 ;;      Params:         0       0       0       0       0
  5815 ;;      Locals:         0       1       0       0       0
  5816 ;;      Temps:          0       1       0       0       0
  5817 ;;      Totals:         0       2       0       0       0
  5818 ;;Total ram usage:        2 bytes
  5819 ;; Hardware stack levels used:    1
  5820 ;; Hardware stack levels required when called:    5
  5821 ;; This function calls:
  5822 ;;		_Clear_LCD
  5823 ;;		_SetCursor
  5824 ;;		_strcpy
  5825 ;;		_print_LCD
  5826 ;;		_Enable_Blink_LCD
  5827 ;;		_sprintf
  5828 ;;		_WriteDataLCD
  5829 ;; This function is called by:
  5830 ;;		_main
  5831 ;; This function uses a non-reentrant model
  5832 ;;
  5833                           psect	text1167
  5834                           	file	"C:\Users\Studio-Master\Desktop\Work\THC\27.05_DTHC\DisplayDTHC\dthc_lcd_controlle
                                 r.c"
  5835                           	line	147
  5836                           	global	__size_of_LCD_SetMode
  5837  0209                     	__size_of_LCD_SetMode	equ	__end_of_LCD_SetMode-_LCD_SetMode
  5838                           	
  5839  02E2                     _LCD_SetMode:	
  5840                           	opt	stack 2
  5841                           ; Regs used in _LCD_SetMode: [wreg-fsr0h+status,2+status,0+btemp+1+pclath+cstack]
  5842                           ;LCD_SetMode@mode stored from wreg
  5843                           	line	149
  5844  02E2  1283               	bcf	status, 5	;RP0=0, select bank0
  5845  02E3  1303               	bcf	status, 6	;RP1=0, select bank0
  5846  02E4  00C1               	movwf	(LCD_SetMode@mode)
  5847                           	
  5848  02E5                     l9356:	
  5849                           ;dthc_lcd_controller.c: 149: if ( mode == LCD_RUN_MODE && initMainScreen==0 ) {
  5850  02E5  0841               	movf	(LCD_SetMode@mode),w
  5851  02E6  3A03               	xorlw	03h
  5852  02E7  1D03               	skipz
  5853  02E8  2AEA               	goto	u6071
  5854  02E9  2AEB               	goto	u6070
  5855  02EA                     u6071:
  5856  02EA  2CCB               	goto	l9448
  5857  02EB                     u6070:
  5858                           	
  5859  02EB                     l9358:	
  5860  02EB  08E5               	movf	(dthc_lcd_controller@initMainScreen),f
  5861  02EC  1D03               	skipz
  5862  02ED  2AEF               	goto	u6081
  5863  02EE  2AF0               	goto	u6080
  5864  02EF                     u6081:
  5865  02EF  2CCB               	goto	l9448
  5866  02F0                     u6080:
  5867                           	line	150
  5868                           	
  5869  02F0                     l9360:	
  5870                           ;dthc_lcd_controller.c: 150: Clear_LCD();
  5871  02F0  160A  118A  20ED   	fcall	_Clear_LCD
              120A  118A         
  5872                           	line	151
  5873                           ;dthc_lcd_controller.c: 151: SetCursor( 0x00);
  5874  02F5  3000               	movlw	(0)
  5875  02F6  160A  118A  265A   	fcall	_SetCursor
              120A  118A         
  5876                           	line	152
  5877                           	
  5878  02FB                     l9362:	
  5879                           ;dthc_lcd_controller.c: 152: strcpy( lcd_buf, MainScreen1);
  5880  02FB  3039               	movlw	((_MainScreen1-__stringbase))&0ffh
  5881  02FC  1283               	bcf	status, 5	;RP0=0, select bank0
  5882  02FD  1303               	bcf	status, 6	;RP1=0, select bank0
  5883  02FE  00C0               	movwf	(??_LCD_SetMode+0)+0
  5884  02FF  0840               	movf	(??_LCD_SetMode+0)+0,w
  5885  0300  00A0               	movwf	(?_strcpy)
  5886  0301  30CE               	movlw	(_lcd_buf)&0ffh
  5887  0302  160A  118A  21AC   	fcall	_strcpy
              120A  118A         
  5888                           	line	153
  5889                           	
  5890  0307                     l9364:	
  5891                           ;dthc_lcd_controller.c: 153: print_LCD();
  5892  0307  120A  118A  27DF   	fcall	_print_LCD
              120A  118A         
  5893                           	line	154
  5894                           ;dthc_lcd_controller.c: 154: SetCursor( 0x40);
  5895  030C  3040               	movlw	(040h)
  5896  030D  160A  118A  265A   	fcall	_SetCursor
              120A  118A         
  5897                           	line	155
  5898                           	
  5899  0312                     l9366:	
  5900                           ;dthc_lcd_controller.c: 155: strcpy( lcd_buf, MainScreen2);
  5901  0312  303F               	movlw	((_MainScreen2-__stringbase))&0ffh
  5902  0313  1283               	bcf	status, 5	;RP0=0, select bank0
  5903  0314  1303               	bcf	status, 6	;RP1=0, select bank0
  5904  0315  00C0               	movwf	(??_LCD_SetMode+0)+0
  5905  0316  0840               	movf	(??_LCD_SetMode+0)+0,w
  5906  0317  00A0               	movwf	(?_strcpy)
  5907  0318  30CE               	movlw	(_lcd_buf)&0ffh
  5908  0319  160A  118A  21AC   	fcall	_strcpy
              120A  118A         
  5909                           	line	156
  5910                           	
  5911  031E                     l9368:	
  5912                           ;dthc_lcd_controller.c: 156: print_LCD();
  5913  031E  120A  118A  27DF   	fcall	_print_LCD
              120A  118A         
  5914                           	line	157
  5915                           ;dthc_lcd_controller.c: 157: Enable_Blink_LCD(1);
  5916  0323  3001               	movlw	(01h)
  5917  0324  160A  118A  2192   	fcall	_Enable_Blink_LCD
              120A  118A         
  5918                           	line	158
  5919                           ;dthc_lcd_controller.c: 158: SetCursor( 0x46 );
  5920  0329  3046               	movlw	(046h)
  5921  032A  160A  118A  265A   	fcall	_SetCursor
              120A  118A         
  5922                           	line	159
  5923                           	
  5924  032F                     l9370:	
  5925                           ;dthc_lcd_controller.c: 159: sprintf(lcd_buf, "%3u", valueSetV);
  5926  032F  30B4               	movlw	((STR_11-__stringbase))&0ffh
  5927  0330  1283               	bcf	status, 5	;RP0=0, select bank0
  5928  0331  1303               	bcf	status, 6	;RP1=0, select bank0
  5929  0332  00C0               	movwf	(??_LCD_SetMode+0)+0
  5930  0333  0840               	movf	(??_LCD_SetMode+0)+0,w
  5931  0334  00AE               	movwf	(?_sprintf)
  5932  0335  084F               	movf	(dthc_lcd_controller@valueSetV+1),w	;volatile
  5933  0336  01B0               	clrf	1+(?_sprintf)+01h
  5934  0337  07B0               	addwf	1+(?_sprintf)+01h
  5935  0338  084E               	movf	(dthc_lcd_controller@valueSetV),w	;volatile
  5936  0339  01AF               	clrf	0+(?_sprintf)+01h
  5937  033A  07AF               	addwf	0+(?_sprintf)+01h
  5938                           
  5939  033B  30CE               	movlw	(_lcd_buf)&0ffh
  5940  033C  120A  118A  20D2   	fcall	_sprintf
              120A  118A         
  5941                           	line	160
  5942                           	
  5943  0341                     l9372:	
  5944                           ;dthc_lcd_controller.c: 160: print_LCD();
  5945  0341  120A  118A  27DF   	fcall	_print_LCD
              120A  118A         
  5946                           	line	161
  5947                           	
  5948  0346                     l9374:	
  5949                           ;dthc_lcd_controller.c: 161: initMainScreen = 1;
  5950  0346  1283               	bcf	status, 5	;RP0=0, select bank0
  5951  0347  1303               	bcf	status, 6	;RP1=0, select bank0
  5952  0348  01E5               	clrf	(dthc_lcd_controller@initMainScreen)
  5953  0349  1403               	bsf	status,0
  5954  034A  0DE5               	rlf	(dthc_lcd_controller@initMainScreen),f
  5955  034B  2CCB               	goto	l9448
  5956                           	line	162
  5957                           	
  5958  034C                     l3423:	
  5959                           	line	164
  5960                           ;dthc_lcd_controller.c: 162: }
  5961                           ;dthc_lcd_controller.c: 164: switch (mode) {
  5962  034C  2CCB               	goto	l9448
  5963                           	line	165
  5964                           ;dthc_lcd_controller.c: 165: case LCD_INIT_MODE:
  5965                           	
  5966  034D                     l3425:	
  5967                           	line	166
  5968                           	
  5969  034D                     l9376:	
  5970                           ;dthc_lcd_controller.c: 166: Clear_LCD();
  5971  034D  160A  118A  20ED   	fcall	_Clear_LCD
              120A  118A         
  5972                           	line	167
  5973                           ;dthc_lcd_controller.c: 167: SetCursor( 0x00);
  5974  0352  3000               	movlw	(0)
  5975  0353  160A  118A  265A   	fcall	_SetCursor
              120A  118A         
  5976                           	line	168
  5977                           	
  5978  0358                     l9378:	
  5979                           ;dthc_lcd_controller.c: 168: strcpy( lcd_buf, WelcomeScreen1);
  5980  0358  300B               	movlw	((_WelcomeScreen1-__stringbase))&0ffh
  5981  0359  1283               	bcf	status, 5	;RP0=0, select bank0
  5982  035A  1303               	bcf	status, 6	;RP1=0, select bank0
  5983  035B  00C0               	movwf	(??_LCD_SetMode+0)+0
  5984  035C  0840               	movf	(??_LCD_SetMode+0)+0,w
  5985  035D  00A0               	movwf	(?_strcpy)
  5986  035E  30CE               	movlw	(_lcd_buf)&0ffh
  5987  035F  160A  118A  21AC   	fcall	_strcpy
              120A  118A         
  5988                           	line	169
  5989                           	
  5990  0364                     l9380:	
  5991                           ;dthc_lcd_controller.c: 169: print_LCD();
  5992  0364  120A  118A  27DF   	fcall	_print_LCD
              120A  118A         
  5993                           	line	170
  5994                           ;dthc_lcd_controller.c: 170: SetCursor( 0x40);
  5995  0369  3040               	movlw	(040h)
  5996  036A  160A  118A  265A   	fcall	_SetCursor
              120A  118A         
  5997                           	line	171
  5998                           	
  5999  036F                     l9382:	
  6000                           ;dthc_lcd_controller.c: 171: strcpy( lcd_buf, WelcomeScreen2);
  6001  036F  301C               	movlw	((_WelcomeScreen2-__stringbase))&0ffh
  6002  0370  1283               	bcf	status, 5	;RP0=0, select bank0
  6003  0371  1303               	bcf	status, 6	;RP1=0, select bank0
  6004  0372  00C0               	movwf	(??_LCD_SetMode+0)+0
  6005  0373  0840               	movf	(??_LCD_SetMode+0)+0,w
  6006  0374  00A0               	movwf	(?_strcpy)
  6007  0375  30CE               	movlw	(_lcd_buf)&0ffh
  6008  0376  160A  118A  21AC   	fcall	_strcpy
              120A  118A         
  6009                           	line	172
  6010                           	
  6011  037B                     l9384:	
  6012                           ;dthc_lcd_controller.c: 172: print_LCD();
  6013  037B  120A  118A  27DF   	fcall	_print_LCD
              120A  118A         
  6014                           	line	173
  6015                           ;dthc_lcd_controller.c: 173: break;
  6016  0380  2CE4               	goto	l9450
  6017                           	line	174
  6018                           ;dthc_lcd_controller.c: 174: case LCD_RUN_MODE:
  6019                           	
  6020  0381                     l3427:	
  6021                           	line	176
  6022                           	
  6023  0381                     l9386:	
  6024                           ;dthc_lcd_controller.c: 176: Clear_LCD();
  6025  0381  160A  118A  20ED   	fcall	_Clear_LCD
              120A  118A         
  6026                           	line	177
  6027                           ;dthc_lcd_controller.c: 177: SetCursor( 0x00);
  6028  0386  3000               	movlw	(0)
  6029  0387  160A  118A  265A   	fcall	_SetCursor
              120A  118A         
  6030                           	line	178
  6031                           	
  6032  038C                     l9388:	
  6033                           ;dthc_lcd_controller.c: 178: strcpy( lcd_buf, MainScreen1);
  6034  038C  3039               	movlw	((_MainScreen1-__stringbase))&0ffh
  6035  038D  1283               	bcf	status, 5	;RP0=0, select bank0
  6036  038E  1303               	bcf	status, 6	;RP1=0, select bank0
  6037  038F  00C0               	movwf	(??_LCD_SetMode+0)+0
  6038  0390  0840               	movf	(??_LCD_SetMode+0)+0,w
  6039  0391  00A0               	movwf	(?_strcpy)
  6040  0392  30CE               	movlw	(_lcd_buf)&0ffh
  6041  0393  160A  118A  21AC   	fcall	_strcpy
              120A  118A         
  6042                           	line	179
  6043                           	
  6044  0398                     l9390:	
  6045                           ;dthc_lcd_controller.c: 179: print_LCD();
  6046  0398  120A  118A  27DF   	fcall	_print_LCD
              120A  118A         
  6047                           	line	180
  6048                           	
  6049  039D                     l9392:	
  6050                           ;dthc_lcd_controller.c: 180: if (nameMode != 0) {
  6051  039D  1283               	bcf	status, 5	;RP0=0, select bank0
  6052  039E  1303               	bcf	status, 6	;RP1=0, select bank0
  6053  039F  0866               	movf	(dthc_lcd_controller@nameMode),w
  6054  03A0  1D03               	skipz
  6055  03A1  2BA3               	goto	u6090
  6056  03A2  2BB7               	goto	l3428
  6057  03A3                     u6090:
  6058                           	line	181
  6059                           	
  6060  03A3                     l9394:	
  6061                           ;dthc_lcd_controller.c: 181: SetCursor(0x0B);
  6062  03A3  300B               	movlw	(0Bh)
  6063  03A4  160A  118A  265A   	fcall	_SetCursor
              120A  118A         
  6064                           	line	182
  6065                           ;dthc_lcd_controller.c: 182: WriteDataLCD(nameMode);
  6066  03A9  1283               	bcf	status, 5	;RP0=0, select bank0
  6067  03AA  1303               	bcf	status, 6	;RP1=0, select bank0
  6068  03AB  0866               	movf	(dthc_lcd_controller@nameMode),w
  6069  03AC  120A  118A  2703   	fcall	_WriteDataLCD
              120A  118A         
  6070                           	line	183
  6071                           ;dthc_lcd_controller.c: 183: SetCursor(0x0B);
  6072  03B1  300B               	movlw	(0Bh)
  6073  03B2  160A  118A  265A   	fcall	_SetCursor
              120A  118A         
  6074                           	line	184
  6075                           	
  6076  03B7                     l3428:	
  6077                           	line	185
  6078                           ;dthc_lcd_controller.c: 184: }
  6079                           ;dthc_lcd_controller.c: 185: SetCursor( 0x40);
  6080  03B7  3040               	movlw	(040h)
  6081  03B8  160A  118A  265A   	fcall	_SetCursor
              120A  118A         
  6082                           	line	186
  6083                           	
  6084  03BD                     l9396:	
  6085                           ;dthc_lcd_controller.c: 186: strcpy( lcd_buf, MainScreen2);
  6086  03BD  303F               	movlw	((_MainScreen2-__stringbase))&0ffh
  6087  03BE  1283               	bcf	status, 5	;RP0=0, select bank0
  6088  03BF  1303               	bcf	status, 6	;RP1=0, select bank0
  6089  03C0  00C0               	movwf	(??_LCD_SetMode+0)+0
  6090  03C1  0840               	movf	(??_LCD_SetMode+0)+0,w
  6091  03C2  00A0               	movwf	(?_strcpy)
  6092  03C3  30CE               	movlw	(_lcd_buf)&0ffh
  6093  03C4  160A  118A  21AC   	fcall	_strcpy
              120A  118A         
  6094                           	line	187
  6095                           	
  6096  03C9                     l9398:	
  6097                           ;dthc_lcd_controller.c: 187: print_LCD();
  6098  03C9  120A  118A  27DF   	fcall	_print_LCD
              120A  118A         
  6099                           	line	188
  6100                           ;dthc_lcd_controller.c: 188: SetCursor( 0x46 );
  6101  03CE  3046               	movlw	(046h)
  6102  03CF  160A  118A  265A   	fcall	_SetCursor
              120A  118A         
  6103                           	line	189
  6104                           	
  6105  03D4                     l9400:	
  6106                           ;dthc_lcd_controller.c: 189: sprintf(lcd_buf, "%3u", valueSetV);
  6107  03D4  30B4               	movlw	((STR_12-__stringbase))&0ffh
  6108  03D5  1283               	bcf	status, 5	;RP0=0, select bank0
  6109  03D6  1303               	bcf	status, 6	;RP1=0, select bank0
  6110  03D7  00C0               	movwf	(??_LCD_SetMode+0)+0
  6111  03D8  0840               	movf	(??_LCD_SetMode+0)+0,w
  6112  03D9  00AE               	movwf	(?_sprintf)
  6113  03DA  084F               	movf	(dthc_lcd_controller@valueSetV+1),w	;volatile
  6114  03DB  01B0               	clrf	1+(?_sprintf)+01h
  6115  03DC  07B0               	addwf	1+(?_sprintf)+01h
  6116  03DD  084E               	movf	(dthc_lcd_controller@valueSetV),w	;volatile
  6117  03DE  01AF               	clrf	0+(?_sprintf)+01h
  6118  03DF  07AF               	addwf	0+(?_sprintf)+01h
  6119                           
  6120  03E0  30CE               	movlw	(_lcd_buf)&0ffh
  6121  03E1  120A  118A  20D2   	fcall	_sprintf
              120A  118A         
  6122                           	line	190
  6123                           	
  6124  03E6                     l9402:	
  6125                           ;dthc_lcd_controller.c: 190: print_LCD();
  6126  03E6  120A  118A  27DF   	fcall	_print_LCD
              120A  118A         
  6127                           	line	191
  6128                           ;dthc_lcd_controller.c: 191: break;
  6129  03EB  2CE4               	goto	l9450
  6130                           	line	192
  6131                           ;dthc_lcd_controller.c: 192: case LCD_EDIT_MODE:
  6132                           	
  6133  03EC                     l3429:	
  6134                           	line	193
  6135                           	
  6136  03EC                     l9404:	
  6137                           ;dthc_lcd_controller.c: 193: Clear_LCD();
  6138  03EC  160A  118A  20ED   	fcall	_Clear_LCD
              120A  118A         
  6139                           	line	194
  6140                           ;dthc_lcd_controller.c: 194: SetCursor( 0x00);
  6141  03F1  3000               	movlw	(0)
  6142  03F2  160A  118A  265A   	fcall	_SetCursor
              120A  118A         
  6143                           	line	195
  6144                           	
  6145  03F7                     l9406:	
  6146                           ;dthc_lcd_controller.c: 195: strcpy( lcd_buf, MainScreen3);
  6147  03F7  302C               	movlw	((_MainScreen3-__stringbase))&0ffh
  6148  03F8  1283               	bcf	status, 5	;RP0=0, select bank0
  6149  03F9  1303               	bcf	status, 6	;RP1=0, select bank0
  6150  03FA  00C0               	movwf	(??_LCD_SetMode+0)+0
  6151  03FB  0840               	movf	(??_LCD_SetMode+0)+0,w
  6152  03FC  00A0               	movwf	(?_strcpy)
  6153  03FD  30CE               	movlw	(_lcd_buf)&0ffh
  6154  03FE  160A  118A  21AC   	fcall	_strcpy
              120A  118A         
  6155                           	line	196
  6156                           	
  6157  0403                     l9408:	
  6158                           ;dthc_lcd_controller.c: 196: print_LCD();
  6159  0403  120A  118A  27DF   	fcall	_print_LCD
              120A  118A         
  6160                           	line	197
  6161                           ;dthc_lcd_controller.c: 197: SetCursor( 0x42);
  6162  0408  3042               	movlw	(042h)
  6163  0409  160A  118A  265A   	fcall	_SetCursor
              120A  118A         
  6164                           	line	198
  6165                           	
  6166  040E                     l9410:	
  6167                           ;dthc_lcd_controller.c: 198: strcpy( lcd_buf, MainScreen4[0]);
  6168  040E  1683               	bsf	status, 5	;RP0=1, select bank3
  6169  040F  1703               	bsf	status, 6	;RP1=1, select bank3
  6170  0410  0820               	movf	(_MainScreen4)^0180h,w
  6171  0411  1283               	bcf	status, 5	;RP0=0, select bank0
  6172  0412  1303               	bcf	status, 6	;RP1=0, select bank0
  6173  0413  00C0               	movwf	(??_LCD_SetMode+0)+0
  6174  0414  0840               	movf	(??_LCD_SetMode+0)+0,w
  6175  0415  00A0               	movwf	(?_strcpy)
  6176  0416  30CE               	movlw	(_lcd_buf)&0ffh
  6177  0417  160A  118A  21AC   	fcall	_strcpy
              120A  118A         
  6178                           	line	199
  6179                           	
  6180  041C                     l9412:	
  6181                           ;dthc_lcd_controller.c: 199: print_LCD();
  6182  041C  120A  118A  27DF   	fcall	_print_LCD
              120A  118A         
  6183                           	line	200
  6184                           ;dthc_lcd_controller.c: 200: SetCursor(0x56);
  6185  0421  3056               	movlw	(056h)
  6186  0422  160A  118A  265A   	fcall	_SetCursor
              120A  118A         
  6187                           	line	205
  6188                           ;dthc_lcd_controller.c: 205: break;
  6189  0427  2CE4               	goto	l9450
  6190                           	line	206
  6191                           ;dthc_lcd_controller.c: 206: case LCD_V_UD_MODE:
  6192                           	
  6193  0428                     l3430:	
  6194                           	line	207
  6195                           	
  6196  0428                     l9414:	
  6197                           ;dthc_lcd_controller.c: 207: Clear_LCD();
  6198  0428  160A  118A  20ED   	fcall	_Clear_LCD
              120A  118A         
  6199                           	line	208
  6200                           ;dthc_lcd_controller.c: 208: SetCursor( 0x00);
  6201  042D  3000               	movlw	(0)
  6202  042E  160A  118A  265A   	fcall	_SetCursor
              120A  118A         
  6203                           	line	209
  6204                           	
  6205  0433                     l9416:	
  6206                           ;dthc_lcd_controller.c: 209: strcpy ( lcd_buf, MainScreen2);
  6207  0433  303F               	movlw	((_MainScreen2-__stringbase))&0ffh
  6208  0434  1283               	bcf	status, 5	;RP0=0, select bank0
  6209  0435  1303               	bcf	status, 6	;RP1=0, select bank0
  6210  0436  00C0               	movwf	(??_LCD_SetMode+0)+0
  6211  0437  0840               	movf	(??_LCD_SetMode+0)+0,w
  6212  0438  00A0               	movwf	(?_strcpy)
  6213  0439  30CE               	movlw	(_lcd_buf)&0ffh
  6214  043A  160A  118A  21AC   	fcall	_strcpy
              120A  118A         
  6215                           	line	210
  6216                           	
  6217  043F                     l9418:	
  6218                           ;dthc_lcd_controller.c: 210: print_LCD();
  6219  043F  120A  118A  27DF   	fcall	_print_LCD
              120A  118A         
  6220                           	line	211
  6221                           ;dthc_lcd_controller.c: 211: break;
  6222  0444  2CE4               	goto	l9450
  6223                           	line	212
  6224                           ;dthc_lcd_controller.c: 212: case LCD_ARC_V_MODE:
  6225                           	
  6226  0445                     l3431:	
  6227                           	line	213
  6228                           	
  6229  0445                     l9420:	
  6230                           ;dthc_lcd_controller.c: 213: Clear_LCD();
  6231  0445  160A  118A  20ED   	fcall	_Clear_LCD
              120A  118A         
  6232                           	line	214
  6233                           ;dthc_lcd_controller.c: 214: SetCursor( 0x00);
  6234  044A  3000               	movlw	(0)
  6235  044B  160A  118A  265A   	fcall	_SetCursor
              120A  118A         
  6236                           	line	215
  6237                           	
  6238  0450                     l9422:	
  6239                           ;dthc_lcd_controller.c: 215: sprintf( lcd_buf, "MaxV:");
  6240  0450  30AE               	movlw	((STR_13-__stringbase))&0ffh
  6241  0451  1283               	bcf	status, 5	;RP0=0, select bank0
  6242  0452  1303               	bcf	status, 6	;RP1=0, select bank0
  6243  0453  00C0               	movwf	(??_LCD_SetMode+0)+0
  6244  0454  0840               	movf	(??_LCD_SetMode+0)+0,w
  6245  0455  00AE               	movwf	(?_sprintf)
  6246  0456  30CE               	movlw	(_lcd_buf)&0ffh
  6247  0457  120A  118A  20D2   	fcall	_sprintf
              120A  118A         
  6248                           	line	216
  6249                           	
  6250  045C                     l9424:	
  6251                           ;dthc_lcd_controller.c: 216: print_LCD();
  6252  045C  120A  118A  27DF   	fcall	_print_LCD
              120A  118A         
  6253                           	line	217
  6254                           	
  6255  0461                     l9426:	
  6256                           ;dthc_lcd_controller.c: 217: SetCursor( 0x40);
  6257  0461  3040               	movlw	(040h)
  6258  0462  160A  118A  265A   	fcall	_SetCursor
              120A  118A         
  6259                           	line	218
  6260                           	
  6261  0467                     l9428:	
  6262                           ;dthc_lcd_controller.c: 218: sprintf( lcd_buf, "MinV:");
  6263  0467  30A8               	movlw	((STR_14-__stringbase))&0ffh
  6264  0468  1283               	bcf	status, 5	;RP0=0, select bank0
  6265  0469  1303               	bcf	status, 6	;RP1=0, select bank0
  6266  046A  00C0               	movwf	(??_LCD_SetMode+0)+0
  6267  046B  0840               	movf	(??_LCD_SetMode+0)+0,w
  6268  046C  00AE               	movwf	(?_sprintf)
  6269  046D  30CE               	movlw	(_lcd_buf)&0ffh
  6270  046E  120A  118A  20D2   	fcall	_sprintf
              120A  118A         
  6271                           	line	219
  6272                           ;dthc_lcd_controller.c: 219: print_LCD();
  6273  0473  120A  118A  27DF   	fcall	_print_LCD
              120A  118A         
  6274                           	line	220
  6275                           ;dthc_lcd_controller.c: 220: break;
  6276  0478  2CE4               	goto	l9450
  6277                           	line	221
  6278                           ;dthc_lcd_controller.c: 221: case LCD_ARC_I_MODE:
  6279                           	
  6280  0479                     l3432:	
  6281                           	line	222
  6282                           	
  6283  0479                     l9430:	
  6284                           ;dthc_lcd_controller.c: 222: Clear_LCD();
  6285  0479  160A  118A  20ED   	fcall	_Clear_LCD
              120A  118A         
  6286                           	line	223
  6287                           ;dthc_lcd_controller.c: 223: SetCursor( 0x00);
  6288  047E  3000               	movlw	(0)
  6289  047F  160A  118A  265A   	fcall	_SetCursor
              120A  118A         
  6290                           	line	224
  6291                           	
  6292  0484                     l9432:	
  6293                           ;dthc_lcd_controller.c: 224: sprintf ( lcd_buf, "SetI:");
  6294  0484  30A2               	movlw	((STR_15-__stringbase))&0ffh
  6295  0485  1283               	bcf	status, 5	;RP0=0, select bank0
  6296  0486  1303               	bcf	status, 6	;RP1=0, select bank0
  6297  0487  00C0               	movwf	(??_LCD_SetMode+0)+0
  6298  0488  0840               	movf	(??_LCD_SetMode+0)+0,w
  6299  0489  00AE               	movwf	(?_sprintf)
  6300  048A  30CE               	movlw	(_lcd_buf)&0ffh
  6301  048B  120A  118A  20D2   	fcall	_sprintf
              120A  118A         
  6302                           	line	225
  6303                           	
  6304  0490                     l9434:	
  6305                           ;dthc_lcd_controller.c: 225: print_LCD();
  6306  0490  120A  118A  27DF   	fcall	_print_LCD
              120A  118A         
  6307                           	line	226
  6308                           ;dthc_lcd_controller.c: 226: break;
  6309  0495  2CE4               	goto	l9450
  6310                           	line	227
  6311                           ;dthc_lcd_controller.c: 227: case LCD_TEST_VIEW_MODE:
  6312                           	
  6313  0496                     l3433:	
  6314                           	line	228
  6315                           	
  6316  0496                     l9436:	
  6317                           ;dthc_lcd_controller.c: 228: Clear_LCD();
  6318  0496  160A  118A  20ED   	fcall	_Clear_LCD
              120A  118A         
  6319                           	line	229
  6320                           ;dthc_lcd_controller.c: 229: SetCursor( 0x00);
  6321  049B  3000               	movlw	(0)
  6322  049C  160A  118A  265A   	fcall	_SetCursor
              120A  118A         
  6323                           	line	230
  6324                           	
  6325  04A1                     l9438:	
  6326                           ;dthc_lcd_controller.c: 230: strcpy ( lcd_buf, MainScreen1);
  6327  04A1  3039               	movlw	((_MainScreen1-__stringbase))&0ffh
  6328  04A2  1283               	bcf	status, 5	;RP0=0, select bank0
  6329  04A3  1303               	bcf	status, 6	;RP1=0, select bank0
  6330  04A4  00C0               	movwf	(??_LCD_SetMode+0)+0
  6331  04A5  0840               	movf	(??_LCD_SetMode+0)+0,w
  6332  04A6  00A0               	movwf	(?_strcpy)
  6333  04A7  30CE               	movlw	(_lcd_buf)&0ffh
  6334  04A8  160A  118A  21AC   	fcall	_strcpy
              120A  118A         
  6335                           	line	231
  6336                           	
  6337  04AD                     l9440:	
  6338                           ;dthc_lcd_controller.c: 231: print_LCD();
  6339  04AD  120A  118A  27DF   	fcall	_print_LCD
              120A  118A         
  6340                           	line	232
  6341                           ;dthc_lcd_controller.c: 232: SetCursor( 0x40);
  6342  04B2  3040               	movlw	(040h)
  6343  04B3  160A  118A  265A   	fcall	_SetCursor
              120A  118A         
  6344                           	line	233
  6345                           	
  6346  04B8                     l9442:	
  6347                           ;dthc_lcd_controller.c: 233: sprintf( lcd_buf, "TipI:");
  6348  04B8  309C               	movlw	((STR_16-__stringbase))&0ffh
  6349  04B9  1283               	bcf	status, 5	;RP0=0, select bank0
  6350  04BA  1303               	bcf	status, 6	;RP1=0, select bank0
  6351  04BB  00C0               	movwf	(??_LCD_SetMode+0)+0
  6352  04BC  0840               	movf	(??_LCD_SetMode+0)+0,w
  6353  04BD  00AE               	movwf	(?_sprintf)
  6354  04BE  30CE               	movlw	(_lcd_buf)&0ffh
  6355  04BF  120A  118A  20D2   	fcall	_sprintf
              120A  118A         
  6356                           	line	234
  6357                           	
  6358  04C4                     l9444:	
  6359                           ;dthc_lcd_controller.c: 234: print_LCD();
  6360  04C4  120A  118A  27DF   	fcall	_print_LCD
              120A  118A         
  6361                           	line	235
  6362                           ;dthc_lcd_controller.c: 235: break;
  6363  04C9  2CE4               	goto	l9450
  6364                           	line	236
  6365                           	
  6366  04CA                     l9446:	
  6367                           ;dthc_lcd_controller.c: 236: }
  6368  04CA  2CE4               	goto	l9450
  6369                           	line	164
  6370                           	
  6371  04CB                     l3424:	
  6372                           	
  6373  04CB                     l9448:	
  6374  04CB  1283               	bcf	status, 5	;RP0=0, select bank0
  6375  04CC  1303               	bcf	status, 6	;RP1=0, select bank0
  6376  04CD  0841               	movf	(LCD_SetMode@mode),w
  6377                           	; Switch size 1, requested type "space"
  6378                           ; Number of cases is 7, Range of values is 0 to 6
  6379                           ; switch strategies available:
  6380                           ; Name         Instructions Cycles
  6381                           ; simple_byte           22    12 (average)
  6382                           ; direct_byte           29     8 (fixed)
  6383                           ; jumptable            260     6 (fixed)
  6384                           ; rangetable            11     6 (fixed)
  6385                           ; spacedrange           20     9 (fixed)
  6386                           ; locatedrange           7     3 (fixed)
  6387                           ;	Chosen strategy is simple_byte
  6388                           
  6389                           	opt asmopt_off
  6390  04CE  3A00               	xorlw	0^0	; case 0
  6391  04CF  1903               	skipnz
  6392  04D0  2C28               	goto	l9414
  6393  04D1  3A01               	xorlw	1^0	; case 1
  6394  04D2  1903               	skipnz
  6395  04D3  2C79               	goto	l9430
  6396  04D4  3A03               	xorlw	2^1	; case 2
  6397  04D5  1903               	skipnz
  6398  04D6  2C45               	goto	l9420
  6399  04D7  3A01               	xorlw	3^2	; case 3
  6400  04D8  1903               	skipnz
  6401  04D9  2B81               	goto	l9386
  6402  04DA  3A07               	xorlw	4^3	; case 4
  6403  04DB  1903               	skipnz
  6404  04DC  2C96               	goto	l9436
  6405  04DD  3A01               	xorlw	5^4	; case 5
  6406  04DE  1903               	skipnz
  6407  04DF  2B4D               	goto	l9376
  6408  04E0  3A03               	xorlw	6^5	; case 6
  6409  04E1  1903               	skipnz
  6410  04E2  2BEC               	goto	l9404
  6411  04E3  2CE4               	goto	l9450
  6412                           	opt asmopt_on
  6413                           
  6414                           	line	236
  6415                           	
  6416  04E4                     l3426:	
  6417                           	line	237
  6418                           	
  6419  04E4                     l9450:	
  6420                           ;dthc_lcd_controller.c: 237: LCD_Status = mode;
  6421  04E4  1283               	bcf	status, 5	;RP0=0, select bank0
  6422  04E5  1303               	bcf	status, 6	;RP1=0, select bank0
  6423  04E6  0841               	movf	(LCD_SetMode@mode),w
  6424  04E7  00C0               	movwf	(??_LCD_SetMode+0)+0
  6425  04E8  0840               	movf	(??_LCD_SetMode+0)+0,w
  6426  04E9  00E4               	movwf	(dthc_lcd_controller@LCD_Status)	;volatile
  6427                           	line	238
  6428                           	
  6429  04EA                     l3434:	
  6430  04EA  0008               	return
  6431                           	opt stack 0
  6432                           GLOBAL	__end_of_LCD_SetMode
  6433  04EB                     	__end_of_LCD_SetMode:
  6434 ;; =============== function _LCD_SetMode ends ============
  6435                           
  6436                           	signat	_LCD_SetMode,4216
  6437                           	global	_Init_DTHC_LCD
  6438                           psect	text1168,local,class=CODE,delta=2
  6439                           global __ptext1168
  6440  080A                     __ptext1168:
  6441                           
  6442 ;; *************** function _Init_DTHC_LCD *****************
  6443 ;; Defined at:
  6444 ;;		line 28 in file "C:\Users\Studio-Master\Desktop\Work\THC\27.05_DTHC\DisplayDTHC\dthc_lcd_controller.c"
  6445 ;; Parameters:    Size  Location     Type
  6446 ;;		None
  6447 ;; Auto vars:     Size  Location     Type
  6448 ;;  i               1   10[BANK0 ] unsigned char 
  6449 ;; Return value:  Size  Location     Type
  6450 ;;		None               void
  6451 ;; Registers used:
  6452 ;;		wreg, fsr0l, fsr0h, status,2, status,0, pclath, cstack
  6453 ;; Tracked objects:
  6454 ;;		On entry : 0/0
  6455 ;;		On exit  : 0/0
  6456 ;;		Unchanged: 0/0
  6457 ;; Data sizes:     COMMON   BANK0   BANK1   BANK3   BANK2
  6458 ;;      Params:         0       0       0       0       0
  6459 ;;      Locals:         0       1       0       0       0
  6460 ;;      Temps:          0       3       0       0       0
  6461 ;;      Totals:         0       4       0       0       0
  6462 ;;Total ram usage:        4 bytes
  6463 ;; Hardware stack levels used:    1
  6464 ;; Hardware stack levels required when called:    5
  6465 ;; This function calls:
  6466 ;;		_Initial_4bitLCD
  6467 ;;		_WriteCmdLCD
  6468 ;;		_WriteDataLCD
  6469 ;; This function is called by:
  6470 ;;		_main
  6471 ;; This function uses a non-reentrant model
  6472 ;;
  6473                           psect	text1168
  6474                           	file	"C:\Users\Studio-Master\Desktop\Work\THC\27.05_DTHC\DisplayDTHC\dthc_lcd_controlle
                                 r.c"
  6475                           	line	28
  6476                           	global	__size_of_Init_DTHC_LCD
  6477  0050                     	__size_of_Init_DTHC_LCD	equ	__end_of_Init_DTHC_LCD-_Init_DTHC_LCD
  6478                           	
  6479  080A                     _Init_DTHC_LCD:	
  6480                           	opt	stack 2
  6481                           ; Regs used in _Init_DTHC_LCD: [wreg-fsr0h+status,2+status,0+pclath+cstack]
  6482                           	line	31
  6483                           	
  6484  080A                     l9328:	
  6485                           ;dthc_lcd_controller.c: 29: unsigned char i;
  6486                           ;dthc_lcd_controller.c: 31: TRISBbits.TRISB3 = 0;
  6487  080A  1683               	bsf	status, 5	;RP0=1, select bank1
  6488  080B  1303               	bcf	status, 6	;RP1=0, select bank1
  6489  080C  1186               	bcf	(134)^080h,3	;volatile
  6490                           	line	32
  6491                           ;dthc_lcd_controller.c: 32: PORTBbits.RB3 = 0;
  6492  080D  1283               	bcf	status, 5	;RP0=0, select bank0
  6493  080E  1303               	bcf	status, 6	;RP1=0, select bank0
  6494  080F  1186               	bcf	(6),3	;volatile
  6495                           	line	33
  6496                           	
  6497  0810                     l9330:	
  6498                           ;dthc_lcd_controller.c: 33: _delay((unsigned long)((100)*(8000000UL/4000.0)));
  6499                           	opt asmopt_off
  6500  0810  3002               movlw  2
  6501  0811  00A9               movwf	((??_Init_DTHC_LCD+0)+0+2),f
  6502  0812  3003               movlw	3
  6503  0813  00A8               movwf	((??_Init_DTHC_LCD+0)+0+1),f
  6504  0814  30BA               	movlw	186
  6505  0815  00A7               movwf	((??_Init_DTHC_LCD+0)+0),f
  6506  0816                     u6727:
  6507  0816  0BA7               	decfsz	((??_Init_DTHC_LCD+0)+0),f
  6508  0817  2816               	goto	u6727
  6509  0818  0BA8               	decfsz	((??_Init_DTHC_LCD+0)+0+1),f
  6510  0819  2816               	goto	u6727
  6511  081A  0BA9               	decfsz	((??_Init_DTHC_LCD+0)+0+2),f
  6512  081B  2816               	goto	u6727
  6513                           opt asmopt_on
  6514                           
  6515                           	line	35
  6516                           	
  6517  081C                     l9332:	
  6518                           ;dthc_lcd_controller.c: 35: Initial_4bitLCD();
  6519  081C  160A  118A  25B6   	fcall	_Initial_4bitLCD
              120A  158A         
  6520                           	line	36
  6521                           	
  6522  0821                     l9334:	
  6523                           ;dthc_lcd_controller.c: 36: initMainScreen = 0;
  6524  0821  1283               	bcf	status, 5	;RP0=0, select bank0
  6525  0822  1303               	bcf	status, 6	;RP1=0, select bank0
  6526  0823  01E5               	clrf	(dthc_lcd_controller@initMainScreen)
  6527                           	line	39
  6528                           	
  6529  0824                     l9336:	
  6530                           ;dthc_lcd_controller.c: 39: WriteCmdLCD(0x48);
  6531  0824  3048               	movlw	(048h)
  6532  0825  160A  118A  2726   	fcall	_WriteCmdLCD
              120A  158A         
  6533                           	line	40
  6534                           	
  6535  082A                     l9338:	
  6536                           ;dthc_lcd_controller.c: 40: for (i=0; i<sizeof(CustomCharacters); i++)
  6537  082A  1283               	bcf	status, 5	;RP0=0, select bank0
  6538  082B  1303               	bcf	status, 6	;RP1=0, select bank0
  6539  082C  01AA               	clrf	(Init_DTHC_LCD@i)
  6540  082D  3010               	movlw	(010h)
  6541  082E  022A               	subwf	(Init_DTHC_LCD@i),w
  6542  082F  1C03               	skipc
  6543  0830  2832               	goto	u6051
  6544  0831  2833               	goto	u6050
  6545  0832                     u6051:
  6546  0832  2835               	goto	l9342
  6547  0833                     u6050:
  6548  0833  284C               	goto	l9348
  6549                           	
  6550  0834                     l9340:	
  6551  0834  284C               	goto	l9348
  6552                           	line	41
  6553                           	
  6554  0835                     l3396:	
  6555                           	
  6556  0835                     l9342:	
  6557                           ;dthc_lcd_controller.c: 41: WriteDataLCD(CustomCharacters[i]);
  6558  0835  082A               	movf	(Init_DTHC_LCD@i),w
  6559  0836  3E90               	addlw	_CustomCharacters&0ffh
  6560  0837  0084               	movwf	fsr0
  6561  0838  1783               	bsf	status, 7	;select IRP bank3
  6562  0839  0800               	movf	indf,w
  6563  083A  120A  118A  2703   	fcall	_WriteDataLCD
              120A  158A         
  6564                           	line	40
  6565                           	
  6566  083F                     l9344:	
  6567  083F  3001               	movlw	(01h)
  6568  0840  1283               	bcf	status, 5	;RP0=0, select bank0
  6569  0841  1303               	bcf	status, 6	;RP1=0, select bank0
  6570  0842  00A7               	movwf	(??_Init_DTHC_LCD+0)+0
  6571  0843  0827               	movf	(??_Init_DTHC_LCD+0)+0,w
  6572  0844  07AA               	addwf	(Init_DTHC_LCD@i),f
  6573                           	
  6574  0845                     l9346:	
  6575  0845  3010               	movlw	(010h)
  6576  0846  022A               	subwf	(Init_DTHC_LCD@i),w
  6577  0847  1C03               	skipc
  6578  0848  284A               	goto	u6061
  6579  0849  284B               	goto	u6060
  6580  084A                     u6061:
  6581  084A  2835               	goto	l9342
  6582  084B                     u6060:
  6583  084B  284C               	goto	l9348
  6584                           	
  6585  084C                     l3397:	
  6586                           	line	42
  6587                           	
  6588  084C                     l9348:	
  6589                           ;dthc_lcd_controller.c: 42: WriteCmdLCD(0x80);
  6590  084C  3080               	movlw	(080h)
  6591  084D  160A  118A  2726   	fcall	_WriteCmdLCD
              120A  158A         
  6592                           	line	43
  6593                           	
  6594  0852                     l9350:	
  6595                           ;dthc_lcd_controller.c: 43: countTimer = 0;
  6596  0852  1683               	bsf	status, 5	;RP0=1, select bank1
  6597  0853  1303               	bcf	status, 6	;RP1=0, select bank1
  6598  0854  01C8               	clrf	(_countTimer)^080h	;volatile
  6599                           	line	44
  6600                           	
  6601  0855                     l9352:	
  6602                           ;dthc_lcd_controller.c: 44: countUpdate = 0;
  6603  0855  01C9               	clrf	(_countUpdate)^080h
  6604                           	line	45
  6605                           	
  6606  0856                     l9354:	
  6607                           ;dthc_lcd_controller.c: 45: nameMode = 0;
  6608  0856  1283               	bcf	status, 5	;RP0=0, select bank0
  6609  0857  1303               	bcf	status, 6	;RP1=0, select bank0
  6610  0858  01E6               	clrf	(dthc_lcd_controller@nameMode)
  6611                           	line	46
  6612                           	
  6613  0859                     l3398:	
  6614  0859  0008               	return
  6615                           	opt stack 0
  6616                           GLOBAL	__end_of_Init_DTHC_LCD
  6617  085A                     	__end_of_Init_DTHC_LCD:
  6618 ;; =============== function _Init_DTHC_LCD ends ============
  6619                           
  6620                           	signat	_Init_DTHC_LCD,88
  6621                           	global	_print_LCD
  6622                           psect	text1169,local,class=CODE,delta=2
  6623                           global __ptext1169
  6624  07DF                     __ptext1169:
  6625                           
  6626 ;; *************** function _print_LCD *****************
  6627 ;; Defined at:
  6628 ;;		line 375 in file "C:\Users\Studio-Master\Desktop\Work\THC\27.05_DTHC\DisplayDTHC\c16_lcd_driver.c"
  6629 ;; Parameters:    Size  Location     Type
  6630 ;;		None
  6631 ;; Auto vars:     Size  Location     Type
  6632 ;;  p               1    5[BANK0 ] PTR unsigned char 
  6633 ;;		 -> lcd_buf(16), 
  6634 ;; Return value:  Size  Location     Type
  6635 ;;		None               void
  6636 ;; Registers used:
  6637 ;;		wreg, fsr0l, fsr0h, status,2, status,0, pclath, cstack
  6638 ;; Tracked objects:
  6639 ;;		On entry : 0/0
  6640 ;;		On exit  : 0/0
  6641 ;;		Unchanged: 0/0
  6642 ;; Data sizes:     COMMON   BANK0   BANK1   BANK3   BANK2
  6643 ;;      Params:         0       0       0       0       0
  6644 ;;      Locals:         0       1       0       0       0
  6645 ;;      Temps:          0       1       0       0       0
  6646 ;;      Totals:         0       2       0       0       0
  6647 ;;Total ram usage:        2 bytes
  6648 ;; Hardware stack levels used:    1
  6649 ;; Hardware stack levels required when called:    4
  6650 ;; This function calls:
  6651 ;;		_WriteDataLCD
  6652 ;; This function is called by:
  6653 ;;		_LCD_Update
  6654 ;;		_LCD_Repaint
  6655 ;;		_LCD_SetMode
  6656 ;;		_LCD_SetEditValue
  6657 ;; This function uses a non-reentrant model
  6658 ;;
  6659                           psect	text1169
  6660                           	file	"C:\Users\Studio-Master\Desktop\Work\THC\27.05_DTHC\DisplayDTHC\c16_lcd_driver.c"
  6661                           	line	375
  6662                           	global	__size_of_print_LCD
  6663  0020                     	__size_of_print_LCD	equ	__end_of_print_LCD-_print_LCD
  6664                           	
  6665  07DF                     _print_LCD:	
  6666                           	opt	stack 2
  6667                           ; Regs used in _print_LCD: [wreg-fsr0h+status,2+status,0+pclath+cstack]
  6668                           	line	377
  6669                           	
  6670  07DF                     l9320:	
  6671                           ;c16_lcd_driver.c: 376: char *p;
  6672                           ;c16_lcd_driver.c: 377: p = lcd_buf;
  6673  07DF  30CE               	movlw	(_lcd_buf)&0ffh
  6674  07E0  1283               	bcf	status, 5	;RP0=0, select bank0
  6675  07E1  1303               	bcf	status, 6	;RP1=0, select bank0
  6676  07E2  00A4               	movwf	(??_print_LCD+0)+0
  6677  07E3  0824               	movf	(??_print_LCD+0)+0,w
  6678  07E4  00A5               	movwf	(print_LCD@p)
  6679  07E5  2FE6               	goto	l9322
  6680                           	line	379
  6681                           ;c16_lcd_driver.c: 379: do
  6682                           	
  6683  07E6                     l2295:	
  6684                           	line	381
  6685                           	
  6686  07E6                     l9322:	
  6687                           ;c16_lcd_driver.c: 380: {
  6688                           ;c16_lcd_driver.c: 381: WriteDataLCD(*p);
  6689  07E6  0825               	movf	(print_LCD@p),w
  6690  07E7  0084               	movwf	fsr0
  6691  07E8  1383               	bcf	status, 7	;select IRP bank0
  6692  07E9  0800               	movf	indf,w
  6693  07EA  120A  118A  2703   	fcall	_WriteDataLCD
              120A  118A         
  6694                           	line	382
  6695                           	
  6696  07EF                     l9324:	
  6697                           ;c16_lcd_driver.c: 382: p++;
  6698  07EF  3001               	movlw	(01h)
  6699  07F0  1283               	bcf	status, 5	;RP0=0, select bank0
  6700  07F1  1303               	bcf	status, 6	;RP1=0, select bank0
  6701  07F2  00A4               	movwf	(??_print_LCD+0)+0
  6702  07F3  0824               	movf	(??_print_LCD+0)+0,w
  6703  07F4  07A5               	addwf	(print_LCD@p),f
  6704                           	line	384
  6705                           	
  6706  07F5                     l9326:	
  6707                           ;c16_lcd_driver.c: 383: }
  6708                           ;c16_lcd_driver.c: 384: while(*p != '\0');
  6709  07F5  0825               	movf	(print_LCD@p),w
  6710  07F6  0084               	movwf	fsr0
  6711  07F7  1383               	bcf	status, 7	;select IRP bank0
  6712  07F8  0880               	movf	indf,f
  6713  07F9  1D03               	skipz
  6714  07FA  2FFC               	goto	u6041
  6715  07FB  2FFD               	goto	u6040
  6716  07FC                     u6041:
  6717  07FC  2FE6               	goto	l9322
  6718  07FD                     u6040:
  6719  07FD  2FFE               	goto	l2297
  6720                           	
  6721  07FE                     l2296:	
  6722                           	line	387
  6723                           ;c16_lcd_driver.c: 386: return;
  6724                           	
  6725  07FE                     l2297:	
  6726  07FE  0008               	return
  6727                           	opt stack 0
  6728                           GLOBAL	__end_of_print_LCD
  6729  07FF                     	__end_of_print_LCD:
  6730 ;; =============== function _print_LCD ends ============
  6731                           
  6732                           	signat	_print_LCD,88
  6733                           	global	_Clear_LCD
  6734                           psect	text1170,local,class=CODE,delta=2
  6735                           global __ptext1170
  6736  10ED                     __ptext1170:
  6737                           
  6738 ;; *************** function _Clear_LCD *****************
  6739 ;; Defined at:
  6740 ;;		line 211 in file "C:\Users\Studio-Master\Desktop\Work\THC\27.05_DTHC\DisplayDTHC\c16_lcd_driver.c"
  6741 ;; Parameters:    Size  Location     Type
  6742 ;;		None
  6743 ;; Auto vars:     Size  Location     Type
  6744 ;;		None
  6745 ;; Return value:  Size  Location     Type
  6746 ;;		None               void
  6747 ;; Registers used:
  6748 ;;		wreg, status,2, status,0, pclath, cstack
  6749 ;; Tracked objects:
  6750 ;;		On entry : 0/0
  6751 ;;		On exit  : 0/0
  6752 ;;		Unchanged: 0/0
  6753 ;; Data sizes:     COMMON   BANK0   BANK1   BANK3   BANK2
  6754 ;;      Params:         0       0       0       0       0
  6755 ;;      Locals:         0       0       0       0       0
  6756 ;;      Temps:          0       0       0       0       0
  6757 ;;      Totals:         0       0       0       0       0
  6758 ;;Total ram usage:        0 bytes
  6759 ;; Hardware stack levels used:    1
  6760 ;; Hardware stack levels required when called:    4
  6761 ;; This function calls:
  6762 ;;		_WriteCmdLCD
  6763 ;;		_Lcd_Special_Delay
  6764 ;; This function is called by:
  6765 ;;		_LCD_Repaint
  6766 ;;		_LCD_SetMode
  6767 ;; This function uses a non-reentrant model
  6768 ;;
  6769                           psect	text1170
  6770                           	file	"C:\Users\Studio-Master\Desktop\Work\THC\27.05_DTHC\DisplayDTHC\c16_lcd_driver.c"
  6771                           	line	211
  6772                           	global	__size_of_Clear_LCD
  6773  000C                     	__size_of_Clear_LCD	equ	__end_of_Clear_LCD-_Clear_LCD
  6774                           	
  6775  10ED                     _Clear_LCD:	
  6776                           	opt	stack 2
  6777                           ; Regs used in _Clear_LCD: [wreg+status,2+status,0+pclath+cstack]
  6778                           	line	212
  6779                           	
  6780  10ED                     l9318:	
  6781                           ;c16_lcd_driver.c: 212: WriteCmdLCD(0x01);
  6782  10ED  3001               	movlw	(01h)
  6783  10EE  160A  118A  2726   	fcall	_WriteCmdLCD
              160A  118A         
  6784                           	line	213
  6785                           ;c16_lcd_driver.c: 213: Lcd_Special_Delay();
  6786  10F3  160A  118A  20E1   	fcall	_Lcd_Special_Delay
              160A  118A         
  6787                           	line	214
  6788                           	
  6789  10F8                     l2268:	
  6790  10F8  0008               	return
  6791                           	opt stack 0
  6792                           GLOBAL	__end_of_Clear_LCD
  6793  10F9                     	__end_of_Clear_LCD:
  6794 ;; =============== function _Clear_LCD ends ============
  6795                           
  6796                           	signat	_Clear_LCD,88
  6797                           	global	_Enable_Blink_LCD
  6798                           psect	text1171,local,class=CODE,delta=2
  6799                           global __ptext1171
  6800  1192                     __ptext1171:
  6801                           
  6802 ;; *************** function _Enable_Blink_LCD *****************
  6803 ;; Defined at:
  6804 ;;		line 198 in file "C:\Users\Studio-Master\Desktop\Work\THC\27.05_DTHC\DisplayDTHC\c16_lcd_driver.c"
  6805 ;; Parameters:    Size  Location     Type
  6806 ;;  enable          1    wreg     unsigned char 
  6807 ;; Auto vars:     Size  Location     Type
  6808 ;;  enable          1    4[BANK0 ] unsigned char 
  6809 ;; Return value:  Size  Location     Type
  6810 ;;		None               void
  6811 ;; Registers used:
  6812 ;;		wreg, status,2, status,0, pclath, cstack
  6813 ;; Tracked objects:
  6814 ;;		On entry : 0/0
  6815 ;;		On exit  : 0/0
  6816 ;;		Unchanged: 0/0
  6817 ;; Data sizes:     COMMON   BANK0   BANK1   BANK3   BANK2
  6818 ;;      Params:         0       0       0       0       0
  6819 ;;      Locals:         0       1       0       0       0
  6820 ;;      Temps:          0       0       0       0       0
  6821 ;;      Totals:         0       1       0       0       0
  6822 ;;Total ram usage:        1 bytes
  6823 ;; Hardware stack levels used:    1
  6824 ;; Hardware stack levels required when called:    4
  6825 ;; This function calls:
  6826 ;;		_WriteCmdLCD
  6827 ;;		_Lcd_Special_Delay
  6828 ;; This function is called by:
  6829 ;;		_LCD_Repaint
  6830 ;;		_LCD_SetMode
  6831 ;; This function uses a non-reentrant model
  6832 ;;
  6833                           psect	text1171
  6834                           	file	"C:\Users\Studio-Master\Desktop\Work\THC\27.05_DTHC\DisplayDTHC\c16_lcd_driver.c"
  6835                           	line	198
  6836                           	global	__size_of_Enable_Blink_LCD
  6837  001A                     	__size_of_Enable_Blink_LCD	equ	__end_of_Enable_Blink_LCD-_Enable_Blink_LCD
  6838                           	
  6839  1192                     _Enable_Blink_LCD:	
  6840                           	opt	stack 2
  6841                           ; Regs used in _Enable_Blink_LCD: [wreg+status,2+status,0+pclath+cstack]
  6842                           ;Enable_Blink_LCD@enable stored from wreg
  6843  1192  1283               	bcf	status, 5	;RP0=0, select bank0
  6844  1193  1303               	bcf	status, 6	;RP1=0, select bank0
  6845  1194  00A4               	movwf	(Enable_Blink_LCD@enable)
  6846                           	line	199
  6847                           	
  6848  1195                     l9312:	
  6849                           ;c16_lcd_driver.c: 199: if (enable) {
  6850  1195  0824               	movf	(Enable_Blink_LCD@enable),w
  6851  1196  1D03               	skipz
  6852  1197  2999               	goto	u6030
  6853  1198  29A0               	goto	l9316
  6854  1199                     u6030:
  6855                           	line	200
  6856                           	
  6857  1199                     l9314:	
  6858                           ;c16_lcd_driver.c: 200: WriteCmdLCD(0x0E);
  6859  1199  300E               	movlw	(0Eh)
  6860  119A  160A  118A  2726   	fcall	_WriteCmdLCD
              160A  118A         
  6861                           	line	201
  6862                           ;c16_lcd_driver.c: 201: }
  6863  119F  29A6               	goto	l2264
  6864                           	line	202
  6865                           	
  6866  11A0                     l2263:	
  6867                           	line	203
  6868                           	
  6869  11A0                     l9316:	
  6870                           ;c16_lcd_driver.c: 202: else {
  6871                           ;c16_lcd_driver.c: 203: WriteCmdLCD(0x0C);
  6872  11A0  300C               	movlw	(0Ch)
  6873  11A1  160A  118A  2726   	fcall	_WriteCmdLCD
              160A  118A         
  6874                           	line	204
  6875                           	
  6876  11A6                     l2264:	
  6877                           	line	205
  6878                           ;c16_lcd_driver.c: 204: }
  6879                           ;c16_lcd_driver.c: 205: Lcd_Special_Delay();
  6880  11A6  160A  118A  20E1   	fcall	_Lcd_Special_Delay
              160A  118A         
  6881                           	line	206
  6882                           	
  6883  11AB                     l2265:	
  6884  11AB  0008               	return
  6885                           	opt stack 0
  6886                           GLOBAL	__end_of_Enable_Blink_LCD
  6887  11AC                     	__end_of_Enable_Blink_LCD:
  6888 ;; =============== function _Enable_Blink_LCD ends ============
  6889                           
  6890                           	signat	_Enable_Blink_LCD,4216
  6891                           	global	_Initial_4bitLCD
  6892                           psect	text1172,local,class=CODE,delta=2
  6893                           global __ptext1172
  6894  15B6                     __ptext1172:
  6895                           
  6896 ;; *************** function _Initial_4bitLCD *****************
  6897 ;; Defined at:
  6898 ;;		line 123 in file "C:\Users\Studio-Master\Desktop\Work\THC\27.05_DTHC\DisplayDTHC\c16_lcd_driver.c"
  6899 ;; Parameters:    Size  Location     Type
  6900 ;;		None
  6901 ;; Auto vars:     Size  Location     Type
  6902 ;;		None
  6903 ;; Return value:  Size  Location     Type
  6904 ;;		None               void
  6905 ;; Registers used:
  6906 ;;		wreg, status,2, status,0, pclath, cstack
  6907 ;; Tracked objects:
  6908 ;;		On entry : 0/0
  6909 ;;		On exit  : 0/0
  6910 ;;		Unchanged: 0/0
  6911 ;; Data sizes:     COMMON   BANK0   BANK1   BANK3   BANK2
  6912 ;;      Params:         0       0       0       0       0
  6913 ;;      Locals:         0       0       0       0       0
  6914 ;;      Temps:          0       3       0       0       0
  6915 ;;      Totals:         0       3       0       0       0
  6916 ;;Total ram usage:        3 bytes
  6917 ;; Hardware stack levels used:    1
  6918 ;; Hardware stack levels required when called:    4
  6919 ;; This function calls:
  6920 ;;		_Lcd_Init_Delay
  6921 ;;		_Delay_tW_LCD
  6922 ;;		_Lcd_Special_Delay
  6923 ;;		_WriteCmdLCD
  6924 ;; This function is called by:
  6925 ;;		_Init_DTHC_LCD
  6926 ;; This function uses a non-reentrant model
  6927 ;;
  6928                           psect	text1172
  6929                           	file	"C:\Users\Studio-Master\Desktop\Work\THC\27.05_DTHC\DisplayDTHC\c16_lcd_driver.c"
  6930                           	line	123
  6931                           	global	__size_of_Initial_4bitLCD
  6932  00A4                     	__size_of_Initial_4bitLCD	equ	__end_of_Initial_4bitLCD-_Initial_4bitLCD
  6933                           	
  6934  15B6                     _Initial_4bitLCD:	
  6935                           	opt	stack 2
  6936                           ; Regs used in _Initial_4bitLCD: [wreg+status,2+status,0+pclath+cstack]
  6937                           	line	124
  6938                           	
  6939  15B6                     l9198:	
  6940                           ;c16_lcd_driver.c: 124: ANSELH = 0;
  6941  15B6  1683               	bsf	status, 5	;RP0=1, select bank3
  6942  15B7  1703               	bsf	status, 6	;RP1=1, select bank3
  6943  15B8  0189               	clrf	(393)^0180h	;volatile
  6944                           	line	125
  6945                           	
  6946  15B9                     l9200:	
  6947                           ;c16_lcd_driver.c: 125: TRISDbits.TRISD7 = 0;
  6948  15B9  1683               	bsf	status, 5	;RP0=1, select bank1
  6949  15BA  1303               	bcf	status, 6	;RP1=0, select bank1
  6950  15BB  1388               	bcf	(136)^080h,7	;volatile
  6951                           	line	126
  6952                           	
  6953  15BC                     l9202:	
  6954                           ;c16_lcd_driver.c: 126: TRISDbits.TRISD6 = 0;
  6955  15BC  1308               	bcf	(136)^080h,6	;volatile
  6956                           	line	127
  6957                           	
  6958  15BD                     l9204:	
  6959                           ;c16_lcd_driver.c: 127: TRISDbits.TRISD5 = 0;
  6960  15BD  1288               	bcf	(136)^080h,5	;volatile
  6961                           	line	128
  6962                           	
  6963  15BE                     l9206:	
  6964                           ;c16_lcd_driver.c: 128: TRISDbits.TRISD4 = 0;
  6965  15BE  1208               	bcf	(136)^080h,4	;volatile
  6966                           	line	129
  6967                           	
  6968  15BF                     l9208:	
  6969                           ;c16_lcd_driver.c: 129: TRISBbits.TRISB2 = 0;
  6970  15BF  1106               	bcf	(134)^080h,2	;volatile
  6971                           	line	130
  6972                           	
  6973  15C0                     l9210:	
  6974                           ;c16_lcd_driver.c: 130: TRISBbits.TRISB1 = 0;
  6975  15C0  1086               	bcf	(134)^080h,1	;volatile
  6976                           	line	131
  6977                           	
  6978  15C1                     l9212:	
  6979                           ;c16_lcd_driver.c: 131: TRISBbits.TRISB0 = 0;
  6980  15C1  1006               	bcf	(134)^080h,0	;volatile
  6981                           	line	132
  6982                           	
  6983  15C2                     l9214:	
  6984                           ;c16_lcd_driver.c: 132: PORTBbits.RB2 = 0;
  6985  15C2  1283               	bcf	status, 5	;RP0=0, select bank0
  6986  15C3  1303               	bcf	status, 6	;RP1=0, select bank0
  6987  15C4  1106               	bcf	(6),2	;volatile
  6988                           	line	133
  6989                           	
  6990  15C5                     l9216:	
  6991                           ;c16_lcd_driver.c: 133: PORTBbits.RB1 = 0;
  6992  15C5  1086               	bcf	(6),1	;volatile
  6993                           	line	134
  6994                           	
  6995  15C6                     l9218:	
  6996                           ;c16_lcd_driver.c: 134: PORTBbits.RB0 = 0;
  6997  15C6  1006               	bcf	(6),0	;volatile
  6998                           	line	136
  6999                           	
  7000  15C7                     l9220:	
  7001                           ;c16_lcd_driver.c: 136: _delay((unsigned long)((100)*(8000000UL/4000.0)));
  7002                           	opt asmopt_off
  7003  15C7  3002               movlw  2
  7004  15C8  00A6               movwf	((??_Initial_4bitLCD+0)+0+2),f
  7005  15C9  3003               movlw	3
  7006  15CA  00A5               movwf	((??_Initial_4bitLCD+0)+0+1),f
  7007  15CB  30BA               	movlw	186
  7008  15CC  00A4               movwf	((??_Initial_4bitLCD+0)+0),f
  7009  15CD                     u6737:
  7010  15CD  0BA4               	decfsz	((??_Initial_4bitLCD+0)+0),f
  7011  15CE  2DCD               	goto	u6737
  7012  15CF  0BA5               	decfsz	((??_Initial_4bitLCD+0)+0+1),f
  7013  15D0  2DCD               	goto	u6737
  7014  15D1  0BA6               	decfsz	((??_Initial_4bitLCD+0)+0+2),f
  7015  15D2  2DCD               	goto	u6737
  7016                           opt asmopt_on
  7017                           
  7018                           	line	138
  7019                           	
  7020  15D3                     l9222:	
  7021                           ;c16_lcd_driver.c: 138: PORTDbits.RD7 = 1;
  7022  15D3  1283               	bcf	status, 5	;RP0=0, select bank0
  7023  15D4  1303               	bcf	status, 6	;RP1=0, select bank0
  7024  15D5  1788               	bsf	(8),7	;volatile
  7025                           	line	139
  7026                           	
  7027  15D6                     l9224:	
  7028                           ;c16_lcd_driver.c: 139: PORTDbits.RD6 = 1;
  7029  15D6  1708               	bsf	(8),6	;volatile
  7030                           	line	140
  7031                           	
  7032  15D7                     l9226:	
  7033                           ;c16_lcd_driver.c: 140: PORTDbits.RD5 = 0;
  7034  15D7  1288               	bcf	(8),5	;volatile
  7035                           	line	141
  7036                           	
  7037  15D8                     l9228:	
  7038                           ;c16_lcd_driver.c: 141: PORTDbits.RD4 = 0;
  7039  15D8  1208               	bcf	(8),4	;volatile
  7040                           	line	142
  7041                           	
  7042  15D9                     l9230:	
  7043                           ;c16_lcd_driver.c: 142: PORTBbits.RB2 = 0;
  7044  15D9  1106               	bcf	(6),2	;volatile
  7045                           	line	143
  7046                           	
  7047  15DA                     l9232:	
  7048                           ;c16_lcd_driver.c: 143: PORTBbits.RB1 = 0;
  7049  15DA  1086               	bcf	(6),1	;volatile
  7050                           	line	144
  7051                           	
  7052  15DB                     l9234:	
  7053                           ;c16_lcd_driver.c: 144: PORTBbits.RB0 = 0;
  7054  15DB  1006               	bcf	(6),0	;volatile
  7055                           	line	147
  7056                           	
  7057  15DC                     l9236:	
  7058                           ;c16_lcd_driver.c: 147: Lcd_Init_Delay();
  7059  15DC  160A  118A  20D5   	fcall	_Lcd_Init_Delay
              160A  118A         
  7060                           	line	148
  7061                           	
  7062  15E1                     l9238:	
  7063                           ;c16_lcd_driver.c: 148: Lcd_Init_Delay();
  7064  15E1  160A  118A  20D5   	fcall	_Lcd_Init_Delay
              160A  118A         
  7065                           	line	150
  7066                           	
  7067  15E6                     l9240:	
  7068                           ;c16_lcd_driver.c: 150: PORTDbits.RD7 = 1;
  7069  15E6  1283               	bcf	status, 5	;RP0=0, select bank0
  7070  15E7  1303               	bcf	status, 6	;RP1=0, select bank0
  7071  15E8  1788               	bsf	(8),7	;volatile
  7072                           	line	151
  7073                           	
  7074  15E9                     l9242:	
  7075                           ;c16_lcd_driver.c: 151: PORTDbits.RD6 = 1;
  7076  15E9  1708               	bsf	(8),6	;volatile
  7077                           	line	152
  7078                           	
  7079  15EA                     l9244:	
  7080                           ;c16_lcd_driver.c: 152: PORTDbits.RD5 = 0;
  7081  15EA  1288               	bcf	(8),5	;volatile
  7082                           	line	153
  7083                           	
  7084  15EB                     l9246:	
  7085                           ;c16_lcd_driver.c: 153: PORTDbits.RD4 = 0;
  7086  15EB  1208               	bcf	(8),4	;volatile
  7087                           	line	154
  7088                           	
  7089  15EC                     l9248:	
  7090                           ;c16_lcd_driver.c: 154: PORTBbits.RB2 = 0;
  7091  15EC  1106               	bcf	(6),2	;volatile
  7092                           	line	155
  7093                           	
  7094  15ED                     l9250:	
  7095                           ;c16_lcd_driver.c: 155: PORTBbits.RB1 = 0;
  7096  15ED  1086               	bcf	(6),1	;volatile
  7097                           	line	156
  7098                           	
  7099  15EE                     l9252:	
  7100                           ;c16_lcd_driver.c: 156: PORTBbits.RB0 = 1;
  7101  15EE  1406               	bsf	(6),0	;volatile
  7102                           	line	157
  7103                           	
  7104  15EF                     l9254:	
  7105                           ;c16_lcd_driver.c: 157: Delay_tW_LCD();
  7106  15EF  160A  118A  20A8   	fcall	_Delay_tW_LCD
              160A  118A         
  7107                           	line	158
  7108                           	
  7109  15F4                     l9256:	
  7110                           ;c16_lcd_driver.c: 158: PORTBbits.RB0 = 0;
  7111  15F4  1283               	bcf	status, 5	;RP0=0, select bank0
  7112  15F5  1303               	bcf	status, 6	;RP1=0, select bank0
  7113  15F6  1006               	bcf	(6),0	;volatile
  7114                           	line	161
  7115                           	
  7116  15F7                     l9258:	
  7117                           ;c16_lcd_driver.c: 161: Lcd_Special_Delay();
  7118  15F7  160A  118A  20E1   	fcall	_Lcd_Special_Delay
              160A  118A         
  7119                           	line	162
  7120                           	
  7121  15FC                     l9260:	
  7122                           ;c16_lcd_driver.c: 162: Lcd_Special_Delay();
  7123  15FC  160A  118A  20E1   	fcall	_Lcd_Special_Delay
              160A  118A         
  7124                           	line	163
  7125                           	
  7126  1601                     l9262:	
  7127                           ;c16_lcd_driver.c: 163: Lcd_Special_Delay();
  7128  1601  160A  118A  20E1   	fcall	_Lcd_Special_Delay
              160A  118A         
  7129                           	line	165
  7130                           	
  7131  1606                     l9264:	
  7132                           ;c16_lcd_driver.c: 165: PORTDbits.RD7 = 1;
  7133  1606  1283               	bcf	status, 5	;RP0=0, select bank0
  7134  1607  1303               	bcf	status, 6	;RP1=0, select bank0
  7135  1608  1788               	bsf	(8),7	;volatile
  7136                           	line	166
  7137                           	
  7138  1609                     l9266:	
  7139                           ;c16_lcd_driver.c: 166: PORTDbits.RD6 = 1;
  7140  1609  1708               	bsf	(8),6	;volatile
  7141                           	line	167
  7142                           	
  7143  160A                     l9268:	
  7144                           ;c16_lcd_driver.c: 167: PORTDbits.RD5 = 0;
  7145  160A  1288               	bcf	(8),5	;volatile
  7146                           	line	168
  7147                           	
  7148  160B                     l9270:	
  7149                           ;c16_lcd_driver.c: 168: PORTDbits.RD4 = 0;
  7150  160B  1208               	bcf	(8),4	;volatile
  7151                           	line	169
  7152                           	
  7153  160C                     l9272:	
  7154                           ;c16_lcd_driver.c: 169: PORTBbits.RB2 = 0;
  7155  160C  1106               	bcf	(6),2	;volatile
  7156                           	line	170
  7157                           	
  7158  160D                     l9274:	
  7159                           ;c16_lcd_driver.c: 170: PORTBbits.RB1 = 0;
  7160  160D  1086               	bcf	(6),1	;volatile
  7161                           	line	171
  7162                           	
  7163  160E                     l9276:	
  7164                           ;c16_lcd_driver.c: 171: PORTBbits.RB0 = 1;
  7165  160E  1406               	bsf	(6),0	;volatile
  7166                           	line	172
  7167                           	
  7168  160F                     l9278:	
  7169                           ;c16_lcd_driver.c: 172: Delay_tW_LCD();
  7170  160F  160A  118A  20A8   	fcall	_Delay_tW_LCD
              160A  118A         
  7171                           	line	173
  7172                           	
  7173  1614                     l9280:	
  7174                           ;c16_lcd_driver.c: 173: PORTBbits.RB0 = 0;
  7175  1614  1283               	bcf	status, 5	;RP0=0, select bank0
  7176  1615  1303               	bcf	status, 6	;RP1=0, select bank0
  7177  1616  1006               	bcf	(6),0	;volatile
  7178                           	line	176
  7179                           	
  7180  1617                     l9282:	
  7181                           ;c16_lcd_driver.c: 176: Lcd_Special_Delay();
  7182  1617  160A  118A  20E1   	fcall	_Lcd_Special_Delay
              160A  118A         
  7183                           	line	177
  7184                           	
  7185  161C                     l9284:	
  7186                           ;c16_lcd_driver.c: 177: TRISDbits.TRISD7 = 1;
  7187  161C  1683               	bsf	status, 5	;RP0=1, select bank1
  7188  161D  1303               	bcf	status, 6	;RP1=0, select bank1
  7189  161E  1788               	bsf	(136)^080h,7	;volatile
  7190                           	line	178
  7191                           	
  7192  161F                     l9286:	
  7193                           ;c16_lcd_driver.c: 178: TRISDbits.TRISD6 = 1;
  7194  161F  1708               	bsf	(136)^080h,6	;volatile
  7195                           	line	179
  7196                           	
  7197  1620                     l9288:	
  7198                           ;c16_lcd_driver.c: 179: TRISDbits.TRISD5 = 1;
  7199  1620  1688               	bsf	(136)^080h,5	;volatile
  7200                           	line	180
  7201                           	
  7202  1621                     l9290:	
  7203                           ;c16_lcd_driver.c: 180: TRISDbits.TRISD4 = 1;
  7204  1621  1608               	bsf	(136)^080h,4	;volatile
  7205                           	line	181
  7206                           	
  7207  1622                     l9292:	
  7208                           ;c16_lcd_driver.c: 181: Delay_tW_LCD();
  7209  1622  160A  118A  20A8   	fcall	_Delay_tW_LCD
              160A  118A         
  7210                           	line	183
  7211                           	
  7212  1627                     l9294:	
  7213                           ;c16_lcd_driver.c: 183: WriteCmdLCD(0x32);
  7214  1627  3032               	movlw	(032h)
  7215  1628  160A  118A  2726   	fcall	_WriteCmdLCD
              160A  118A         
  7216                           	line	184
  7217                           	
  7218  162D                     l9296:	
  7219                           ;c16_lcd_driver.c: 184: Lcd_Special_Delay();
  7220  162D  160A  118A  20E1   	fcall	_Lcd_Special_Delay
              160A  118A         
  7221                           	line	185
  7222                           	
  7223  1632                     l9298:	
  7224                           ;c16_lcd_driver.c: 185: WriteCmdLCD(0x28);
  7225  1632  3028               	movlw	(028h)
  7226  1633  160A  118A  2726   	fcall	_WriteCmdLCD
              160A  118A         
  7227                           	line	186
  7228                           	
  7229  1638                     l9300:	
  7230                           ;c16_lcd_driver.c: 186: Lcd_Special_Delay();
  7231  1638  160A  118A  20E1   	fcall	_Lcd_Special_Delay
              160A  118A         
  7232                           	line	187
  7233                           	
  7234  163D                     l9302:	
  7235                           ;c16_lcd_driver.c: 187: WriteCmdLCD(0x0C);
  7236  163D  300C               	movlw	(0Ch)
  7237  163E  160A  118A  2726   	fcall	_WriteCmdLCD
              160A  118A         
  7238                           	line	188
  7239                           	
  7240  1643                     l9304:	
  7241                           ;c16_lcd_driver.c: 188: Lcd_Special_Delay();
  7242  1643  160A  118A  20E1   	fcall	_Lcd_Special_Delay
              160A  118A         
  7243                           	line	189
  7244                           	
  7245  1648                     l9306:	
  7246                           ;c16_lcd_driver.c: 189: WriteCmdLCD(0x06);
  7247  1648  3006               	movlw	(06h)
  7248  1649  160A  118A  2726   	fcall	_WriteCmdLCD
              160A  118A         
  7249                           	line	190
  7250                           	
  7251  164E                     l9308:	
  7252                           ;c16_lcd_driver.c: 190: Lcd_Special_Delay();
  7253  164E  160A  118A  20E1   	fcall	_Lcd_Special_Delay
              160A  118A         
  7254                           	line	191
  7255                           	
  7256  1653                     l9310:	
  7257                           ;c16_lcd_driver.c: 191: WriteCmdLCD(0x01);
  7258  1653  3001               	movlw	(01h)
  7259  1654  160A  118A  2726   	fcall	_WriteCmdLCD
              160A  118A         
  7260                           	line	193
  7261                           	
  7262  1659                     l2260:	
  7263  1659  0008               	return
  7264                           	opt stack 0
  7265                           GLOBAL	__end_of_Initial_4bitLCD
  7266  165A                     	__end_of_Initial_4bitLCD:
  7267 ;; =============== function _Initial_4bitLCD ends ============
  7268                           
  7269                           	signat	_Initial_4bitLCD,88
  7270                           	global	_WriteDataLCD
  7271                           psect	text1173,local,class=CODE,delta=2
  7272                           global __ptext1173
  7273  0703                     __ptext1173:
  7274                           
  7275 ;; *************** function _WriteDataLCD *****************
  7276 ;; Defined at:
  7277 ;;		line 298 in file "C:\Users\Studio-Master\Desktop\Work\THC\27.05_DTHC\DisplayDTHC\c16_lcd_driver.c"
  7278 ;; Parameters:    Size  Location     Type
  7279 ;;  data            1    wreg     unsigned char 
  7280 ;; Auto vars:     Size  Location     Type
  7281 ;;  data            1    3[BANK0 ] unsigned char 
  7282 ;; Return value:  Size  Location     Type
  7283 ;;		None               void
  7284 ;; Registers used:
  7285 ;;		wreg, status,2, status,0, pclath, cstack
  7286 ;; Tracked objects:
  7287 ;;		On entry : 0/0
  7288 ;;		On exit  : 0/0
  7289 ;;		Unchanged: 0/0
  7290 ;; Data sizes:     COMMON   BANK0   BANK1   BANK3   BANK2
  7291 ;;      Params:         0       0       0       0       0
  7292 ;;      Locals:         0       1       0       0       0
  7293 ;;      Temps:          0       2       0       0       0
  7294 ;;      Totals:         0       3       0       0       0
  7295 ;;Total ram usage:        3 bytes
  7296 ;; Hardware stack levels used:    1
  7297 ;; Hardware stack levels required when called:    3
  7298 ;; This function calls:
  7299 ;;		_Read_BusyLCD
  7300 ;;		_Delay_tW_LCD
  7301 ;; This function is called by:
  7302 ;;		_print_LCD
  7303 ;;		_Init_DTHC_LCD
  7304 ;;		_LCD_Update
  7305 ;;		_LCD_Repaint
  7306 ;;		_LCD_SetMode
  7307 ;;		_LCD_SetEditValue
  7308 ;; This function uses a non-reentrant model
  7309 ;;
  7310                           psect	text1173
  7311                           	file	"C:\Users\Studio-Master\Desktop\Work\THC\27.05_DTHC\DisplayDTHC\c16_lcd_driver.c"
  7312                           	line	298
  7313                           	global	__size_of_WriteDataLCD
  7314  00DC                     	__size_of_WriteDataLCD	equ	__end_of_WriteDataLCD-_WriteDataLCD
  7315                           	
  7316  0703                     _WriteDataLCD:	
  7317                           	opt	stack 3
  7318                           ; Regs used in _WriteDataLCD: [wreg+status,2+status,0+pclath+cstack]
  7319                           ;WriteDataLCD@data stored from wreg
  7320  0703  1283               	bcf	status, 5	;RP0=0, select bank0
  7321  0704  1303               	bcf	status, 6	;RP1=0, select bank0
  7322  0705  00A3               	movwf	(WriteDataLCD@data)
  7323                           	line	299
  7324                           	
  7325  0706                     l9164:	
  7326                           ;c16_lcd_driver.c: 299: while(Read_BusyLCD());
  7327  0706  2F08               	goto	l9166
  7328                           	
  7329  0707                     l2284:	
  7330  0707  2F08               	goto	l9166
  7331                           	
  7332  0708                     l2283:	
  7333                           	
  7334  0708                     l9166:	
  7335  0708  160A  118A  2250   	fcall	_Read_BusyLCD
              120A  118A         
  7336  070D  3800               	iorlw	0
  7337  070E  1D03               	skipz
  7338  070F  2F11               	goto	u5961
  7339  0710  2F12               	goto	u5960
  7340  0711                     u5961:
  7341  0711  2F08               	goto	l9166
  7342  0712                     u5960:
  7343                           	
  7344  0712                     l2285:	
  7345                           	line	301
  7346                           ;c16_lcd_driver.c: 301: TRISDbits.TRISD7 = 0;
  7347  0712  1683               	bsf	status, 5	;RP0=1, select bank1
  7348  0713  1303               	bcf	status, 6	;RP1=0, select bank1
  7349  0714  1388               	bcf	(136)^080h,7	;volatile
  7350                           	line	302
  7351                           ;c16_lcd_driver.c: 302: TRISDbits.TRISD6 = 0;
  7352  0715  1308               	bcf	(136)^080h,6	;volatile
  7353                           	line	303
  7354                           ;c16_lcd_driver.c: 303: TRISDbits.TRISD5 = 0;
  7355  0716  1288               	bcf	(136)^080h,5	;volatile
  7356                           	line	304
  7357                           ;c16_lcd_driver.c: 304: TRISDbits.TRISD4 = 0;
  7358  0717  1208               	bcf	(136)^080h,4	;volatile
  7359                           	line	305
  7360                           	
  7361  0718                     l9168:	
  7362                           ;c16_lcd_driver.c: 305: Delay_tW_LCD();
  7363  0718  160A  118A  20A8   	fcall	_Delay_tW_LCD
              120A  118A         
  7364                           	line	307
  7365                           	
  7366  071D                     l9170:	
  7367                           ;c16_lcd_driver.c: 307: PORTBbits.RB2 = 1;
  7368  071D  1283               	bcf	status, 5	;RP0=0, select bank0
  7369  071E  1303               	bcf	status, 6	;RP1=0, select bank0
  7370  071F  1506               	bsf	(6),2	;volatile
  7371                           	line	308
  7372                           ;c16_lcd_driver.c: 308: Delay_tW_LCD();
  7373  0720  160A  118A  20A8   	fcall	_Delay_tW_LCD
              120A  118A         
  7374                           	line	309
  7375                           	
  7376  0725                     l9172:	
  7377                           ;c16_lcd_driver.c: 309: PORTBbits.RB1 = 0;
  7378  0725  1283               	bcf	status, 5	;RP0=0, select bank0
  7379  0726  1303               	bcf	status, 6	;RP1=0, select bank0
  7380  0727  1086               	bcf	(6),1	;volatile
  7381                           	line	310
  7382                           ;c16_lcd_driver.c: 310: Delay_tW_LCD();
  7383  0728  160A  118A  20A8   	fcall	_Delay_tW_LCD
              120A  118A         
  7384                           	line	311
  7385                           	
  7386  072D                     l9174:	
  7387                           ;c16_lcd_driver.c: 311: PORTDbits.RD4 = ((data & 0x80)>>7);
  7388  072D  1283               	bcf	status, 5	;RP0=0, select bank0
  7389  072E  1303               	bcf	status, 6	;RP1=0, select bank0
  7390  072F  0823               	movf	(WriteDataLCD@data),w
  7391  0730  00A1               	movwf	(??_WriteDataLCD+0)+0
  7392  0731  3007               	movlw	07h
  7393  0732                     u5975:
  7394  0732  1003               	clrc
  7395  0733  0CA1               	rrf	(??_WriteDataLCD+0)+0,f
  7396  0734  3EFF               	addlw	-1
  7397  0735  1D03               	skipz
  7398  0736  2F32               	goto	u5975
  7399  0737  0821               	movf	0+(??_WriteDataLCD+0)+0,w
  7400  0738  3901               	andlw	01h
  7401  0739  00A2               	movwf	(??_WriteDataLCD+1)+0
  7402  073A  0EA2               	swapf	(??_WriteDataLCD+1)+0,f
  7403  073B  0808               	movf	(8),w	;volatile
  7404  073C  0622               	xorwf	(??_WriteDataLCD+1)+0,w
  7405  073D  39EF               	andlw	not (((1<<1)-1)<<4)
  7406  073E  0622               	xorwf	(??_WriteDataLCD+1)+0,w
  7407  073F  0088               	movwf	(8)	;volatile
  7408                           	line	312
  7409                           	
  7410  0740                     l9176:	
  7411                           ;c16_lcd_driver.c: 312: PORTDbits.RD5 = ((data & 0x40)>>6);
  7412  0740  0823               	movf	(WriteDataLCD@data),w
  7413  0741  00A1               	movwf	(??_WriteDataLCD+0)+0
  7414  0742  3006               	movlw	06h
  7415  0743                     u5985:
  7416  0743  1003               	clrc
  7417  0744  0CA1               	rrf	(??_WriteDataLCD+0)+0,f
  7418  0745  3EFF               	addlw	-1
  7419  0746  1D03               	skipz
  7420  0747  2F43               	goto	u5985
  7421  0748  0821               	movf	0+(??_WriteDataLCD+0)+0,w
  7422  0749  3901               	andlw	01h
  7423  074A  00A2               	movwf	(??_WriteDataLCD+1)+0
  7424  074B  0EA2               	swapf	(??_WriteDataLCD+1)+0,f
  7425  074C  0DA2               	rlf	(??_WriteDataLCD+1)+0,f
  7426  074D  0808               	movf	(8),w	;volatile
  7427  074E  0622               	xorwf	(??_WriteDataLCD+1)+0,w
  7428  074F  39DF               	andlw	not (((1<<1)-1)<<5)
  7429  0750  0622               	xorwf	(??_WriteDataLCD+1)+0,w
  7430  0751  0088               	movwf	(8)	;volatile
  7431                           	line	313
  7432                           	
  7433  0752                     l9178:	
  7434                           ;c16_lcd_driver.c: 313: PORTDbits.RD6 = ((data & 0x20)>>5);
  7435  0752  0823               	movf	(WriteDataLCD@data),w
  7436  0753  00A1               	movwf	(??_WriteDataLCD+0)+0
  7437  0754  3005               	movlw	05h
  7438  0755                     u5995:
  7439  0755  1003               	clrc
  7440  0756  0CA1               	rrf	(??_WriteDataLCD+0)+0,f
  7441  0757  3EFF               	addlw	-1
  7442  0758  1D03               	skipz
  7443  0759  2F55               	goto	u5995
  7444  075A  0821               	movf	0+(??_WriteDataLCD+0)+0,w
  7445  075B  3901               	andlw	01h
  7446  075C  00A2               	movwf	(??_WriteDataLCD+1)+0
  7447  075D  0EA2               	swapf	(??_WriteDataLCD+1)+0,f
  7448  075E  0DA2               	rlf	(??_WriteDataLCD+1)+0,f
  7449  075F  0DA2               	rlf	(??_WriteDataLCD+1)+0,f
  7450  0760  0808               	movf	(8),w	;volatile
  7451  0761  0622               	xorwf	(??_WriteDataLCD+1)+0,w
  7452  0762  39BF               	andlw	not (((1<<1)-1)<<6)
  7453  0763  0622               	xorwf	(??_WriteDataLCD+1)+0,w
  7454  0764  0088               	movwf	(8)	;volatile
  7455                           	line	314
  7456                           	
  7457  0765                     l9180:	
  7458                           ;c16_lcd_driver.c: 314: PORTDbits.RD7 = ((data & 0x10)>>4);
  7459  0765  0823               	movf	(WriteDataLCD@data),w
  7460  0766  00A1               	movwf	(??_WriteDataLCD+0)+0
  7461  0767  3004               	movlw	04h
  7462  0768                     u6005:
  7463  0768  1003               	clrc
  7464  0769  0CA1               	rrf	(??_WriteDataLCD+0)+0,f
  7465  076A  3EFF               	addlw	-1
  7466  076B  1D03               	skipz
  7467  076C  2F68               	goto	u6005
  7468  076D  0821               	movf	0+(??_WriteDataLCD+0)+0,w
  7469  076E  3901               	andlw	01h
  7470  076F  00A2               	movwf	(??_WriteDataLCD+1)+0
  7471  0770  0CA2               	rrf	(??_WriteDataLCD+1)+0,f
  7472  0771  0CA2               	rrf	(??_WriteDataLCD+1)+0,f
  7473  0772  0808               	movf	(8),w	;volatile
  7474  0773  0622               	xorwf	(??_WriteDataLCD+1)+0,w
  7475  0774  397F               	andlw	not (((1<<1)-1)<<7)
  7476  0775  0622               	xorwf	(??_WriteDataLCD+1)+0,w
  7477  0776  0088               	movwf	(8)	;volatile
  7478                           	line	315
  7479                           ;c16_lcd_driver.c: 315: Delay_tW_LCD();
  7480  0777  160A  118A  20A8   	fcall	_Delay_tW_LCD
              120A  118A         
  7481                           	line	316
  7482                           	
  7483  077C                     l9182:	
  7484                           ;c16_lcd_driver.c: 316: PORTBbits.RB0 = 1;
  7485  077C  1283               	bcf	status, 5	;RP0=0, select bank0
  7486  077D  1303               	bcf	status, 6	;RP1=0, select bank0
  7487  077E  1406               	bsf	(6),0	;volatile
  7488                           	line	317
  7489                           ;c16_lcd_driver.c: 317: Delay_tW_LCD();
  7490  077F  160A  118A  20A8   	fcall	_Delay_tW_LCD
              120A  118A         
  7491                           	line	318
  7492                           	
  7493  0784                     l9184:	
  7494                           ;c16_lcd_driver.c: 318: PORTBbits.RB0 = 0;
  7495  0784  1283               	bcf	status, 5	;RP0=0, select bank0
  7496  0785  1303               	bcf	status, 6	;RP1=0, select bank0
  7497  0786  1006               	bcf	(6),0	;volatile
  7498                           	line	319
  7499                           ;c16_lcd_driver.c: 319: Delay_tW_LCD();
  7500  0787  160A  118A  20A8   	fcall	_Delay_tW_LCD
              120A  118A         
  7501                           	line	321
  7502                           	
  7503  078C                     l9186:	
  7504                           ;c16_lcd_driver.c: 321: PORTDbits.RD4 = ((data & 0x08)>>3);
  7505  078C  1283               	bcf	status, 5	;RP0=0, select bank0
  7506  078D  1303               	bcf	status, 6	;RP1=0, select bank0
  7507  078E  0823               	movf	(WriteDataLCD@data),w
  7508  078F  00A1               	movwf	(??_WriteDataLCD+0)+0
  7509  0790  3003               	movlw	03h
  7510  0791                     u6015:
  7511  0791  1003               	clrc
  7512  0792  0CA1               	rrf	(??_WriteDataLCD+0)+0,f
  7513  0793  3EFF               	addlw	-1
  7514  0794  1D03               	skipz
  7515  0795  2F91               	goto	u6015
  7516  0796  0821               	movf	0+(??_WriteDataLCD+0)+0,w
  7517  0797  3901               	andlw	01h
  7518  0798  00A2               	movwf	(??_WriteDataLCD+1)+0
  7519  0799  0EA2               	swapf	(??_WriteDataLCD+1)+0,f
  7520  079A  0808               	movf	(8),w	;volatile
  7521  079B  0622               	xorwf	(??_WriteDataLCD+1)+0,w
  7522  079C  39EF               	andlw	not (((1<<1)-1)<<4)
  7523  079D  0622               	xorwf	(??_WriteDataLCD+1)+0,w
  7524  079E  0088               	movwf	(8)	;volatile
  7525                           	line	322
  7526                           	
  7527  079F                     l9188:	
  7528                           ;c16_lcd_driver.c: 322: PORTDbits.RD5 = ((data & 0x04)>>2);
  7529  079F  0823               	movf	(WriteDataLCD@data),w
  7530  07A0  00A1               	movwf	(??_WriteDataLCD+0)+0
  7531  07A1  3002               	movlw	02h
  7532  07A2                     u6025:
  7533  07A2  1003               	clrc
  7534  07A3  0CA1               	rrf	(??_WriteDataLCD+0)+0,f
  7535  07A4  3EFF               	addlw	-1
  7536  07A5  1D03               	skipz
  7537  07A6  2FA2               	goto	u6025
  7538  07A7  0821               	movf	0+(??_WriteDataLCD+0)+0,w
  7539  07A8  3901               	andlw	01h
  7540  07A9  00A2               	movwf	(??_WriteDataLCD+1)+0
  7541  07AA  0EA2               	swapf	(??_WriteDataLCD+1)+0,f
  7542  07AB  0DA2               	rlf	(??_WriteDataLCD+1)+0,f
  7543  07AC  0808               	movf	(8),w	;volatile
  7544  07AD  0622               	xorwf	(??_WriteDataLCD+1)+0,w
  7545  07AE  39DF               	andlw	not (((1<<1)-1)<<5)
  7546  07AF  0622               	xorwf	(??_WriteDataLCD+1)+0,w
  7547  07B0  0088               	movwf	(8)	;volatile
  7548                           	line	323
  7549                           	
  7550  07B1                     l9190:	
  7551                           ;c16_lcd_driver.c: 323: PORTDbits.RD6 = ((data & 0x02)>>1);
  7552  07B1  0823               	movf	(WriteDataLCD@data),w
  7553  07B2  00A1               	movwf	(??_WriteDataLCD+0)+0
  7554  07B3  1003               	clrc
  7555  07B4  0C21               	rrf	(??_WriteDataLCD+0)+0,w
  7556  07B5  3901               	andlw	01h
  7557  07B6  00A2               	movwf	(??_WriteDataLCD+1)+0
  7558  07B7  0EA2               	swapf	(??_WriteDataLCD+1)+0,f
  7559  07B8  0DA2               	rlf	(??_WriteDataLCD+1)+0,f
  7560  07B9  0DA2               	rlf	(??_WriteDataLCD+1)+0,f
  7561  07BA  0808               	movf	(8),w	;volatile
  7562  07BB  0622               	xorwf	(??_WriteDataLCD+1)+0,w
  7563  07BC  39BF               	andlw	not (((1<<1)-1)<<6)
  7564  07BD  0622               	xorwf	(??_WriteDataLCD+1)+0,w
  7565  07BE  0088               	movwf	(8)	;volatile
  7566                           	line	324
  7567                           	
  7568  07BF                     l9192:	
  7569                           ;c16_lcd_driver.c: 324: PORTDbits.RD7 = (data & 0x01);
  7570  07BF  0823               	movf	(WriteDataLCD@data),w
  7571  07C0  3901               	andlw	01h
  7572  07C1  00A1               	movwf	(??_WriteDataLCD+0)+0
  7573  07C2  0CA1               	rrf	(??_WriteDataLCD+0)+0,f
  7574  07C3  0CA1               	rrf	(??_WriteDataLCD+0)+0,f
  7575  07C4  0808               	movf	(8),w	;volatile
  7576  07C5  0621               	xorwf	(??_WriteDataLCD+0)+0,w
  7577  07C6  397F               	andlw	not (((1<<1)-1)<<7)
  7578  07C7  0621               	xorwf	(??_WriteDataLCD+0)+0,w
  7579  07C8  0088               	movwf	(8)	;volatile
  7580                           	line	325
  7581                           ;c16_lcd_driver.c: 325: Delay_tW_LCD();
  7582  07C9  160A  118A  20A8   	fcall	_Delay_tW_LCD
              120A  118A         
  7583                           	line	326
  7584                           	
  7585  07CE                     l9194:	
  7586                           ;c16_lcd_driver.c: 326: PORTBbits.RB0 = 1;
  7587  07CE  1283               	bcf	status, 5	;RP0=0, select bank0
  7588  07CF  1303               	bcf	status, 6	;RP1=0, select bank0
  7589  07D0  1406               	bsf	(6),0	;volatile
  7590                           	line	327
  7591                           ;c16_lcd_driver.c: 327: Delay_tW_LCD();
  7592  07D1  160A  118A  20A8   	fcall	_Delay_tW_LCD
              120A  118A         
  7593                           	line	328
  7594                           	
  7595  07D6                     l9196:	
  7596                           ;c16_lcd_driver.c: 328: PORTBbits.RB0 = 0;
  7597  07D6  1283               	bcf	status, 5	;RP0=0, select bank0
  7598  07D7  1303               	bcf	status, 6	;RP1=0, select bank0
  7599  07D8  1006               	bcf	(6),0	;volatile
  7600                           	line	329
  7601                           ;c16_lcd_driver.c: 329: Delay_tW_LCD();
  7602  07D9  160A  118A  20A8   	fcall	_Delay_tW_LCD
              120A  118A         
  7603                           	line	330
  7604                           	
  7605  07DE                     l2286:	
  7606  07DE  0008               	return
  7607                           	opt stack 0
  7608                           GLOBAL	__end_of_WriteDataLCD
  7609  07DF                     	__end_of_WriteDataLCD:
  7610 ;; =============== function _WriteDataLCD ends ============
  7611                           
  7612                           	signat	_WriteDataLCD,4216
  7613                           	global	_SetCursor
  7614                           psect	text1174,local,class=CODE,delta=2
  7615                           global __ptext1174
  7616  165A                     __ptext1174:
  7617                           
  7618 ;; *************** function _SetCursor *****************
  7619 ;; Defined at:
  7620 ;;		line 219 in file "C:\Users\Studio-Master\Desktop\Work\THC\27.05_DTHC\DisplayDTHC\c16_lcd_driver.c"
  7621 ;; Parameters:    Size  Location     Type
  7622 ;;  address         1    wreg     unsigned char 
  7623 ;; Auto vars:     Size  Location     Type
  7624 ;;  address         1    3[BANK0 ] unsigned char 
  7625 ;; Return value:  Size  Location     Type
  7626 ;;		None               void
  7627 ;; Registers used:
  7628 ;;		wreg, status,2, status,0, pclath, cstack
  7629 ;; Tracked objects:
  7630 ;;		On entry : 0/0
  7631 ;;		On exit  : 0/0
  7632 ;;		Unchanged: 0/0
  7633 ;; Data sizes:     COMMON   BANK0   BANK1   BANK3   BANK2
  7634 ;;      Params:         0       0       0       0       0
  7635 ;;      Locals:         0       1       0       0       0
  7636 ;;      Temps:          0       2       0       0       0
  7637 ;;      Totals:         0       3       0       0       0
  7638 ;;Total ram usage:        3 bytes
  7639 ;; Hardware stack levels used:    1
  7640 ;; Hardware stack levels required when called:    3
  7641 ;; This function calls:
  7642 ;;		_Read_BusyLCD
  7643 ;;		_Delay_tW_LCD
  7644 ;; This function is called by:
  7645 ;;		_LCD_Update
  7646 ;;		_LCD_Repaint
  7647 ;;		_LCD_SetMode
  7648 ;;		_LCD_SetEditValue
  7649 ;; This function uses a non-reentrant model
  7650 ;;
  7651                           psect	text1174
  7652                           	file	"C:\Users\Studio-Master\Desktop\Work\THC\27.05_DTHC\DisplayDTHC\c16_lcd_driver.c"
  7653                           	line	219
  7654                           	global	__size_of_SetCursor
  7655  00CC                     	__size_of_SetCursor	equ	__end_of_SetCursor-_SetCursor
  7656                           	
  7657  165A                     _SetCursor:	
  7658                           	opt	stack 3
  7659                           ; Regs used in _SetCursor: [wreg+status,2+status,0+pclath+cstack]
  7660                           ;SetCursor@address stored from wreg
  7661  165A  1283               	bcf	status, 5	;RP0=0, select bank0
  7662  165B  1303               	bcf	status, 6	;RP1=0, select bank0
  7663  165C  00A3               	movwf	(SetCursor@address)
  7664                           	line	220
  7665                           	
  7666  165D                     l9126:	
  7667                           ;c16_lcd_driver.c: 220: while(Read_BusyLCD());
  7668  165D  2E5F               	goto	l9128
  7669                           	
  7670  165E                     l2272:	
  7671  165E  2E5F               	goto	l9128
  7672                           	
  7673  165F                     l2271:	
  7674                           	
  7675  165F                     l9128:	
  7676  165F  160A  118A  2250   	fcall	_Read_BusyLCD
              160A  118A         
  7677  1664  3800               	iorlw	0
  7678  1665  1D03               	skipz
  7679  1666  2E68               	goto	u5901
  7680  1667  2E69               	goto	u5900
  7681  1668                     u5901:
  7682  1668  2E5F               	goto	l9128
  7683  1669                     u5900:
  7684                           	
  7685  1669                     l2273:	
  7686                           	line	222
  7687                           ;c16_lcd_driver.c: 222: TRISDbits.TRISD7 = 0;
  7688  1669  1683               	bsf	status, 5	;RP0=1, select bank1
  7689  166A  1303               	bcf	status, 6	;RP1=0, select bank1
  7690  166B  1388               	bcf	(136)^080h,7	;volatile
  7691                           	line	223
  7692                           ;c16_lcd_driver.c: 223: TRISDbits.TRISD6 = 0;
  7693  166C  1308               	bcf	(136)^080h,6	;volatile
  7694                           	line	224
  7695                           ;c16_lcd_driver.c: 224: TRISDbits.TRISD5 = 0;
  7696  166D  1288               	bcf	(136)^080h,5	;volatile
  7697                           	line	225
  7698                           ;c16_lcd_driver.c: 225: TRISDbits.TRISD4 = 0;
  7699  166E  1208               	bcf	(136)^080h,4	;volatile
  7700                           	line	226
  7701                           	
  7702  166F                     l9130:	
  7703                           ;c16_lcd_driver.c: 226: Delay_tW_LCD();
  7704  166F  160A  118A  20A8   	fcall	_Delay_tW_LCD
              160A  118A         
  7705                           	line	228
  7706                           	
  7707  1674                     l9132:	
  7708                           ;c16_lcd_driver.c: 228: PORTBbits.RB2 = 0;
  7709  1674  1283               	bcf	status, 5	;RP0=0, select bank0
  7710  1675  1303               	bcf	status, 6	;RP1=0, select bank0
  7711  1676  1106               	bcf	(6),2	;volatile
  7712                           	line	229
  7713                           ;c16_lcd_driver.c: 229: Delay_tW_LCD();
  7714  1677  160A  118A  20A8   	fcall	_Delay_tW_LCD
              160A  118A         
  7715                           	line	230
  7716                           	
  7717  167C                     l9134:	
  7718                           ;c16_lcd_driver.c: 230: PORTBbits.RB1 = 0;
  7719  167C  1283               	bcf	status, 5	;RP0=0, select bank0
  7720  167D  1303               	bcf	status, 6	;RP1=0, select bank0
  7721  167E  1086               	bcf	(6),1	;volatile
  7722                           	line	231
  7723                           ;c16_lcd_driver.c: 231: Delay_tW_LCD();
  7724  167F  160A  118A  20A8   	fcall	_Delay_tW_LCD
              160A  118A         
  7725                           	line	232
  7726                           	
  7727  1684                     l9136:	
  7728                           ;c16_lcd_driver.c: 232: PORTDbits.RD4 = 1;
  7729  1684  1283               	bcf	status, 5	;RP0=0, select bank0
  7730  1685  1303               	bcf	status, 6	;RP1=0, select bank0
  7731  1686  1608               	bsf	(8),4	;volatile
  7732                           	line	233
  7733                           	
  7734  1687                     l9138:	
  7735                           ;c16_lcd_driver.c: 233: PORTDbits.RD5 = ((address & 0x40)>>6);
  7736  1687  0823               	movf	(SetCursor@address),w
  7737  1688  00A1               	movwf	(??_SetCursor+0)+0
  7738  1689  3006               	movlw	06h
  7739  168A                     u5915:
  7740  168A  1003               	clrc
  7741  168B  0CA1               	rrf	(??_SetCursor+0)+0,f
  7742  168C  3EFF               	addlw	-1
  7743  168D  1D03               	skipz
  7744  168E  2E8A               	goto	u5915
  7745  168F  0821               	movf	0+(??_SetCursor+0)+0,w
  7746  1690  3901               	andlw	01h
  7747  1691  00A2               	movwf	(??_SetCursor+1)+0
  7748  1692  0EA2               	swapf	(??_SetCursor+1)+0,f
  7749  1693  0DA2               	rlf	(??_SetCursor+1)+0,f
  7750  1694  0808               	movf	(8),w	;volatile
  7751  1695  0622               	xorwf	(??_SetCursor+1)+0,w
  7752  1696  39DF               	andlw	not (((1<<1)-1)<<5)
  7753  1697  0622               	xorwf	(??_SetCursor+1)+0,w
  7754  1698  0088               	movwf	(8)	;volatile
  7755                           	line	234
  7756                           	
  7757  1699                     l9140:	
  7758                           ;c16_lcd_driver.c: 234: PORTDbits.RD6 = ((address & 0x20)>>5);
  7759  1699  0823               	movf	(SetCursor@address),w
  7760  169A  00A1               	movwf	(??_SetCursor+0)+0
  7761  169B  3005               	movlw	05h
  7762  169C                     u5925:
  7763  169C  1003               	clrc
  7764  169D  0CA1               	rrf	(??_SetCursor+0)+0,f
  7765  169E  3EFF               	addlw	-1
  7766  169F  1D03               	skipz
  7767  16A0  2E9C               	goto	u5925
  7768  16A1  0821               	movf	0+(??_SetCursor+0)+0,w
  7769  16A2  3901               	andlw	01h
  7770  16A3  00A2               	movwf	(??_SetCursor+1)+0
  7771  16A4  0EA2               	swapf	(??_SetCursor+1)+0,f
  7772  16A5  0DA2               	rlf	(??_SetCursor+1)+0,f
  7773  16A6  0DA2               	rlf	(??_SetCursor+1)+0,f
  7774  16A7  0808               	movf	(8),w	;volatile
  7775  16A8  0622               	xorwf	(??_SetCursor+1)+0,w
  7776  16A9  39BF               	andlw	not (((1<<1)-1)<<6)
  7777  16AA  0622               	xorwf	(??_SetCursor+1)+0,w
  7778  16AB  0088               	movwf	(8)	;volatile
  7779                           	line	235
  7780                           	
  7781  16AC                     l9142:	
  7782                           ;c16_lcd_driver.c: 235: PORTDbits.RD7 = ((address & 0x10)>>4);
  7783  16AC  0823               	movf	(SetCursor@address),w
  7784  16AD  00A1               	movwf	(??_SetCursor+0)+0
  7785  16AE  3004               	movlw	04h
  7786  16AF                     u5935:
  7787  16AF  1003               	clrc
  7788  16B0  0CA1               	rrf	(??_SetCursor+0)+0,f
  7789  16B1  3EFF               	addlw	-1
  7790  16B2  1D03               	skipz
  7791  16B3  2EAF               	goto	u5935
  7792  16B4  0821               	movf	0+(??_SetCursor+0)+0,w
  7793  16B5  3901               	andlw	01h
  7794  16B6  00A2               	movwf	(??_SetCursor+1)+0
  7795  16B7  0CA2               	rrf	(??_SetCursor+1)+0,f
  7796  16B8  0CA2               	rrf	(??_SetCursor+1)+0,f
  7797  16B9  0808               	movf	(8),w	;volatile
  7798  16BA  0622               	xorwf	(??_SetCursor+1)+0,w
  7799  16BB  397F               	andlw	not (((1<<1)-1)<<7)
  7800  16BC  0622               	xorwf	(??_SetCursor+1)+0,w
  7801  16BD  0088               	movwf	(8)	;volatile
  7802                           	line	236
  7803                           	
  7804  16BE                     l9144:	
  7805                           ;c16_lcd_driver.c: 236: Delay_tW_LCD();
  7806  16BE  160A  118A  20A8   	fcall	_Delay_tW_LCD
              160A  118A         
  7807                           	line	238
  7808                           	
  7809  16C3                     l9146:	
  7810                           ;c16_lcd_driver.c: 238: PORTBbits.RB0 = 1;
  7811  16C3  1283               	bcf	status, 5	;RP0=0, select bank0
  7812  16C4  1303               	bcf	status, 6	;RP1=0, select bank0
  7813  16C5  1406               	bsf	(6),0	;volatile
  7814                           	line	239
  7815                           	
  7816  16C6                     l9148:	
  7817                           ;c16_lcd_driver.c: 239: Delay_tW_LCD();
  7818  16C6  160A  118A  20A8   	fcall	_Delay_tW_LCD
              160A  118A         
  7819                           	line	240
  7820                           	
  7821  16CB                     l9150:	
  7822                           ;c16_lcd_driver.c: 240: PORTBbits.RB0 = 0;
  7823  16CB  1283               	bcf	status, 5	;RP0=0, select bank0
  7824  16CC  1303               	bcf	status, 6	;RP1=0, select bank0
  7825  16CD  1006               	bcf	(6),0	;volatile
  7826                           	line	241
  7827                           	
  7828  16CE                     l9152:	
  7829                           ;c16_lcd_driver.c: 241: Delay_tW_LCD();
  7830  16CE  160A  118A  20A8   	fcall	_Delay_tW_LCD
              160A  118A         
  7831                           	line	243
  7832                           ;c16_lcd_driver.c: 243: PORTDbits.RD4 = ((address & 0x08)>>3);
  7833  16D3  1283               	bcf	status, 5	;RP0=0, select bank0
  7834  16D4  1303               	bcf	status, 6	;RP1=0, select bank0
  7835  16D5  0823               	movf	(SetCursor@address),w
  7836  16D6  00A1               	movwf	(??_SetCursor+0)+0
  7837  16D7  3003               	movlw	03h
  7838  16D8                     u5945:
  7839  16D8  1003               	clrc
  7840  16D9  0CA1               	rrf	(??_SetCursor+0)+0,f
  7841  16DA  3EFF               	addlw	-1
  7842  16DB  1D03               	skipz
  7843  16DC  2ED8               	goto	u5945
  7844  16DD  0821               	movf	0+(??_SetCursor+0)+0,w
  7845  16DE  3901               	andlw	01h
  7846  16DF  00A2               	movwf	(??_SetCursor+1)+0
  7847  16E0  0EA2               	swapf	(??_SetCursor+1)+0,f
  7848  16E1  0808               	movf	(8),w	;volatile
  7849  16E2  0622               	xorwf	(??_SetCursor+1)+0,w
  7850  16E3  39EF               	andlw	not (((1<<1)-1)<<4)
  7851  16E4  0622               	xorwf	(??_SetCursor+1)+0,w
  7852  16E5  0088               	movwf	(8)	;volatile
  7853                           	line	244
  7854                           ;c16_lcd_driver.c: 244: PORTDbits.RD5 = ((address & 0x04)>>2);
  7855  16E6  0823               	movf	(SetCursor@address),w
  7856  16E7  00A1               	movwf	(??_SetCursor+0)+0
  7857  16E8  3002               	movlw	02h
  7858  16E9                     u5955:
  7859  16E9  1003               	clrc
  7860  16EA  0CA1               	rrf	(??_SetCursor+0)+0,f
  7861  16EB  3EFF               	addlw	-1
  7862  16EC  1D03               	skipz
  7863  16ED  2EE9               	goto	u5955
  7864  16EE  0821               	movf	0+(??_SetCursor+0)+0,w
  7865  16EF  3901               	andlw	01h
  7866  16F0  00A2               	movwf	(??_SetCursor+1)+0
  7867  16F1  0EA2               	swapf	(??_SetCursor+1)+0,f
  7868  16F2  0DA2               	rlf	(??_SetCursor+1)+0,f
  7869  16F3  0808               	movf	(8),w	;volatile
  7870  16F4  0622               	xorwf	(??_SetCursor+1)+0,w
  7871  16F5  39DF               	andlw	not (((1<<1)-1)<<5)
  7872  16F6  0622               	xorwf	(??_SetCursor+1)+0,w
  7873  16F7  0088               	movwf	(8)	;volatile
  7874                           	line	245
  7875                           ;c16_lcd_driver.c: 245: PORTDbits.RD6 = ((address & 0x02)>>1);
  7876  16F8  0823               	movf	(SetCursor@address),w
  7877  16F9  00A1               	movwf	(??_SetCursor+0)+0
  7878  16FA  1003               	clrc
  7879  16FB  0C21               	rrf	(??_SetCursor+0)+0,w
  7880  16FC  3901               	andlw	01h
  7881  16FD  00A2               	movwf	(??_SetCursor+1)+0
  7882  16FE  0EA2               	swapf	(??_SetCursor+1)+0,f
  7883  16FF  0DA2               	rlf	(??_SetCursor+1)+0,f
  7884  1700  0DA2               	rlf	(??_SetCursor+1)+0,f
  7885  1701  0808               	movf	(8),w	;volatile
  7886  1702  0622               	xorwf	(??_SetCursor+1)+0,w
  7887  1703  39BF               	andlw	not (((1<<1)-1)<<6)
  7888  1704  0622               	xorwf	(??_SetCursor+1)+0,w
  7889  1705  0088               	movwf	(8)	;volatile
  7890                           	line	246
  7891                           ;c16_lcd_driver.c: 246: PORTDbits.RD7 = ((address & 0x01)>>0);
  7892  1706  0823               	movf	(SetCursor@address),w
  7893  1707  3901               	andlw	01h
  7894  1708  00A1               	movwf	(??_SetCursor+0)+0
  7895  1709  0CA1               	rrf	(??_SetCursor+0)+0,f
  7896  170A  0CA1               	rrf	(??_SetCursor+0)+0,f
  7897  170B  0808               	movf	(8),w	;volatile
  7898  170C  0621               	xorwf	(??_SetCursor+0)+0,w
  7899  170D  397F               	andlw	not (((1<<1)-1)<<7)
  7900  170E  0621               	xorwf	(??_SetCursor+0)+0,w
  7901  170F  0088               	movwf	(8)	;volatile
  7902                           	line	247
  7903                           	
  7904  1710                     l9154:	
  7905                           ;c16_lcd_driver.c: 247: Delay_tW_LCD();
  7906  1710  160A  118A  20A8   	fcall	_Delay_tW_LCD
              160A  118A         
  7907                           	line	249
  7908                           	
  7909  1715                     l9156:	
  7910                           ;c16_lcd_driver.c: 249: PORTBbits.RB0 = 1;
  7911  1715  1283               	bcf	status, 5	;RP0=0, select bank0
  7912  1716  1303               	bcf	status, 6	;RP1=0, select bank0
  7913  1717  1406               	bsf	(6),0	;volatile
  7914                           	line	250
  7915                           	
  7916  1718                     l9158:	
  7917                           ;c16_lcd_driver.c: 250: Delay_tW_LCD();
  7918  1718  160A  118A  20A8   	fcall	_Delay_tW_LCD
              160A  118A         
  7919                           	line	251
  7920                           	
  7921  171D                     l9160:	
  7922                           ;c16_lcd_driver.c: 251: PORTBbits.RB0 =0;
  7923  171D  1283               	bcf	status, 5	;RP0=0, select bank0
  7924  171E  1303               	bcf	status, 6	;RP1=0, select bank0
  7925  171F  1006               	bcf	(6),0	;volatile
  7926                           	line	252
  7927                           	
  7928  1720                     l9162:	
  7929                           ;c16_lcd_driver.c: 252: Delay_tW_LCD();
  7930  1720  160A  118A  20A8   	fcall	_Delay_tW_LCD
              160A  118A         
  7931                           	line	253
  7932                           	
  7933  1725                     l2274:	
  7934  1725  0008               	return
  7935                           	opt stack 0
  7936                           GLOBAL	__end_of_SetCursor
  7937  1726                     	__end_of_SetCursor:
  7938 ;; =============== function _SetCursor ends ============
  7939                           
  7940                           	signat	_SetCursor,4216
  7941                           	global	_WriteCmdLCD
  7942                           psect	text1175,local,class=CODE,delta=2
  7943                           global __ptext1175
  7944  1726                     __ptext1175:
  7945                           
  7946 ;; *************** function _WriteCmdLCD *****************
  7947 ;; Defined at:
  7948 ;;		line 258 in file "C:\Users\Studio-Master\Desktop\Work\THC\27.05_DTHC\DisplayDTHC\c16_lcd_driver.c"
  7949 ;; Parameters:    Size  Location     Type
  7950 ;;  cmd             1    wreg     unsigned char 
  7951 ;; Auto vars:     Size  Location     Type
  7952 ;;  cmd             1    3[BANK0 ] unsigned char 
  7953 ;; Return value:  Size  Location     Type
  7954 ;;		None               void
  7955 ;; Registers used:
  7956 ;;		wreg, status,2, status,0, pclath, cstack
  7957 ;; Tracked objects:
  7958 ;;		On entry : 0/0
  7959 ;;		On exit  : 0/0
  7960 ;;		Unchanged: 0/0
  7961 ;; Data sizes:     COMMON   BANK0   BANK1   BANK3   BANK2
  7962 ;;      Params:         0       0       0       0       0
  7963 ;;      Locals:         0       1       0       0       0
  7964 ;;      Temps:          0       2       0       0       0
  7965 ;;      Totals:         0       3       0       0       0
  7966 ;;Total ram usage:        3 bytes
  7967 ;; Hardware stack levels used:    1
  7968 ;; Hardware stack levels required when called:    3
  7969 ;; This function calls:
  7970 ;;		_Read_BusyLCD
  7971 ;;		_Delay_tW_LCD
  7972 ;; This function is called by:
  7973 ;;		_Initial_4bitLCD
  7974 ;;		_Enable_Blink_LCD
  7975 ;;		_Clear_LCD
  7976 ;;		_Init_DTHC_LCD
  7977 ;; This function uses a non-reentrant model
  7978 ;;
  7979                           psect	text1175
  7980                           	file	"C:\Users\Studio-Master\Desktop\Work\THC\27.05_DTHC\DisplayDTHC\c16_lcd_driver.c"
  7981                           	line	258
  7982                           	global	__size_of_WriteCmdLCD
  7983  00DA                     	__size_of_WriteCmdLCD	equ	__end_of_WriteCmdLCD-_WriteCmdLCD
  7984                           	
  7985  1726                     _WriteCmdLCD:	
  7986                           	opt	stack 2
  7987                           ; Regs used in _WriteCmdLCD: [wreg+status,2+status,0+pclath+cstack]
  7988                           ;WriteCmdLCD@cmd stored from wreg
  7989  1726  1283               	bcf	status, 5	;RP0=0, select bank0
  7990  1727  1303               	bcf	status, 6	;RP1=0, select bank0
  7991  1728  00A3               	movwf	(WriteCmdLCD@cmd)
  7992                           	line	259
  7993                           	
  7994  1729                     l9092:	
  7995                           ;c16_lcd_driver.c: 259: while(Read_BusyLCD());
  7996  1729  2F2B               	goto	l9094
  7997                           	
  7998  172A                     l2278:	
  7999  172A  2F2B               	goto	l9094
  8000                           	
  8001  172B                     l2277:	
  8002                           	
  8003  172B                     l9094:	
  8004  172B  160A  118A  2250   	fcall	_Read_BusyLCD
              160A  118A         
  8005  1730  3800               	iorlw	0
  8006  1731  1D03               	skipz
  8007  1732  2F34               	goto	u5831
  8008  1733  2F35               	goto	u5830
  8009  1734                     u5831:
  8010  1734  2F2B               	goto	l9094
  8011  1735                     u5830:
  8012                           	
  8013  1735                     l2279:	
  8014                           	line	261
  8015                           ;c16_lcd_driver.c: 261: TRISDbits.TRISD7 = 0;
  8016  1735  1683               	bsf	status, 5	;RP0=1, select bank1
  8017  1736  1303               	bcf	status, 6	;RP1=0, select bank1
  8018  1737  1388               	bcf	(136)^080h,7	;volatile
  8019                           	line	262
  8020                           ;c16_lcd_driver.c: 262: TRISDbits.TRISD6 = 0;
  8021  1738  1308               	bcf	(136)^080h,6	;volatile
  8022                           	line	263
  8023                           ;c16_lcd_driver.c: 263: TRISDbits.TRISD5 = 0;
  8024  1739  1288               	bcf	(136)^080h,5	;volatile
  8025                           	line	264
  8026                           ;c16_lcd_driver.c: 264: TRISDbits.TRISD4 = 0;
  8027  173A  1208               	bcf	(136)^080h,4	;volatile
  8028                           	line	265
  8029                           	
  8030  173B                     l9096:	
  8031                           ;c16_lcd_driver.c: 265: Delay_tW_LCD();
  8032  173B  160A  118A  20A8   	fcall	_Delay_tW_LCD
              160A  118A         
  8033                           	line	267
  8034                           	
  8035  1740                     l9098:	
  8036                           ;c16_lcd_driver.c: 267: PORTBbits.RB2 = 0;
  8037  1740  1283               	bcf	status, 5	;RP0=0, select bank0
  8038  1741  1303               	bcf	status, 6	;RP1=0, select bank0
  8039  1742  1106               	bcf	(6),2	;volatile
  8040                           	line	268
  8041                           ;c16_lcd_driver.c: 268: Delay_tW_LCD();
  8042  1743  160A  118A  20A8   	fcall	_Delay_tW_LCD
              160A  118A         
  8043                           	line	269
  8044                           	
  8045  1748                     l9100:	
  8046                           ;c16_lcd_driver.c: 269: PORTBbits.RB1 = 0;
  8047  1748  1283               	bcf	status, 5	;RP0=0, select bank0
  8048  1749  1303               	bcf	status, 6	;RP1=0, select bank0
  8049  174A  1086               	bcf	(6),1	;volatile
  8050                           	line	270
  8051                           ;c16_lcd_driver.c: 270: Delay_tW_LCD();
  8052  174B  160A  118A  20A8   	fcall	_Delay_tW_LCD
              160A  118A         
  8053                           	line	272
  8054                           	
  8055  1750                     l9102:	
  8056                           ;c16_lcd_driver.c: 272: PORTDbits.RD4 = ((cmd & 0x80)>>7);
  8057  1750  1283               	bcf	status, 5	;RP0=0, select bank0
  8058  1751  1303               	bcf	status, 6	;RP1=0, select bank0
  8059  1752  0823               	movf	(WriteCmdLCD@cmd),w
  8060  1753  00A1               	movwf	(??_WriteCmdLCD+0)+0
  8061  1754  3007               	movlw	07h
  8062  1755                     u5845:
  8063  1755  1003               	clrc
  8064  1756  0CA1               	rrf	(??_WriteCmdLCD+0)+0,f
  8065  1757  3EFF               	addlw	-1
  8066  1758  1D03               	skipz
  8067  1759  2F55               	goto	u5845
  8068  175A  0821               	movf	0+(??_WriteCmdLCD+0)+0,w
  8069  175B  3901               	andlw	01h
  8070  175C  00A2               	movwf	(??_WriteCmdLCD+1)+0
  8071  175D  0EA2               	swapf	(??_WriteCmdLCD+1)+0,f
  8072  175E  0808               	movf	(8),w	;volatile
  8073  175F  0622               	xorwf	(??_WriteCmdLCD+1)+0,w
  8074  1760  39EF               	andlw	not (((1<<1)-1)<<4)
  8075  1761  0622               	xorwf	(??_WriteCmdLCD+1)+0,w
  8076  1762  0088               	movwf	(8)	;volatile
  8077                           	line	273
  8078                           	
  8079  1763                     l9104:	
  8080                           ;c16_lcd_driver.c: 273: PORTDbits.RD5 = ((cmd & 0x40)>>6);
  8081  1763  0823               	movf	(WriteCmdLCD@cmd),w
  8082  1764  00A1               	movwf	(??_WriteCmdLCD+0)+0
  8083  1765  3006               	movlw	06h
  8084  1766                     u5855:
  8085  1766  1003               	clrc
  8086  1767  0CA1               	rrf	(??_WriteCmdLCD+0)+0,f
  8087  1768  3EFF               	addlw	-1
  8088  1769  1D03               	skipz
  8089  176A  2F66               	goto	u5855
  8090  176B  0821               	movf	0+(??_WriteCmdLCD+0)+0,w
  8091  176C  3901               	andlw	01h
  8092  176D  00A2               	movwf	(??_WriteCmdLCD+1)+0
  8093  176E  0EA2               	swapf	(??_WriteCmdLCD+1)+0,f
  8094  176F  0DA2               	rlf	(??_WriteCmdLCD+1)+0,f
  8095  1770  0808               	movf	(8),w	;volatile
  8096  1771  0622               	xorwf	(??_WriteCmdLCD+1)+0,w
  8097  1772  39DF               	andlw	not (((1<<1)-1)<<5)
  8098  1773  0622               	xorwf	(??_WriteCmdLCD+1)+0,w
  8099  1774  0088               	movwf	(8)	;volatile
  8100                           	line	274
  8101                           	
  8102  1775                     l9106:	
  8103                           ;c16_lcd_driver.c: 274: PORTDbits.RD6 = ((cmd & 0x20)>>5);
  8104  1775  0823               	movf	(WriteCmdLCD@cmd),w
  8105  1776  00A1               	movwf	(??_WriteCmdLCD+0)+0
  8106  1777  3005               	movlw	05h
  8107  1778                     u5865:
  8108  1778  1003               	clrc
  8109  1779  0CA1               	rrf	(??_WriteCmdLCD+0)+0,f
  8110  177A  3EFF               	addlw	-1
  8111  177B  1D03               	skipz
  8112  177C  2F78               	goto	u5865
  8113  177D  0821               	movf	0+(??_WriteCmdLCD+0)+0,w
  8114  177E  3901               	andlw	01h
  8115  177F  00A2               	movwf	(??_WriteCmdLCD+1)+0
  8116  1780  0EA2               	swapf	(??_WriteCmdLCD+1)+0,f
  8117  1781  0DA2               	rlf	(??_WriteCmdLCD+1)+0,f
  8118  1782  0DA2               	rlf	(??_WriteCmdLCD+1)+0,f
  8119  1783  0808               	movf	(8),w	;volatile
  8120  1784  0622               	xorwf	(??_WriteCmdLCD+1)+0,w
  8121  1785  39BF               	andlw	not (((1<<1)-1)<<6)
  8122  1786  0622               	xorwf	(??_WriteCmdLCD+1)+0,w
  8123  1787  0088               	movwf	(8)	;volatile
  8124                           	line	275
  8125                           	
  8126  1788                     l9108:	
  8127                           ;c16_lcd_driver.c: 275: PORTDbits.RD7 = ((cmd & 0x10)>>4);
  8128  1788  0823               	movf	(WriteCmdLCD@cmd),w
  8129  1789  00A1               	movwf	(??_WriteCmdLCD+0)+0
  8130  178A  3004               	movlw	04h
  8131  178B                     u5875:
  8132  178B  1003               	clrc
  8133  178C  0CA1               	rrf	(??_WriteCmdLCD+0)+0,f
  8134  178D  3EFF               	addlw	-1
  8135  178E  1D03               	skipz
  8136  178F  2F8B               	goto	u5875
  8137  1790  0821               	movf	0+(??_WriteCmdLCD+0)+0,w
  8138  1791  3901               	andlw	01h
  8139  1792  00A2               	movwf	(??_WriteCmdLCD+1)+0
  8140  1793  0CA2               	rrf	(??_WriteCmdLCD+1)+0,f
  8141  1794  0CA2               	rrf	(??_WriteCmdLCD+1)+0,f
  8142  1795  0808               	movf	(8),w	;volatile
  8143  1796  0622               	xorwf	(??_WriteCmdLCD+1)+0,w
  8144  1797  397F               	andlw	not (((1<<1)-1)<<7)
  8145  1798  0622               	xorwf	(??_WriteCmdLCD+1)+0,w
  8146  1799  0088               	movwf	(8)	;volatile
  8147                           	line	276
  8148                           ;c16_lcd_driver.c: 276: Delay_tW_LCD();
  8149  179A  160A  118A  20A8   	fcall	_Delay_tW_LCD
              160A  118A         
  8150                           	line	278
  8151                           ;c16_lcd_driver.c: 278: Delay_tW_LCD();
  8152  179F  160A  118A  20A8   	fcall	_Delay_tW_LCD
              160A  118A         
  8153                           	line	279
  8154                           	
  8155  17A4                     l9110:	
  8156                           ;c16_lcd_driver.c: 279: PORTBbits.RB0 = 1;
  8157  17A4  1283               	bcf	status, 5	;RP0=0, select bank0
  8158  17A5  1303               	bcf	status, 6	;RP1=0, select bank0
  8159  17A6  1406               	bsf	(6),0	;volatile
  8160                           	line	280
  8161                           ;c16_lcd_driver.c: 280: Delay_tW_LCD();
  8162  17A7  160A  118A  20A8   	fcall	_Delay_tW_LCD
              160A  118A         
  8163                           	line	281
  8164                           	
  8165  17AC                     l9112:	
  8166                           ;c16_lcd_driver.c: 281: PORTBbits.RB0 = 0;
  8167  17AC  1283               	bcf	status, 5	;RP0=0, select bank0
  8168  17AD  1303               	bcf	status, 6	;RP1=0, select bank0
  8169  17AE  1006               	bcf	(6),0	;volatile
  8170                           	line	283
  8171                           	
  8172  17AF                     l9114:	
  8173                           ;c16_lcd_driver.c: 283: PORTDbits.RD4 = ((cmd & 0x08)>>3);
  8174  17AF  0823               	movf	(WriteCmdLCD@cmd),w
  8175  17B0  00A1               	movwf	(??_WriteCmdLCD+0)+0
  8176  17B1  3003               	movlw	03h
  8177  17B2                     u5885:
  8178  17B2  1003               	clrc
  8179  17B3  0CA1               	rrf	(??_WriteCmdLCD+0)+0,f
  8180  17B4  3EFF               	addlw	-1
  8181  17B5  1D03               	skipz
  8182  17B6  2FB2               	goto	u5885
  8183  17B7  0821               	movf	0+(??_WriteCmdLCD+0)+0,w
  8184  17B8  3901               	andlw	01h
  8185  17B9  00A2               	movwf	(??_WriteCmdLCD+1)+0
  8186  17BA  0EA2               	swapf	(??_WriteCmdLCD+1)+0,f
  8187  17BB  0808               	movf	(8),w	;volatile
  8188  17BC  0622               	xorwf	(??_WriteCmdLCD+1)+0,w
  8189  17BD  39EF               	andlw	not (((1<<1)-1)<<4)
  8190  17BE  0622               	xorwf	(??_WriteCmdLCD+1)+0,w
  8191  17BF  0088               	movwf	(8)	;volatile
  8192                           	line	284
  8193                           	
  8194  17C0                     l9116:	
  8195                           ;c16_lcd_driver.c: 284: PORTDbits.RD5 = ((cmd & 0x04)>>2);
  8196  17C0  0823               	movf	(WriteCmdLCD@cmd),w
  8197  17C1  00A1               	movwf	(??_WriteCmdLCD+0)+0
  8198  17C2  3002               	movlw	02h
  8199  17C3                     u5895:
  8200  17C3  1003               	clrc
  8201  17C4  0CA1               	rrf	(??_WriteCmdLCD+0)+0,f
  8202  17C5  3EFF               	addlw	-1
  8203  17C6  1D03               	skipz
  8204  17C7  2FC3               	goto	u5895
  8205  17C8  0821               	movf	0+(??_WriteCmdLCD+0)+0,w
  8206  17C9  3901               	andlw	01h
  8207  17CA  00A2               	movwf	(??_WriteCmdLCD+1)+0
  8208  17CB  0EA2               	swapf	(??_WriteCmdLCD+1)+0,f
  8209  17CC  0DA2               	rlf	(??_WriteCmdLCD+1)+0,f
  8210  17CD  0808               	movf	(8),w	;volatile
  8211  17CE  0622               	xorwf	(??_WriteCmdLCD+1)+0,w
  8212  17CF  39DF               	andlw	not (((1<<1)-1)<<5)
  8213  17D0  0622               	xorwf	(??_WriteCmdLCD+1)+0,w
  8214  17D1  0088               	movwf	(8)	;volatile
  8215                           	line	285
  8216                           	
  8217  17D2                     l9118:	
  8218                           ;c16_lcd_driver.c: 285: PORTDbits.RD6 = ((cmd & 0x02)>>1);
  8219  17D2  0823               	movf	(WriteCmdLCD@cmd),w
  8220  17D3  00A1               	movwf	(??_WriteCmdLCD+0)+0
  8221  17D4  1003               	clrc
  8222  17D5  0C21               	rrf	(??_WriteCmdLCD+0)+0,w
  8223  17D6  3901               	andlw	01h
  8224  17D7  00A2               	movwf	(??_WriteCmdLCD+1)+0
  8225  17D8  0EA2               	swapf	(??_WriteCmdLCD+1)+0,f
  8226  17D9  0DA2               	rlf	(??_WriteCmdLCD+1)+0,f
  8227  17DA  0DA2               	rlf	(??_WriteCmdLCD+1)+0,f
  8228  17DB  0808               	movf	(8),w	;volatile
  8229  17DC  0622               	xorwf	(??_WriteCmdLCD+1)+0,w
  8230  17DD  39BF               	andlw	not (((1<<1)-1)<<6)
  8231  17DE  0622               	xorwf	(??_WriteCmdLCD+1)+0,w
  8232  17DF  0088               	movwf	(8)	;volatile
  8233                           	line	286
  8234                           	
  8235  17E0                     l9120:	
  8236                           ;c16_lcd_driver.c: 286: PORTDbits.RD7 = (cmd & 0x01);
  8237  17E0  0823               	movf	(WriteCmdLCD@cmd),w
  8238  17E1  3901               	andlw	01h
  8239  17E2  00A1               	movwf	(??_WriteCmdLCD+0)+0
  8240  17E3  0CA1               	rrf	(??_WriteCmdLCD+0)+0,f
  8241  17E4  0CA1               	rrf	(??_WriteCmdLCD+0)+0,f
  8242  17E5  0808               	movf	(8),w	;volatile
  8243  17E6  0621               	xorwf	(??_WriteCmdLCD+0)+0,w
  8244  17E7  397F               	andlw	not (((1<<1)-1)<<7)
  8245  17E8  0621               	xorwf	(??_WriteCmdLCD+0)+0,w
  8246  17E9  0088               	movwf	(8)	;volatile
  8247                           	line	287
  8248                           ;c16_lcd_driver.c: 287: Delay_tW_LCD();
  8249  17EA  160A  118A  20A8   	fcall	_Delay_tW_LCD
              160A  118A         
  8250                           	line	288
  8251                           	
  8252  17EF                     l9122:	
  8253                           ;c16_lcd_driver.c: 288: PORTBbits.RB0 = 1;
  8254  17EF  1283               	bcf	status, 5	;RP0=0, select bank0
  8255  17F0  1303               	bcf	status, 6	;RP1=0, select bank0
  8256  17F1  1406               	bsf	(6),0	;volatile
  8257                           	line	289
  8258                           ;c16_lcd_driver.c: 289: Delay_tW_LCD();
  8259  17F2  160A  118A  20A8   	fcall	_Delay_tW_LCD
              160A  118A         
  8260                           	line	290
  8261                           	
  8262  17F7                     l9124:	
  8263                           ;c16_lcd_driver.c: 290: PORTBbits.RB0 = 0;
  8264  17F7  1283               	bcf	status, 5	;RP0=0, select bank0
  8265  17F8  1303               	bcf	status, 6	;RP1=0, select bank0
  8266  17F9  1006               	bcf	(6),0	;volatile
  8267                           	line	291
  8268                           ;c16_lcd_driver.c: 291: Delay_tW_LCD();
  8269  17FA  160A  118A  20A8   	fcall	_Delay_tW_LCD
              160A  118A         
  8270                           	line	292
  8271                           	
  8272  17FF                     l2280:	
  8273  17FF  0008               	return
  8274                           	opt stack 0
  8275                           GLOBAL	__end_of_WriteCmdLCD
  8276  1800                     	__end_of_WriteCmdLCD:
  8277 ;; =============== function _WriteCmdLCD ends ============
  8278                           
  8279                           	signat	_WriteCmdLCD,4216
  8280                           	global	_Read_BusyLCD
  8281                           psect	text1176,local,class=CODE,delta=2
  8282                           global __ptext1176
  8283  1250                     __ptext1176:
  8284                           
  8285 ;; *************** function _Read_BusyLCD *****************
  8286 ;; Defined at:
  8287 ;;		line 345 in file "C:\Users\Studio-Master\Desktop\Work\THC\27.05_DTHC\DisplayDTHC\c16_lcd_driver.c"
  8288 ;; Parameters:    Size  Location     Type
  8289 ;;		None
  8290 ;; Auto vars:     Size  Location     Type
  8291 ;;		None
  8292 ;; Return value:  Size  Location     Type
  8293 ;;                  1    wreg      unsigned char 
  8294 ;; Registers used:
  8295 ;;		wreg, status,2, status,0, pclath, cstack
  8296 ;; Tracked objects:
  8297 ;;		On entry : 0/0
  8298 ;;		On exit  : 0/0
  8299 ;;		Unchanged: 0/0
  8300 ;; Data sizes:     COMMON   BANK0   BANK1   BANK3   BANK2
  8301 ;;      Params:         0       0       0       0       0
  8302 ;;      Locals:         0       0       0       0       0
  8303 ;;      Temps:          0       0       0       0       0
  8304 ;;      Totals:         0       0       0       0       0
  8305 ;;Total ram usage:        0 bytes
  8306 ;; Hardware stack levels used:    1
  8307 ;; Hardware stack levels required when called:    2
  8308 ;; This function calls:
  8309 ;;		_Delay_tW_LCD
  8310 ;; This function is called by:
  8311 ;;		_SetCursor
  8312 ;;		_WriteCmdLCD
  8313 ;;		_WriteDataLCD
  8314 ;; This function uses a non-reentrant model
  8315 ;;
  8316                           psect	text1176
  8317                           	file	"C:\Users\Studio-Master\Desktop\Work\THC\27.05_DTHC\DisplayDTHC\c16_lcd_driver.c"
  8318                           	line	345
  8319                           	global	__size_of_Read_BusyLCD
  8320  0032                     	__size_of_Read_BusyLCD	equ	__end_of_Read_BusyLCD-_Read_BusyLCD
  8321                           	
  8322  1250                     _Read_BusyLCD:	
  8323                           	opt	stack 2
  8324                           ; Regs used in _Read_BusyLCD: [wreg+status,2+status,0+pclath+cstack]
  8325                           	line	348
  8326                           	
  8327  1250                     l9068:	
  8328                           ;c16_lcd_driver.c: 348: TRISDbits.TRISD7 = 1;
  8329  1250  1683               	bsf	status, 5	;RP0=1, select bank1
  8330  1251  1303               	bcf	status, 6	;RP1=0, select bank1
  8331  1252  1788               	bsf	(136)^080h,7	;volatile
  8332                           	line	349
  8333                           ;c16_lcd_driver.c: 349: TRISDbits.TRISD6 = 1;
  8334  1253  1708               	bsf	(136)^080h,6	;volatile
  8335                           	line	350
  8336                           ;c16_lcd_driver.c: 350: TRISDbits.TRISD5 = 1;
  8337  1254  1688               	bsf	(136)^080h,5	;volatile
  8338                           	line	351
  8339                           ;c16_lcd_driver.c: 351: TRISDbits.TRISD4 = 1;
  8340  1255  1608               	bsf	(136)^080h,4	;volatile
  8341                           	line	353
  8342                           ;c16_lcd_driver.c: 353: PORTBbits.RB1 = 1;
  8343  1256  1283               	bcf	status, 5	;RP0=0, select bank0
  8344  1257  1303               	bcf	status, 6	;RP1=0, select bank0
  8345  1258  1486               	bsf	(6),1	;volatile
  8346                           	line	354
  8347                           ;c16_lcd_driver.c: 354: PORTBbits.RB2 = 0;
  8348  1259  1106               	bcf	(6),2	;volatile
  8349                           	line	355
  8350                           	
  8351  125A                     l9070:	
  8352                           ;c16_lcd_driver.c: 355: Delay_tW_LCD();
  8353  125A  160A  118A  20A8   	fcall	_Delay_tW_LCD
              160A  118A         
  8354                           	line	357
  8355                           	
  8356  125F                     l9072:	
  8357                           ;c16_lcd_driver.c: 357: PORTBbits.RB0 = 1;
  8358  125F  1283               	bcf	status, 5	;RP0=0, select bank0
  8359  1260  1303               	bcf	status, 6	;RP1=0, select bank0
  8360  1261  1406               	bsf	(6),0	;volatile
  8361                           	line	358
  8362                           ;c16_lcd_driver.c: 358: Delay_tW_LCD();
  8363  1262  160A  118A  20A8   	fcall	_Delay_tW_LCD
              160A  118A         
  8364                           	line	360
  8365                           	
  8366  1267                     l9074:	
  8367                           ;c16_lcd_driver.c: 360: saveLevelTemp = PORTDbits.RD4;
  8368  1267  3000               	movlw	0
  8369  1268  1283               	bcf	status, 5	;RP0=0, select bank0
  8370  1269  1303               	bcf	status, 6	;RP1=0, select bank0
  8371  126A  1A08               	btfsc	(8),4	;volatile
  8372  126B  3001               	movlw	1
  8373  126C  00F4               	movwf	(_saveLevelTemp)
  8374                           	line	362
  8375                           	
  8376  126D                     l9076:	
  8377                           ;c16_lcd_driver.c: 362: PORTBbits.RB0 = 0;
  8378  126D  1006               	bcf	(6),0	;volatile
  8379                           	line	363
  8380                           	
  8381  126E                     l9078:	
  8382                           ;c16_lcd_driver.c: 363: Delay_tW_LCD();
  8383  126E  160A  118A  20A8   	fcall	_Delay_tW_LCD
              160A  118A         
  8384                           	line	364
  8385                           	
  8386  1273                     l9080:	
  8387                           ;c16_lcd_driver.c: 364: PORTBbits.RB0 = 1;
  8388  1273  1283               	bcf	status, 5	;RP0=0, select bank0
  8389  1274  1303               	bcf	status, 6	;RP1=0, select bank0
  8390  1275  1406               	bsf	(6),0	;volatile
  8391                           	line	365
  8392                           	
  8393  1276                     l9082:	
  8394                           ;c16_lcd_driver.c: 365: Delay_tW_LCD();
  8395  1276  160A  118A  20A8   	fcall	_Delay_tW_LCD
              160A  118A         
  8396                           	line	366
  8397                           	
  8398  127B                     l9084:	
  8399                           ;c16_lcd_driver.c: 366: PORTBbits.RB0 = 0;
  8400  127B  1283               	bcf	status, 5	;RP0=0, select bank0
  8401  127C  1303               	bcf	status, 6	;RP1=0, select bank0
  8402  127D  1006               	bcf	(6),0	;volatile
  8403                           	line	367
  8404                           	
  8405  127E                     l9086:	
  8406                           ;c16_lcd_driver.c: 367: PORTBbits.RB1 = 0;
  8407  127E  1086               	bcf	(6),1	;volatile
  8408                           	line	368
  8409                           	
  8410  127F                     l9088:	
  8411                           ;c16_lcd_driver.c: 368: return saveLevelTemp;
  8412  127F  0874               	movf	(_saveLevelTemp),w
  8413  1280  2A81               	goto	l2292
  8414                           	
  8415  1281                     l9090:	
  8416                           	line	369
  8417                           	
  8418  1281                     l2292:	
  8419  1281  0008               	return
  8420                           	opt stack 0
  8421                           GLOBAL	__end_of_Read_BusyLCD
  8422  1282                     	__end_of_Read_BusyLCD:
  8423 ;; =============== function _Read_BusyLCD ends ============
  8424                           
  8425                           	signat	_Read_BusyLCD,89
  8426                           	global	_sprintf
  8427                           psect	text1177,local,class=CODE,delta=2
  8428                           global __ptext1177
  8429  00D2                     __ptext1177:
  8430                           
  8431 ;; *************** function _sprintf *****************
  8432 ;; Defined at:
  8433 ;;		line 488 in file "C:\Program Files (x86)\HI-TECH Software\PICC\9.81\lib\doprnt.c"
  8434 ;; Parameters:    Size  Location     Type
  8435 ;;  sp              1    wreg     PTR unsigned char 
  8436 ;;		 -> lcd_buf(16), 
  8437 ;;  f               1   14[BANK0 ] PTR const unsigned char 
  8438 ;;		 -> STR_16(6), STR_15(6), STR_14(6), STR_13(6), 
  8439 ;;		 -> STR_12(4), STR_11(4), STR_10(4), STR_9(4), 
  8440 ;;		 -> STR_8(4), STR_7(5), STR_6(10), 
  8441 ;; Auto vars:     Size  Location     Type
  8442 ;;  sp              1   25[BANK0 ] PTR unsigned char 
  8443 ;;		 -> lcd_buf(16), 
  8444 ;;  _val            3   29[BANK0 ] struct .
  8445 ;;  width           2   26[BANK0 ] int 
  8446 ;;  c               1   28[BANK0 ] char 
  8447 ;;  ap              1   24[BANK0 ] PTR void [1]
  8448 ;;		 -> ?_sprintf(2), 
  8449 ;;  prec            1   23[BANK0 ] char 
  8450 ;;  flag            1   22[BANK0 ] unsigned char 
  8451 ;; Return value:  Size  Location     Type
  8452 ;;                  2   14[BANK0 ] int 
  8453 ;; Registers used:
  8454 ;;		wreg, fsr0l, fsr0h, status,2, status,0, btemp+1, pclath, cstack
  8455 ;; Tracked objects:
  8456 ;;		On entry : 0/0
  8457 ;;		On exit  : 0/0
  8458 ;;		Unchanged: 0/0
  8459 ;; Data sizes:     COMMON   BANK0   BANK1   BANK3   BANK2
  8460 ;;      Params:         0       4       0       0       0
  8461 ;;      Locals:         0      10       0       0       0
  8462 ;;      Temps:          0       4       0       0       0
  8463 ;;      Totals:         0      18       0       0       0
  8464 ;;Total ram usage:       18 bytes
  8465 ;; Hardware stack levels used:    1
  8466 ;; Hardware stack levels required when called:    2
  8467 ;; This function calls:
  8468 ;;		_isdigit
  8469 ;;		___wmul
  8470 ;;		___lwdiv
  8471 ;;		___lwmod
  8472 ;; This function is called by:
  8473 ;;		_LCD_Update
  8474 ;;		_LCD_Repaint
  8475 ;;		_LCD_SetMode
  8476 ;; This function uses a non-reentrant model
  8477 ;;
  8478                           psect	text1177
  8479                           	file	"C:\Program Files (x86)\HI-TECH Software\PICC\9.81\sources\doprnt.c"
  8480                           	line	488
  8481                           	global	__size_of_sprintf
  8482  0210                     	__size_of_sprintf	equ	__end_of_sprintf-_sprintf
  8483                           	
  8484  00D2                     _sprintf:	
  8485                           	opt	stack 4
  8486                           ; Regs used in _sprintf: [wreg-fsr0h+status,2+status,0+btemp+1+pclath+cstack]
  8487                           ;sprintf@sp stored from wreg
  8488                           	line	537
  8489  00D2  1283               	bcf	status, 5	;RP0=0, select bank0
  8490  00D3  1303               	bcf	status, 6	;RP1=0, select bank0
  8491  00D4  00B9               	movwf	(sprintf@sp)
  8492                           	
  8493  00D5                     l8958:	
  8494  00D5  302F               	movlw	(?_sprintf+01h)&0ffh
  8495  00D6  00B2               	movwf	(??_sprintf+0)+0
  8496  00D7  0832               	movf	(??_sprintf+0)+0,w
  8497  00D8  00B8               	movwf	(sprintf@ap)
  8498                           	line	540
  8499  00D9  2AC6               	goto	l9062
  8500                           	
  8501  00DA                     l4522:	
  8502                           	line	542
  8503                           	
  8504  00DA                     l8960:	
  8505  00DA  083C               	movf	(sprintf@c),w
  8506  00DB  3A25               	xorlw	025h
  8507  00DC  1903               	skipnz
  8508  00DD  28DF               	goto	u5671
  8509  00DE  28E0               	goto	u5670
  8510  00DF                     u5671:
  8511  00DF  28EC               	goto	l8966
  8512  00E0                     u5670:
  8513                           	line	545
  8514                           	
  8515  00E0                     l8962:	
  8516  00E0  083C               	movf	(sprintf@c),w
  8517  00E1  00B2               	movwf	(??_sprintf+0)+0
  8518  00E2  0839               	movf	(sprintf@sp),w
  8519  00E3  0084               	movwf	fsr0
  8520  00E4  0832               	movf	(??_sprintf+0)+0,w
  8521  00E5  1383               	bcf	status, 7	;select IRP bank0
  8522  00E6  0080               	movwf	indf
  8523                           	
  8524  00E7                     l8964:	
  8525  00E7  3001               	movlw	(01h)
  8526  00E8  00B2               	movwf	(??_sprintf+0)+0
  8527  00E9  0832               	movf	(??_sprintf+0)+0,w
  8528  00EA  07B9               	addwf	(sprintf@sp),f
  8529                           	line	546
  8530  00EB  2AC6               	goto	l9062
  8531                           	line	547
  8532                           	
  8533  00EC                     l4523:	
  8534                           	line	550
  8535                           	
  8536  00EC                     l8966:	
  8537  00EC  01BA               	clrf	(sprintf@width)
  8538  00ED  01BB               	clrf	(sprintf@width+1)
  8539                           	line	552
  8540                           	
  8541  00EE                     l8968:	
  8542  00EE  01B6               	clrf	(sprintf@flag)
  8543                           	line	601
  8544                           	
  8545  00EF                     l8970:	
  8546  00EF  082E               	movf	(sprintf@f),w
  8547  00F0  0084               	movwf	fsr0
  8548  00F1  120A  118A  2015   	fcall	stringdir
              120A  118A         
  8549  00F6  160A  118A  217B   	fcall	_isdigit
              120A  118A         
  8550  00FB  1C03               	btfss	status,0
  8551  00FC  28FE               	goto	u5681
  8552  00FD  28FF               	goto	u5680
  8553  00FE                     u5681:
  8554  00FE  29D9               	goto	l9018
  8555  00FF                     u5680:
  8556                           	line	602
  8557                           	
  8558  00FF                     l8972:	
  8559  00FF  1283               	bcf	status, 5	;RP0=0, select bank0
  8560  0100  1303               	bcf	status, 6	;RP1=0, select bank0
  8561  0101  01BA               	clrf	(sprintf@width)
  8562  0102  01BB               	clrf	(sprintf@width+1)
  8563  0103  2904               	goto	l8974
  8564                           	line	603
  8565                           	
  8566  0104                     l4525:	
  8567                           	line	604
  8568                           	
  8569  0104                     l8974:	
  8570  0104  1283               	bcf	status, 5	;RP0=0, select bank0
  8571  0105  1303               	bcf	status, 6	;RP1=0, select bank0
  8572  0106  082E               	movf	(sprintf@f),w
  8573  0107  0084               	movwf	fsr0
  8574  0108  120A  118A  2015   	fcall	stringdir
              120A  118A         
  8575  010D  00B2               	movwf	(??_sprintf+0)+0
  8576  010E  01B3               	clrf	(??_sprintf+0)+0+1
  8577  010F  083B               	movf	(sprintf@width+1),w
  8578  0110  01A1               	clrf	(?___wmul+1)
  8579  0111  07A1               	addwf	(?___wmul+1)
  8580  0112  083A               	movf	(sprintf@width),w
  8581  0113  01A0               	clrf	(?___wmul)
  8582  0114  07A0               	addwf	(?___wmul)
  8583                           
  8584  0115  300A               	movlw	low(0Ah)
  8585  0116  00A2               	movwf	0+(?___wmul)+02h
  8586  0117  3000               	movlw	high(0Ah)
  8587  0118  00A3               	movwf	(0+(?___wmul)+02h)+1
  8588  0119  160A  118A  21F6   	fcall	___wmul
              120A  118A         
  8589  011E  1283               	bcf	status, 5	;RP0=0, select bank0
  8590  011F  1303               	bcf	status, 6	;RP1=0, select bank0
  8591  0120  0832               	movf	0+(??_sprintf+0)+0,w
  8592  0121  0720               	addwf	(0+(?___wmul)),w
  8593  0122  00B4               	movwf	(??_sprintf+2)+0
  8594  0123  0833               	movf	1+(??_sprintf+0)+0,w
  8595  0124  1803               	skipnc
  8596  0125  0A33               	incf	1+(??_sprintf+0)+0,w
  8597  0126  0721               	addwf	(1+(?___wmul)),w
  8598  0127  00B5               	movwf	1+(??_sprintf+2)+0
  8599  0128  0834               	movf	0+(??_sprintf+2)+0,w
  8600  0129  3ED0               	addlw	low(0FFD0h)
  8601  012A  00BA               	movwf	(sprintf@width)
  8602  012B  0835               	movf	1+(??_sprintf+2)+0,w
  8603  012C  1803               	skipnc
  8604  012D  3E01               	addlw	1
  8605  012E  3EFF               	addlw	high(0FFD0h)
  8606  012F  00BB               	movwf	1+(sprintf@width)
  8607                           	
  8608  0130                     l8976:	
  8609  0130  3001               	movlw	(01h)
  8610  0131  00B2               	movwf	(??_sprintf+0)+0
  8611  0132  0832               	movf	(??_sprintf+0)+0,w
  8612  0133  07AE               	addwf	(sprintf@f),f
  8613                           	line	605
  8614                           	
  8615  0134                     l8978:	
  8616  0134  082E               	movf	(sprintf@f),w
  8617  0135  0084               	movwf	fsr0
  8618  0136  120A  118A  2015   	fcall	stringdir
              120A  118A         
  8619  013B  160A  118A  217B   	fcall	_isdigit
              120A  118A         
  8620  0140  1803               	btfsc	status,0
  8621  0141  2943               	goto	u5691
  8622  0142  2944               	goto	u5690
  8623  0143                     u5691:
  8624  0143  2904               	goto	l8974
  8625  0144                     u5690:
  8626  0144  29D9               	goto	l9018
  8627                           	
  8628  0145                     l4526:	
  8629  0145  29D9               	goto	l9018
  8630                           	line	611
  8631                           	
  8632  0146                     l4524:	
  8633                           	line	638
  8634  0146  29D9               	goto	l9018
  8635                           	line	640
  8636                           	
  8637  0147                     l4528:	
  8638                           	line	641
  8639  0147  2ADA               	goto	l9064
  8640                           	line	731
  8641                           	
  8642  0148                     l4530:	
  8643                           	line	737
  8644                           	
  8645  0148                     l8980:	
  8646  0148  1283               	bcf	status, 5	;RP0=0, select bank0
  8647  0149  1303               	bcf	status, 6	;RP1=0, select bank0
  8648  014A  0838               	movf	(sprintf@ap),w
  8649  014B  0084               	movwf	fsr0
  8650  014C  1383               	bcf	status, 7	;select IRP bank0
  8651  014D  0800               	movf	indf,w
  8652  014E  00B2               	movwf	(??_sprintf+0)+0
  8653  014F  0832               	movf	(??_sprintf+0)+0,w
  8654  0150  00BD               	movwf	(sprintf@_val)
  8655                           	
  8656  0151                     l8982:	
  8657  0151  3001               	movlw	(01h)
  8658  0152  00B2               	movwf	(??_sprintf+0)+0
  8659  0153  0832               	movf	(??_sprintf+0)+0,w
  8660  0154  07B8               	addwf	(sprintf@ap),f
  8661                           	line	743
  8662                           	
  8663  0155                     l8984:	
  8664  0155  08BD               	movf	(sprintf@_val),f
  8665  0156  1D03               	skipz
  8666  0157  2959               	goto	u5701
  8667  0158  295A               	goto	u5700
  8668  0159                     u5701:
  8669  0159  295F               	goto	l8988
  8670  015A                     u5700:
  8671                           	line	744
  8672                           	
  8673  015A                     l8986:	
  8674  015A  3095               	movlw	((STR_17-__stringbase))&0ffh
  8675  015B  00B2               	movwf	(??_sprintf+0)+0
  8676  015C  0832               	movf	(??_sprintf+0)+0,w
  8677  015D  00BD               	movwf	(sprintf@_val)
  8678  015E  295F               	goto	l8988
  8679                           	
  8680  015F                     l4531:	
  8681                           	line	748
  8682                           	
  8683  015F                     l8988:	
  8684  015F  01BE               	clrf	0+(sprintf@_val)+01h
  8685  0160  01BF               	clrf	1+(sprintf@_val)+01h
  8686                           	line	749
  8687  0161  2969               	goto	l8992
  8688                           	
  8689  0162                     l4533:	
  8690                           	line	750
  8691                           	
  8692  0162                     l8990:	
  8693  0162  3001               	movlw	low(01h)
  8694  0163  07BE               	addwf	0+(sprintf@_val)+01h,f
  8695  0164  1803               	skipnc
  8696  0165  0ABF               	incf	1+(sprintf@_val)+01h,f
  8697  0166  3000               	movlw	high(01h)
  8698  0167  07BF               	addwf	1+(sprintf@_val)+01h,f
  8699  0168  2969               	goto	l8992
  8700                           	
  8701  0169                     l4532:	
  8702                           	line	749
  8703                           	
  8704  0169                     l8992:	
  8705  0169  083E               	movf	0+(sprintf@_val)+01h,w
  8706  016A  073D               	addwf	(sprintf@_val),w
  8707  016B  0084               	movwf	fsr0
  8708  016C  120A  118A  2015   	fcall	stringdir
              120A  118A         
  8709  0171  3800               	iorlw	0
  8710  0172  1D03               	skipz
  8711  0173  2975               	goto	u5711
  8712  0174  2976               	goto	u5710
  8713  0175                     u5711:
  8714  0175  2962               	goto	l8990
  8715  0176                     u5710:
  8716  0176  2977               	goto	l8994
  8717                           	
  8718  0177                     l4534:	
  8719                           	line	760
  8720                           	
  8721  0177                     l8994:	
  8722  0177  083B               	movf	(sprintf@width+1),w
  8723  0178  023F               	subwf	1+(sprintf@_val)+01h,w
  8724  0179  1D03               	skipz
  8725  017A  297D               	goto	u5725
  8726  017B  083A               	movf	(sprintf@width),w
  8727  017C  023E               	subwf	0+(sprintf@_val)+01h,w
  8728  017D                     u5725:
  8729  017D  1803               	skipnc
  8730  017E  2980               	goto	u5721
  8731  017F  2981               	goto	u5720
  8732  0180                     u5721:
  8733  0180  2988               	goto	l8998
  8734  0181                     u5720:
  8735                           	line	761
  8736                           	
  8737  0181                     l8996:	
  8738  0181  083E               	movf	0+(sprintf@_val)+01h,w
  8739  0182  02BA               	subwf	(sprintf@width),f
  8740  0183  083F               	movf	1+(sprintf@_val)+01h,w
  8741  0184  1C03               	skipc
  8742  0185  03BB               	decf	(sprintf@width+1),f
  8743  0186  02BB               	subwf	(sprintf@width+1),f
  8744  0187  2998               	goto	l9004
  8745                           	line	762
  8746                           	
  8747  0188                     l4535:	
  8748                           	line	763
  8749                           	
  8750  0188                     l8998:	
  8751  0188  01BA               	clrf	(sprintf@width)
  8752  0189  01BB               	clrf	(sprintf@width+1)
  8753  018A  2998               	goto	l9004
  8754                           	
  8755  018B                     l4536:	
  8756                           	line	767
  8757  018B  2998               	goto	l9004
  8758                           	
  8759  018C                     l4538:	
  8760                           	line	768
  8761                           	
  8762  018C                     l9000:	
  8763  018C  3020               	movlw	(020h)
  8764  018D  00B2               	movwf	(??_sprintf+0)+0
  8765  018E  0839               	movf	(sprintf@sp),w
  8766  018F  0084               	movwf	fsr0
  8767  0190  0832               	movf	(??_sprintf+0)+0,w
  8768  0191  1383               	bcf	status, 7	;select IRP bank0
  8769  0192  0080               	movwf	indf
  8770                           	
  8771  0193                     l9002:	
  8772  0193  3001               	movlw	(01h)
  8773  0194  00B2               	movwf	(??_sprintf+0)+0
  8774  0195  0832               	movf	(??_sprintf+0)+0,w
  8775  0196  07B9               	addwf	(sprintf@sp),f
  8776  0197  2998               	goto	l9004
  8777                           	
  8778  0198                     l4537:	
  8779                           	line	767
  8780                           	
  8781  0198                     l9004:	
  8782  0198  30FF               	movlw	low(-1)
  8783  0199  07BA               	addwf	(sprintf@width),f
  8784  019A  1803               	skipnc
  8785  019B  0ABB               	incf	(sprintf@width+1),f
  8786  019C  30FF               	movlw	high(-1)
  8787  019D  07BB               	addwf	(sprintf@width+1),f
  8788  019E  30FF               	movlw	high(-1)
  8789  019F  063B               	xorwf	((sprintf@width+1)),w
  8790  01A0  1D03               	skipz
  8791  01A1  29A4               	goto	u5735
  8792  01A2  30FF               	movlw	low(-1)
  8793  01A3  063A               	xorwf	((sprintf@width)),w
  8794  01A4                     u5735:
  8795                           
  8796  01A4  1D03               	skipz
  8797  01A5  29A7               	goto	u5731
  8798  01A6  29A8               	goto	u5730
  8799  01A7                     u5731:
  8800  01A7  298C               	goto	l9000
  8801  01A8                     u5730:
  8802  01A8  29C0               	goto	l9012
  8803                           	
  8804  01A9                     l4539:	
  8805                           	line	770
  8806  01A9  29C0               	goto	l9012
  8807                           	
  8808  01AA                     l4541:	
  8809                           	line	771
  8810                           	
  8811  01AA                     l9006:	
  8812  01AA  083D               	movf	(sprintf@_val),w
  8813  01AB  0084               	movwf	fsr0
  8814  01AC  120A  118A  2015   	fcall	stringdir
              120A  118A         
  8815  01B1  00B2               	movwf	(??_sprintf+0)+0
  8816  01B2  0839               	movf	(sprintf@sp),w
  8817  01B3  0084               	movwf	fsr0
  8818  01B4  0832               	movf	(??_sprintf+0)+0,w
  8819  01B5  1383               	bcf	status, 7	;select IRP bank0
  8820  01B6  0080               	movwf	indf
  8821                           	
  8822  01B7                     l9008:	
  8823  01B7  3001               	movlw	(01h)
  8824  01B8  00B2               	movwf	(??_sprintf+0)+0
  8825  01B9  0832               	movf	(??_sprintf+0)+0,w
  8826  01BA  07BD               	addwf	(sprintf@_val),f
  8827                           	
  8828  01BB                     l9010:	
  8829  01BB  3001               	movlw	(01h)
  8830  01BC  00B2               	movwf	(??_sprintf+0)+0
  8831  01BD  0832               	movf	(??_sprintf+0)+0,w
  8832  01BE  07B9               	addwf	(sprintf@sp),f
  8833  01BF  29C0               	goto	l9012
  8834                           	
  8835  01C0                     l4540:	
  8836                           	line	770
  8837                           	
  8838  01C0                     l9012:	
  8839  01C0  3001               	movlw	low(01h)
  8840  01C1  02BE               	subwf	0+(sprintf@_val)+01h,f
  8841  01C2  3000               	movlw	high(01h)
  8842  01C3  1C03               	skipc
  8843  01C4  03BF               	decf	1+(sprintf@_val)+01h,f
  8844  01C5  02BF               	subwf	1+(sprintf@_val)+01h,f
  8845  01C6  30FF               	movlw	high(0FFFFh)
  8846  01C7  063F               	xorwf	(1+(sprintf@_val)+01h),w
  8847  01C8  1D03               	skipz
  8848  01C9  29CC               	goto	u5745
  8849  01CA  30FF               	movlw	low(0FFFFh)
  8850  01CB  063E               	xorwf	(0+(sprintf@_val)+01h),w
  8851  01CC                     u5745:
  8852                           
  8853  01CC  1D03               	skipz
  8854  01CD  29CF               	goto	u5741
  8855  01CE  29D0               	goto	u5740
  8856  01CF                     u5741:
  8857  01CF  29AA               	goto	l9006
  8858  01D0                     u5740:
  8859  01D0  2AC6               	goto	l9062
  8860                           	
  8861  01D1                     l4542:	
  8862                           	line	777
  8863  01D1  2AC6               	goto	l9062
  8864                           	line	805
  8865                           	
  8866  01D2                     l4543:	
  8867                           	line	816
  8868  01D2  2AC6               	goto	l9062
  8869                           	line	820
  8870                           	
  8871  01D3                     l4544:	
  8872                           	line	821
  8873                           	
  8874  01D3                     l9014:	
  8875  01D3  30C0               	movlw	(0C0h)
  8876  01D4  00B2               	movwf	(??_sprintf+0)+0
  8877  01D5  0832               	movf	(??_sprintf+0)+0,w
  8878  01D6  04B6               	iorwf	(sprintf@flag),f
  8879                           	line	822
  8880  01D7  29F0               	goto	l9020
  8881                           	line	825
  8882                           	
  8883  01D8                     l9016:	
  8884  01D8  29F0               	goto	l9020
  8885                           	line	638
  8886                           	
  8887  01D9                     l4527:	
  8888                           	
  8889  01D9                     l9018:	
  8890  01D9  3001               	movlw	01h
  8891  01DA  1283               	bcf	status, 5	;RP0=0, select bank0
  8892  01DB  1303               	bcf	status, 6	;RP1=0, select bank0
  8893  01DC  07AE               	addwf	(sprintf@f),f
  8894  01DD  30FF               	movlw	-01h
  8895  01DE  072E               	addwf	(sprintf@f),w
  8896  01DF  0084               	movwf	fsr0
  8897  01E0  120A  118A  2015   	fcall	stringdir
              120A  118A         
  8898  01E5  00BC               	movwf	(sprintf@c)
  8899                           	; Switch size 1, requested type "space"
  8900                           ; Number of cases is 3, Range of values is 0 to 117
  8901                           ; switch strategies available:
  8902                           ; Name         Instructions Cycles
  8903                           ; simple_byte           10     6 (average)
  8904                           ; jumptable            260     6 (fixed)
  8905                           ; rangetable           122     6 (fixed)
  8906                           ; spacedrange          242     9 (fixed)
  8907                           ; locatedrange         118     3 (fixed)
  8908                           ;	Chosen strategy is simple_byte
  8909                           
  8910                           	opt asmopt_off
  8911  01E6  3A00               	xorlw	0^0	; case 0
  8912  01E7  1903               	skipnz
  8913  01E8  2ADA               	goto	l9064
  8914  01E9  3A73               	xorlw	115^0	; case 115
  8915  01EA  1903               	skipnz
  8916  01EB  2948               	goto	l8980
  8917  01EC  3A06               	xorlw	117^115	; case 117
  8918  01ED  1903               	skipnz
  8919  01EE  29D3               	goto	l9014
  8920  01EF  2AC6               	goto	l9062
  8921                           	opt asmopt_on
  8922                           
  8923                           	line	825
  8924                           	
  8925  01F0                     l4545:	
  8926                           	line	1281
  8927                           	
  8928  01F0                     l9020:	
  8929  01F0  0838               	movf	(sprintf@ap),w
  8930  01F1  0084               	movwf	fsr0
  8931  01F2  1383               	bcf	status, 7	;select IRP bank0
  8932  01F3  0800               	movf	indf,w
  8933  01F4  00BD               	movwf	(sprintf@_val)
  8934  01F5  0A84               	incf	fsr0,f
  8935  01F6  0800               	movf	indf,w
  8936  01F7  00BE               	movwf	(sprintf@_val+1)
  8937                           	
  8938  01F8                     l9022:	
  8939  01F8  3002               	movlw	(02h)
  8940  01F9  00B2               	movwf	(??_sprintf+0)+0
  8941  01FA  0832               	movf	(??_sprintf+0)+0,w
  8942  01FB  07B8               	addwf	(sprintf@ap),f
  8943                           	line	1300
  8944                           	
  8945  01FC                     l9024:	
  8946  01FC  01BC               	clrf	(sprintf@c)
  8947  01FD  1403               	bsf	status,0
  8948  01FE  0DBC               	rlf	(sprintf@c),f
  8949                           	
  8950  01FF                     l9026:	
  8951  01FF  083C               	movf	(sprintf@c),w
  8952  0200  3A05               	xorlw	05h
  8953  0201  1D03               	skipz
  8954  0202  2A04               	goto	u5751
  8955  0203  2A05               	goto	u5750
  8956  0204                     u5751:
  8957  0204  2A07               	goto	l9030
  8958  0205                     u5750:
  8959  0205  2A2F               	goto	l9038
  8960                           	
  8961  0206                     l9028:	
  8962  0206  2A2F               	goto	l9038
  8963                           	line	1301
  8964                           	
  8965  0207                     l4546:	
  8966                           	
  8967  0207                     l9030:	
  8968  0207  083C               	movf	(sprintf@c),w
  8969  0208  00B2               	movwf	(??_sprintf+0)+0
  8970  0209  0732               	addwf	(??_sprintf+0)+0,w
  8971  020A  3E01               	addlw	low((_dpowers-__stringbase))
  8972  020B  0084               	movwf	fsr0
  8973  020C  120A  118A  2015   	fcall	stringdir
              120A  118A         
  8974  0211  00B3               	movwf	(??_sprintf+1)+0
  8975  0212  120A  118A  2015   	fcall	stringdir
              120A  118A         
  8976  0217  00B4               	movwf	(??_sprintf+1)+0+1
  8977  0218  0834               	movf	1+(??_sprintf+1)+0,w
  8978  0219  023E               	subwf	(sprintf@_val+1),w
  8979  021A  1D03               	skipz
  8980  021B  2A1E               	goto	u5765
  8981  021C  0833               	movf	0+(??_sprintf+1)+0,w
  8982  021D  023D               	subwf	(sprintf@_val),w
  8983  021E                     u5765:
  8984  021E  1803               	skipnc
  8985  021F  2A21               	goto	u5761
  8986  0220  2A22               	goto	u5760
  8987  0221                     u5761:
  8988  0221  2A24               	goto	l9034
  8989  0222                     u5760:
  8990  0222  2A2F               	goto	l9038
  8991                           	line	1302
  8992                           	
  8993  0223                     l9032:	
  8994  0223  2A2F               	goto	l9038
  8995                           	
  8996  0224                     l4548:	
  8997                           	line	1300
  8998                           	
  8999  0224                     l9034:	
  9000  0224  3001               	movlw	(01h)
  9001  0225  00B2               	movwf	(??_sprintf+0)+0
  9002  0226  0832               	movf	(??_sprintf+0)+0,w
  9003  0227  07BC               	addwf	(sprintf@c),f
  9004                           	
  9005  0228                     l9036:	
  9006  0228  083C               	movf	(sprintf@c),w
  9007  0229  3A05               	xorlw	05h
  9008  022A  1D03               	skipz
  9009  022B  2A2D               	goto	u5771
  9010  022C  2A2E               	goto	u5770
  9011  022D                     u5771:
  9012  022D  2A07               	goto	l9030
  9013  022E                     u5770:
  9014  022E  2A2F               	goto	l9038
  9015                           	
  9016  022F                     l4547:	
  9017                           	line	1376
  9018                           	
  9019  022F                     l9038:	
  9020  022F  083C               	movf	(sprintf@c),w
  9021  0230  00B2               	movwf	(??_sprintf+0)+0
  9022  0231  01B3               	clrf	(??_sprintf+0)+0+1
  9023  0232  1BB2               	btfsc	(??_sprintf+0)+0,7
  9024  0233  03B3               	decf	(??_sprintf+0)+0+1,f
  9025  0234  0833               	movf	1+(??_sprintf+0)+0,w
  9026  0235  3A80               	xorlw	80h
  9027  0236  00B4               	movwf	(??_sprintf+2)+0
  9028  0237  083B               	movf	(sprintf@width+1),w
  9029  0238  3A80               	xorlw	80h
  9030  0239  0234               	subwf	(??_sprintf+2)+0,w
  9031  023A  1D03               	skipz
  9032  023B  2A3E               	goto	u5785
  9033  023C  083A               	movf	(sprintf@width),w
  9034  023D  0232               	subwf	0+(??_sprintf+0)+0,w
  9035  023E                     u5785:
  9036                           
  9037  023E  1803               	skipnc
  9038  023F  2A41               	goto	u5781
  9039  0240  2A42               	goto	u5780
  9040  0241                     u5781:
  9041  0241  2A50               	goto	l9042
  9042  0242                     u5780:
  9043                           	line	1377
  9044                           	
  9045  0242                     l9040:	
  9046  0242  1283               	bcf	status, 5	;RP0=0, select bank0
  9047  0243  1303               	bcf	status, 6	;RP1=0, select bank0
  9048  0244  083C               	movf	(sprintf@c),w
  9049  0245  00B2               	movwf	(??_sprintf+0)+0
  9050  0246  01B3               	clrf	(??_sprintf+0)+0+1
  9051  0247  1BB2               	btfsc	(??_sprintf+0)+0,7
  9052  0248  03B3               	decf	(??_sprintf+0)+0+1,f
  9053  0249  0832               	movf	0+(??_sprintf+0)+0,w
  9054  024A  02BA               	subwf	(sprintf@width),f
  9055  024B  0833               	movf	1+(??_sprintf+0)+0,w
  9056  024C  1C03               	skipc
  9057  024D  03BB               	decf	(sprintf@width+1),f
  9058  024E  02BB               	subwf	(sprintf@width+1),f
  9059  024F  2A55               	goto	l9044
  9060                           	line	1378
  9061                           	
  9062  0250                     l4549:	
  9063                           	line	1379
  9064                           	
  9065  0250                     l9042:	
  9066  0250  1283               	bcf	status, 5	;RP0=0, select bank0
  9067  0251  1303               	bcf	status, 6	;RP1=0, select bank0
  9068  0252  01BA               	clrf	(sprintf@width)
  9069  0253  01BB               	clrf	(sprintf@width+1)
  9070  0254  2A55               	goto	l9044
  9071                           	
  9072  0255                     l4550:	
  9073                           	line	1423
  9074                           	
  9075  0255                     l9044:	
  9076  0255  083B               	movf	(sprintf@width+1),w
  9077  0256  043A               	iorwf	(sprintf@width),w
  9078  0257  1903               	skipnz
  9079  0258  2A5A               	goto	u5791
  9080  0259  2A5B               	goto	u5790
  9081  025A                     u5791:
  9082  025A  2A75               	goto	l9052
  9083  025B                     u5790:
  9084  025B  2A5C               	goto	l9046
  9085                           	line	1424
  9086                           	
  9087  025C                     l4552:	
  9088                           	line	1425
  9089                           	
  9090  025C                     l9046:	
  9091  025C  3020               	movlw	(020h)
  9092  025D  00B2               	movwf	(??_sprintf+0)+0
  9093  025E  0839               	movf	(sprintf@sp),w
  9094  025F  0084               	movwf	fsr0
  9095  0260  0832               	movf	(??_sprintf+0)+0,w
  9096  0261  1383               	bcf	status, 7	;select IRP bank0
  9097  0262  0080               	movwf	indf
  9098                           	
  9099  0263                     l9048:	
  9100  0263  3001               	movlw	(01h)
  9101  0264  00B2               	movwf	(??_sprintf+0)+0
  9102  0265  0832               	movf	(??_sprintf+0)+0,w
  9103  0266  07B9               	addwf	(sprintf@sp),f
  9104                           	line	1426
  9105                           	
  9106  0267                     l9050:	
  9107  0267  30FF               	movlw	low(-1)
  9108  0268  07BA               	addwf	(sprintf@width),f
  9109  0269  1803               	skipnc
  9110  026A  0ABB               	incf	(sprintf@width+1),f
  9111  026B  30FF               	movlw	high(-1)
  9112  026C  07BB               	addwf	(sprintf@width+1),f
  9113  026D  083B               	movf	(((sprintf@width+1))),w
  9114  026E  043A               	iorwf	(((sprintf@width))),w
  9115  026F  1D03               	skipz
  9116  0270  2A72               	goto	u5801
  9117  0271  2A73               	goto	u5800
  9118  0272                     u5801:
  9119  0272  2A5C               	goto	l9046
  9120  0273                     u5800:
  9121  0273  2A75               	goto	l9052
  9122                           	
  9123  0274                     l4553:	
  9124  0274  2A75               	goto	l9052
  9125                           	
  9126  0275                     l4551:	
  9127                           	line	1467
  9128                           	
  9129  0275                     l9052:	
  9130  0275  083C               	movf	(sprintf@c),w
  9131  0276  00B2               	movwf	(??_sprintf+0)+0
  9132  0277  0832               	movf	(??_sprintf+0)+0,w
  9133  0278  00B7               	movwf	(sprintf@prec)
  9134                           	line	1469
  9135  0279  2ABA               	goto	l9060
  9136                           	
  9137  027A                     l4555:	
  9138                           	line	1484
  9139                           	
  9140  027A                     l9054:	
  9141  027A  300A               	movlw	low(0Ah)
  9142  027B  00A0               	movwf	(?___lwmod)
  9143  027C  3000               	movlw	high(0Ah)
  9144  027D  00A1               	movwf	((?___lwmod))+1
  9145  027E  0837               	movf	(sprintf@prec),w
  9146  027F  00B2               	movwf	(??_sprintf+0)+0
  9147  0280  0732               	addwf	(??_sprintf+0)+0,w
  9148  0281  3E01               	addlw	low((_dpowers-__stringbase))
  9149  0282  0084               	movwf	fsr0
  9150  0283  120A  118A  2015   	fcall	stringdir
              120A  118A         
  9151  0288  00A6               	movwf	(?___lwdiv)
  9152  0289  120A  118A  2015   	fcall	stringdir
              120A  118A         
  9153  028E  00A7               	movwf	(?___lwdiv+1)
  9154  028F  083E               	movf	(sprintf@_val+1),w
  9155  0290  01A9               	clrf	1+(?___lwdiv)+02h
  9156  0291  07A9               	addwf	1+(?___lwdiv)+02h
  9157  0292  083D               	movf	(sprintf@_val),w
  9158  0293  01A8               	clrf	0+(?___lwdiv)+02h
  9159  0294  07A8               	addwf	0+(?___lwdiv)+02h
  9160                           
  9161  0295  160A  118A  2318   	fcall	___lwdiv
              120A  118A         
  9162  029A  1283               	bcf	status, 5	;RP0=0, select bank0
  9163  029B  1303               	bcf	status, 6	;RP1=0, select bank0
  9164  029C  0827               	movf	(1+(?___lwdiv)),w
  9165  029D  01A3               	clrf	1+(?___lwmod)+02h
  9166  029E  07A3               	addwf	1+(?___lwmod)+02h
  9167  029F  0826               	movf	(0+(?___lwdiv)),w
  9168  02A0  01A2               	clrf	0+(?___lwmod)+02h
  9169  02A1  07A2               	addwf	0+(?___lwmod)+02h
  9170                           
  9171  02A2  160A  118A  2282   	fcall	___lwmod
              120A  118A         
  9172  02A7  1283               	bcf	status, 5	;RP0=0, select bank0
  9173  02A8  1303               	bcf	status, 6	;RP1=0, select bank0
  9174  02A9  0820               	movf	(0+(?___lwmod)),w
  9175  02AA  3E30               	addlw	030h
  9176  02AB  00B3               	movwf	(??_sprintf+1)+0
  9177  02AC  0833               	movf	(??_sprintf+1)+0,w
  9178  02AD  00BC               	movwf	(sprintf@c)
  9179                           	line	1516
  9180                           	
  9181  02AE                     l9056:	
  9182  02AE  083C               	movf	(sprintf@c),w
  9183  02AF  00B2               	movwf	(??_sprintf+0)+0
  9184  02B0  0839               	movf	(sprintf@sp),w
  9185  02B1  0084               	movwf	fsr0
  9186  02B2  0832               	movf	(??_sprintf+0)+0,w
  9187  02B3  1383               	bcf	status, 7	;select IRP bank0
  9188  02B4  0080               	movwf	indf
  9189                           	
  9190  02B5                     l9058:	
  9191  02B5  3001               	movlw	(01h)
  9192  02B6  00B2               	movwf	(??_sprintf+0)+0
  9193  02B7  0832               	movf	(??_sprintf+0)+0,w
  9194  02B8  07B9               	addwf	(sprintf@sp),f
  9195  02B9  2ABA               	goto	l9060
  9196                           	line	1517
  9197                           	
  9198  02BA                     l4554:	
  9199                           	line	1469
  9200                           	
  9201  02BA                     l9060:	
  9202  02BA  30FF               	movlw	(-1)
  9203  02BB  00B2               	movwf	(??_sprintf+0)+0
  9204  02BC  0832               	movf	(??_sprintf+0)+0,w
  9205  02BD  07B7               	addwf	(sprintf@prec),f
  9206  02BE  0837               	movf	((sprintf@prec)),w
  9207  02BF  3AFF               	xorlw	-1
  9208  02C0  1D03               	skipz
  9209  02C1  2AC3               	goto	u5811
  9210  02C2  2AC4               	goto	u5810
  9211  02C3                     u5811:
  9212  02C3  2A7A               	goto	l9054
  9213  02C4                     u5810:
  9214  02C4  2AC6               	goto	l9062
  9215                           	
  9216  02C5                     l4556:	
  9217  02C5  2AC6               	goto	l9062
  9218                           	line	1525
  9219                           	
  9220  02C6                     l4521:	
  9221                           	line	540
  9222                           	
  9223  02C6                     l9062:	
  9224  02C6  3001               	movlw	01h
  9225  02C7  07AE               	addwf	(sprintf@f),f
  9226  02C8  30FF               	movlw	-01h
  9227  02C9  072E               	addwf	(sprintf@f),w
  9228  02CA  0084               	movwf	fsr0
  9229  02CB  120A  118A  2015   	fcall	stringdir
              120A  118A         
  9230  02D0  00B2               	movwf	(??_sprintf+0)+0
  9231  02D1  0832               	movf	(??_sprintf+0)+0,w
  9232  02D2  00BC               	movwf	(sprintf@c)
  9233  02D3  08BC               	movf	((sprintf@c)),f
  9234  02D4  1D03               	skipz
  9235  02D5  2AD7               	goto	u5821
  9236  02D6  2AD8               	goto	u5820
  9237  02D7                     u5821:
  9238  02D7  28DA               	goto	l8960
  9239  02D8                     u5820:
  9240  02D8  2ADA               	goto	l9064
  9241                           	
  9242  02D9                     l4557:	
  9243  02D9  2ADA               	goto	l9064
  9244                           	line	1527
  9245                           	
  9246  02DA                     l4529:	
  9247                           	line	1530
  9248                           	
  9249  02DA                     l9064:	
  9250  02DA  1283               	bcf	status, 5	;RP0=0, select bank0
  9251  02DB  1303               	bcf	status, 6	;RP1=0, select bank0
  9252  02DC  0839               	movf	(sprintf@sp),w
  9253  02DD  0084               	movwf	fsr0
  9254  02DE  1383               	bcf	status, 7	;select IRP bank0
  9255  02DF  0180               	clrf	indf
  9256  02E0  2AE1               	goto	l4558
  9257                           	line	1532
  9258                           	
  9259  02E1                     l9066:	
  9260                           	line	1533
  9261                           ;	Return value of _sprintf is never used
  9262                           	
  9263  02E1                     l4558:	
  9264  02E1  0008               	return
  9265                           	opt stack 0
  9266                           GLOBAL	__end_of_sprintf
  9267  02E2                     	__end_of_sprintf:
  9268 ;; =============== function _sprintf ends ============
  9269                           
  9270                           	signat	_sprintf,4698
  9271                           	global	_Delay_tW_LCD
  9272                           psect	text1178,local,class=CODE,delta=2
  9273                           global __ptext1178
  9274  10A8                     __ptext1178:
  9275                           
  9276 ;; *************** function _Delay_tW_LCD *****************
  9277 ;; Defined at:
  9278 ;;		line 335 in file "C:\Users\Studio-Master\Desktop\Work\THC\27.05_DTHC\DisplayDTHC\c16_lcd_driver.c"
  9279 ;; Parameters:    Size  Location     Type
  9280 ;;		None
  9281 ;; Auto vars:     Size  Location     Type
  9282 ;;		None
  9283 ;; Return value:  Size  Location     Type
  9284 ;;		None               void
  9285 ;; Registers used:
  9286 ;;		wreg
  9287 ;; Tracked objects:
  9288 ;;		On entry : 0/0
  9289 ;;		On exit  : 0/0
  9290 ;;		Unchanged: 0/0
  9291 ;; Data sizes:     COMMON   BANK0   BANK1   BANK3   BANK2
  9292 ;;      Params:         0       0       0       0       0
  9293 ;;      Locals:         0       0       0       0       0
  9294 ;;      Temps:          0       1       0       0       0
  9295 ;;      Totals:         0       1       0       0       0
  9296 ;;Total ram usage:        1 bytes
  9297 ;; Hardware stack levels used:    1
  9298 ;; Hardware stack levels required when called:    1
  9299 ;; This function calls:
  9300 ;;		Nothing
  9301 ;; This function is called by:
  9302 ;;		_Initial_4bitLCD
  9303 ;;		_SetCursor
  9304 ;;		_WriteCmdLCD
  9305 ;;		_WriteDataLCD
  9306 ;;		_Read_BusyLCD
  9307 ;; This function uses a non-reentrant model
  9308 ;;
  9309                           psect	text1178
  9310                           	file	"C:\Users\Studio-Master\Desktop\Work\THC\27.05_DTHC\DisplayDTHC\c16_lcd_driver.c"
  9311                           	line	335
  9312                           	global	__size_of_Delay_tW_LCD
  9313  0007                     	__size_of_Delay_tW_LCD	equ	__end_of_Delay_tW_LCD-_Delay_tW_LCD
  9314                           	
  9315  10A8                     _Delay_tW_LCD:	
  9316                           	opt	stack 3
  9317                           ; Regs used in _Delay_tW_LCD: [wreg]
  9318                           	line	338
  9319                           	
  9320  10A8                     l8956:	
  9321                           ;c16_lcd_driver.c: 338: _delay((unsigned long)((20)*(8000000UL/4000000.0)));
  9322                           	opt asmopt_off
  9323  10A8  300D               movlw	13
  9324  10A9  1283               	bcf	status, 5	;RP0=0, select bank0
  9325  10AA  1303               	bcf	status, 6	;RP1=0, select bank0
  9326  10AB  00A0               movwf	(??_Delay_tW_LCD+0)+0,f
  9327  10AC                     u6747:
  9328  10AC  0BA0               decfsz	(??_Delay_tW_LCD+0)+0,f
  9329  10AD  28AC               	goto	u6747
  9330                           opt asmopt_on
  9331                           
  9332                           	line	340
  9333                           	
  9334  10AE                     l2289:	
  9335  10AE  0008               	return
  9336                           	opt stack 0
  9337                           GLOBAL	__end_of_Delay_tW_LCD
  9338  10AF                     	__end_of_Delay_tW_LCD:
  9339 ;; =============== function _Delay_tW_LCD ends ============
  9340                           
  9341                           	signat	_Delay_tW_LCD,88
  9342                           	global	_Lcd_Special_Delay
  9343                           psect	text1179,local,class=CODE,delta=2
  9344                           global __ptext1179
  9345  10E1                     __ptext1179:
  9346                           
  9347 ;; *************** function _Lcd_Special_Delay *****************
  9348 ;; Defined at:
  9349 ;;		line 99 in file "C:\Users\Studio-Master\Desktop\Work\THC\27.05_DTHC\DisplayDTHC\c16_lcd_driver.c"
  9350 ;; Parameters:    Size  Location     Type
  9351 ;;		None
  9352 ;; Auto vars:     Size  Location     Type
  9353 ;;		None
  9354 ;; Return value:  Size  Location     Type
  9355 ;;		None               void
  9356 ;; Registers used:
  9357 ;;		wreg
  9358 ;; Tracked objects:
  9359 ;;		On entry : 0/0
  9360 ;;		On exit  : 0/0
  9361 ;;		Unchanged: 0/0
  9362 ;; Data sizes:     COMMON   BANK0   BANK1   BANK3   BANK2
  9363 ;;      Params:         0       0       0       0       0
  9364 ;;      Locals:         0       0       0       0       0
  9365 ;;      Temps:          0       2       0       0       0
  9366 ;;      Totals:         0       2       0       0       0
  9367 ;;Total ram usage:        2 bytes
  9368 ;; Hardware stack levels used:    1
  9369 ;; Hardware stack levels required when called:    1
  9370 ;; This function calls:
  9371 ;;		Nothing
  9372 ;; This function is called by:
  9373 ;;		_Initial_4bitLCD
  9374 ;;		_Enable_Blink_LCD
  9375 ;;		_Clear_LCD
  9376 ;; This function uses a non-reentrant model
  9377 ;;
  9378                           psect	text1179
  9379                           	file	"C:\Users\Studio-Master\Desktop\Work\THC\27.05_DTHC\DisplayDTHC\c16_lcd_driver.c"
  9380                           	line	99
  9381                           	global	__size_of_Lcd_Special_Delay
  9382  000C                     	__size_of_Lcd_Special_Delay	equ	__end_of_Lcd_Special_Delay-_Lcd_Special_Delay
  9383                           	
  9384  10E1                     _Lcd_Special_Delay:	
  9385                           	opt	stack 4
  9386                           ; Regs used in _Lcd_Special_Delay: [wreg]
  9387                           	line	103
  9388                           	
  9389  10E1                     l8954:	
  9390                           ;c16_lcd_driver.c: 103: _delay((unsigned long)((2)*(8000000UL/4000.0)));
  9391                           	opt asmopt_off
  9392  10E1  3006               movlw	6
  9393  10E2  1283               	bcf	status, 5	;RP0=0, select bank0
  9394  10E3  1303               	bcf	status, 6	;RP1=0, select bank0
  9395  10E4  00A1               movwf	((??_Lcd_Special_Delay+0)+0+1),f
  9396  10E5  3030               	movlw	48
  9397  10E6  00A0               movwf	((??_Lcd_Special_Delay+0)+0),f
  9398  10E7                     u6757:
  9399  10E7  0BA0               	decfsz	((??_Lcd_Special_Delay+0)+0),f
  9400  10E8  28E7               	goto	u6757
  9401  10E9  0BA1               	decfsz	((??_Lcd_Special_Delay+0)+0+1),f
  9402  10EA  28E7               	goto	u6757
  9403  10EB  0064               	clrwdt
  9404                           opt asmopt_on
  9405                           
  9406                           	line	105
  9407                           	
  9408  10EC                     l2254:	
  9409  10EC  0008               	return
  9410                           	opt stack 0
  9411                           GLOBAL	__end_of_Lcd_Special_Delay
  9412  10ED                     	__end_of_Lcd_Special_Delay:
  9413 ;; =============== function _Lcd_Special_Delay ends ============
  9414                           
  9415                           	signat	_Lcd_Special_Delay,88
  9416                           	global	_Lcd_Init_Delay
  9417                           psect	text1180,local,class=CODE,delta=2
  9418                           global __ptext1180
  9419  10D5                     __ptext1180:
  9420                           
  9421 ;; *************** function _Lcd_Init_Delay *****************
  9422 ;; Defined at:
  9423 ;;		line 87 in file "C:\Users\Studio-Master\Desktop\Work\THC\27.05_DTHC\DisplayDTHC\c16_lcd_driver.c"
  9424 ;; Parameters:    Size  Location     Type
  9425 ;;		None
  9426 ;; Auto vars:     Size  Location     Type
  9427 ;;		None
  9428 ;; Return value:  Size  Location     Type
  9429 ;;		None               void
  9430 ;; Registers used:
  9431 ;;		wreg
  9432 ;; Tracked objects:
  9433 ;;		On entry : 0/0
  9434 ;;		On exit  : 0/0
  9435 ;;		Unchanged: 0/0
  9436 ;; Data sizes:     COMMON   BANK0   BANK1   BANK3   BANK2
  9437 ;;      Params:         0       0       0       0       0
  9438 ;;      Locals:         0       0       0       0       0
  9439 ;;      Temps:          0       2       0       0       0
  9440 ;;      Totals:         0       2       0       0       0
  9441 ;;Total ram usage:        2 bytes
  9442 ;; Hardware stack levels used:    1
  9443 ;; Hardware stack levels required when called:    1
  9444 ;; This function calls:
  9445 ;;		Nothing
  9446 ;; This function is called by:
  9447 ;;		_Initial_4bitLCD
  9448 ;; This function uses a non-reentrant model
  9449 ;;
  9450                           psect	text1180
  9451                           	file	"C:\Users\Studio-Master\Desktop\Work\THC\27.05_DTHC\DisplayDTHC\c16_lcd_driver.c"
  9452                           	line	87
  9453                           	global	__size_of_Lcd_Init_Delay
  9454  000C                     	__size_of_Lcd_Init_Delay	equ	__end_of_Lcd_Init_Delay-_Lcd_Init_Delay
  9455                           	
  9456  10D5                     _Lcd_Init_Delay:	
  9457                           	opt	stack 4
  9458                           ; Regs used in _Lcd_Init_Delay: [wreg]
  9459                           	line	91
  9460                           	
  9461  10D5                     l8952:	
  9462                           ;c16_lcd_driver.c: 91: _delay((unsigned long)((40)*(8000000UL/4000.0)));
  9463                           	opt asmopt_off
  9464  10D5  3068               movlw	104
  9465  10D6  1283               	bcf	status, 5	;RP0=0, select bank0
  9466  10D7  1303               	bcf	status, 6	;RP1=0, select bank0
  9467  10D8  00A1               movwf	((??_Lcd_Init_Delay+0)+0+1),f
  9468  10D9  30E4               	movlw	228
  9469  10DA  00A0               movwf	((??_Lcd_Init_Delay+0)+0),f
  9470  10DB                     u6767:
  9471  10DB  0BA0               	decfsz	((??_Lcd_Init_Delay+0)+0),f
  9472  10DC  28DB               	goto	u6767
  9473  10DD  0BA1               	decfsz	((??_Lcd_Init_Delay+0)+0+1),f
  9474  10DE  28DB               	goto	u6767
  9475  10DF  0064               	clrwdt
  9476                           opt asmopt_on
  9477                           
  9478                           	line	93
  9479                           	
  9480  10E0                     l2251:	
  9481  10E0  0008               	return
  9482                           	opt stack 0
  9483                           GLOBAL	__end_of_Lcd_Init_Delay
  9484  10E1                     	__end_of_Lcd_Init_Delay:
  9485 ;; =============== function _Lcd_Init_Delay ends ============
  9486                           
  9487                           	signat	_Lcd_Init_Delay,88
  9488                           	global	___awmod
  9489                           psect	text1181,local,class=CODE,delta=2
  9490                           global __ptext1181
  9491  1368                     __ptext1181:
  9492                           
  9493 ;; *************** function ___awmod *****************
  9494 ;; Defined at:
  9495 ;;		line 5 in file "C:\Program Files (x86)\HI-TECH Software\PICC\9.81\sources\awmod.c"
  9496 ;; Parameters:    Size  Location     Type
  9497 ;;  divisor         2    0[BANK0 ] int 
  9498 ;;  dividend        2    2[BANK0 ] int 
  9499 ;; Auto vars:     Size  Location     Type
  9500 ;;  sign            1    6[BANK0 ] unsigned char 
  9501 ;;  counter         1    5[BANK0 ] unsigned char 
  9502 ;; Return value:  Size  Location     Type
  9503 ;;                  2    0[BANK0 ] int 
  9504 ;; Registers used:
  9505 ;;		wreg, status,2, status,0
  9506 ;; Tracked objects:
  9507 ;;		On entry : 0/0
  9508 ;;		On exit  : 0/0
  9509 ;;		Unchanged: 0/0
  9510 ;; Data sizes:     COMMON   BANK0   BANK1   BANK3   BANK2
  9511 ;;      Params:         0       4       0       0       0
  9512 ;;      Locals:         0       2       0       0       0
  9513 ;;      Temps:          0       1       0       0       0
  9514 ;;      Totals:         0       7       0       0       0
  9515 ;;Total ram usage:        7 bytes
  9516 ;; Hardware stack levels used:    1
  9517 ;; Hardware stack levels required when called:    1
  9518 ;; This function calls:
  9519 ;;		Nothing
  9520 ;; This function is called by:
  9521 ;;		_main
  9522 ;; This function uses a non-reentrant model
  9523 ;;
  9524                           psect	text1181
  9525                           	file	"C:\Program Files (x86)\HI-TECH Software\PICC\9.81\sources\awmod.c"
  9526                           	line	5
  9527                           	global	__size_of___awmod
  9528  0068                     	__size_of___awmod	equ	__end_of___awmod-___awmod
  9529                           	
  9530  1368                     ___awmod:	
  9531                           	opt	stack 6
  9532                           ; Regs used in ___awmod: [wreg+status,2+status,0]
  9533                           	line	8
  9534                           	
  9535  1368                     l8918:	
  9536  1368  1283               	bcf	status, 5	;RP0=0, select bank0
  9537  1369  1303               	bcf	status, 6	;RP1=0, select bank0
  9538  136A  01A6               	clrf	(___awmod@sign)
  9539                           	line	9
  9540  136B  1FA3               	btfss	(___awmod@dividend+1),7
  9541  136C  2B6E               	goto	u5581
  9542  136D  2B6F               	goto	u5580
  9543  136E                     u5581:
  9544  136E  2B78               	goto	l8922
  9545  136F                     u5580:
  9546                           	line	10
  9547                           	
  9548  136F                     l8920:	
  9549  136F  09A2               	comf	(___awmod@dividend),f
  9550  1370  09A3               	comf	(___awmod@dividend+1),f
  9551  1371  0AA2               	incf	(___awmod@dividend),f
  9552  1372  1903               	skipnz
  9553  1373  0AA3               	incf	(___awmod@dividend+1),f
  9554                           	line	11
  9555  1374  01A6               	clrf	(___awmod@sign)
  9556  1375  1403               	bsf	status,0
  9557  1376  0DA6               	rlf	(___awmod@sign),f
  9558  1377  2B78               	goto	l8922
  9559                           	line	12
  9560                           	
  9561  1378                     l4786:	
  9562                           	line	13
  9563                           	
  9564  1378                     l8922:	
  9565  1378  1FA1               	btfss	(___awmod@divisor+1),7
  9566  1379  2B7B               	goto	u5591
  9567  137A  2B7C               	goto	u5590
  9568  137B                     u5591:
  9569  137B  2B82               	goto	l8926
  9570  137C                     u5590:
  9571                           	line	14
  9572                           	
  9573  137C                     l8924:	
  9574  137C  09A0               	comf	(___awmod@divisor),f
  9575  137D  09A1               	comf	(___awmod@divisor+1),f
  9576  137E  0AA0               	incf	(___awmod@divisor),f
  9577  137F  1903               	skipnz
  9578  1380  0AA1               	incf	(___awmod@divisor+1),f
  9579  1381  2B82               	goto	l8926
  9580                           	
  9581  1382                     l4787:	
  9582                           	line	15
  9583                           	
  9584  1382                     l8926:	
  9585  1382  0821               	movf	(___awmod@divisor+1),w
  9586  1383  0420               	iorwf	(___awmod@divisor),w
  9587  1384  1903               	skipnz
  9588  1385  2B87               	goto	u5601
  9589  1386  2B88               	goto	u5600
  9590  1387                     u5601:
  9591  1387  2BBE               	goto	l8944
  9592  1388                     u5600:
  9593                           	line	16
  9594                           	
  9595  1388                     l8928:	
  9596  1388  01A5               	clrf	(___awmod@counter)
  9597  1389  1403               	bsf	status,0
  9598  138A  0DA5               	rlf	(___awmod@counter),f
  9599                           	line	17
  9600  138B  2B98               	goto	l8934
  9601                           	
  9602  138C                     l4790:	
  9603                           	line	18
  9604                           	
  9605  138C                     l8930:	
  9606  138C  3001               	movlw	01h
  9607                           	
  9608  138D                     u5615:
  9609  138D  1003               	clrc
  9610  138E  0DA0               	rlf	(___awmod@divisor),f
  9611  138F  0DA1               	rlf	(___awmod@divisor+1),f
  9612  1390  3EFF               	addlw	-1
  9613  1391  1D03               	skipz
  9614  1392  2B8D               	goto	u5615
  9615                           	line	19
  9616                           	
  9617  1393                     l8932:	
  9618  1393  3001               	movlw	(01h)
  9619  1394  00A4               	movwf	(??___awmod+0)+0
  9620  1395  0824               	movf	(??___awmod+0)+0,w
  9621  1396  07A5               	addwf	(___awmod@counter),f
  9622  1397  2B98               	goto	l8934
  9623                           	line	20
  9624                           	
  9625  1398                     l4789:	
  9626                           	line	17
  9627                           	
  9628  1398                     l8934:	
  9629  1398  1FA1               	btfss	(___awmod@divisor+1),(15)&7
  9630  1399  2B9B               	goto	u5621
  9631  139A  2B9C               	goto	u5620
  9632  139B                     u5621:
  9633  139B  2B8C               	goto	l8930
  9634  139C                     u5620:
  9635  139C  2B9E               	goto	l8936
  9636                           	
  9637  139D                     l4791:	
  9638  139D  2B9E               	goto	l8936
  9639                           	line	21
  9640                           	
  9641  139E                     l4792:	
  9642                           	line	22
  9643                           	
  9644  139E                     l8936:	
  9645  139E  0821               	movf	(___awmod@divisor+1),w
  9646  139F  0223               	subwf	(___awmod@dividend+1),w
  9647  13A0  1D03               	skipz
  9648  13A1  2BA4               	goto	u5635
  9649  13A2  0820               	movf	(___awmod@divisor),w
  9650  13A3  0222               	subwf	(___awmod@dividend),w
  9651  13A4                     u5635:
  9652  13A4  1C03               	skipc
  9653  13A5  2BA7               	goto	u5631
  9654  13A6  2BA8               	goto	u5630
  9655  13A7                     u5631:
  9656  13A7  2BAF               	goto	l8940
  9657  13A8                     u5630:
  9658                           	line	23
  9659                           	
  9660  13A8                     l8938:	
  9661  13A8  0820               	movf	(___awmod@divisor),w
  9662  13A9  02A2               	subwf	(___awmod@dividend),f
  9663  13AA  0821               	movf	(___awmod@divisor+1),w
  9664  13AB  1C03               	skipc
  9665  13AC  03A3               	decf	(___awmod@dividend+1),f
  9666  13AD  02A3               	subwf	(___awmod@dividend+1),f
  9667  13AE  2BAF               	goto	l8940
  9668                           	
  9669  13AF                     l4793:	
  9670                           	line	24
  9671                           	
  9672  13AF                     l8940:	
  9673  13AF  3001               	movlw	01h
  9674                           	
  9675  13B0                     u5645:
  9676  13B0  1003               	clrc
  9677  13B1  0CA1               	rrf	(___awmod@divisor+1),f
  9678  13B2  0CA0               	rrf	(___awmod@divisor),f
  9679  13B3  3EFF               	addlw	-1
  9680  13B4  1D03               	skipz
  9681  13B5  2BB0               	goto	u5645
  9682                           	line	25
  9683                           	
  9684  13B6                     l8942:	
  9685  13B6  3001               	movlw	low(01h)
  9686  13B7  02A5               	subwf	(___awmod@counter),f
  9687  13B8  1D03               	btfss	status,2
  9688  13B9  2BBB               	goto	u5651
  9689  13BA  2BBC               	goto	u5650
  9690  13BB                     u5651:
  9691  13BB  2B9E               	goto	l8936
  9692  13BC                     u5650:
  9693  13BC  2BBE               	goto	l8944
  9694                           	
  9695  13BD                     l4794:	
  9696  13BD  2BBE               	goto	l8944
  9697                           	line	26
  9698                           	
  9699  13BE                     l4788:	
  9700                           	line	27
  9701                           	
  9702  13BE                     l8944:	
  9703  13BE  0826               	movf	(___awmod@sign),w
  9704  13BF  1D03               	skipz
  9705  13C0  2BC2               	goto	u5660
  9706  13C1  2BC8               	goto	l8948
  9707  13C2                     u5660:
  9708                           	line	28
  9709                           	
  9710  13C2                     l8946:	
  9711  13C2  09A2               	comf	(___awmod@dividend),f
  9712  13C3  09A3               	comf	(___awmod@dividend+1),f
  9713  13C4  0AA2               	incf	(___awmod@dividend),f
  9714  13C5  1903               	skipnz
  9715  13C6  0AA3               	incf	(___awmod@dividend+1),f
  9716  13C7  2BC8               	goto	l8948
  9717                           	
  9718  13C8                     l4795:	
  9719                           	line	29
  9720                           	
  9721  13C8                     l8948:	
  9722  13C8  0823               	movf	(___awmod@dividend+1),w
  9723  13C9  01A1               	clrf	(?___awmod+1)
  9724  13CA  07A1               	addwf	(?___awmod+1)
  9725  13CB  0822               	movf	(___awmod@dividend),w
  9726  13CC  01A0               	clrf	(?___awmod)
  9727  13CD  07A0               	addwf	(?___awmod)
  9728                           
  9729  13CE  2BCF               	goto	l4796
  9730                           	
  9731  13CF                     l8950:	
  9732                           	line	30
  9733                           	
  9734  13CF                     l4796:	
  9735  13CF  0008               	return
  9736                           	opt stack 0
  9737                           GLOBAL	__end_of___awmod
  9738  13D0                     	__end_of___awmod:
  9739 ;; =============== function ___awmod ends ============
  9740                           
  9741                           	signat	___awmod,8314
  9742                           	global	___awdiv
  9743                           psect	text1182,local,class=CODE,delta=2
  9744                           global __ptext1182
  9745  1442                     __ptext1182:
  9746                           
  9747 ;; *************** function ___awdiv *****************
  9748 ;; Defined at:
  9749 ;;		line 5 in file "C:\Program Files (x86)\HI-TECH Software\PICC\9.81\sources\awdiv.c"
  9750 ;; Parameters:    Size  Location     Type
  9751 ;;  divisor         2    0[BANK0 ] int 
  9752 ;;  dividend        2    2[BANK0 ] int 
  9753 ;; Auto vars:     Size  Location     Type
  9754 ;;  quotient        2    7[BANK0 ] int 
  9755 ;;  sign            1    6[BANK0 ] unsigned char 
  9756 ;;  counter         1    5[BANK0 ] unsigned char 
  9757 ;; Return value:  Size  Location     Type
  9758 ;;                  2    0[BANK0 ] int 
  9759 ;; Registers used:
  9760 ;;		wreg, status,2, status,0
  9761 ;; Tracked objects:
  9762 ;;		On entry : 0/0
  9763 ;;		On exit  : 0/0
  9764 ;;		Unchanged: 0/0
  9765 ;; Data sizes:     COMMON   BANK0   BANK1   BANK3   BANK2
  9766 ;;      Params:         0       4       0       0       0
  9767 ;;      Locals:         0       4       0       0       0
  9768 ;;      Temps:          0       1       0       0       0
  9769 ;;      Totals:         0       9       0       0       0
  9770 ;;Total ram usage:        9 bytes
  9771 ;; Hardware stack levels used:    1
  9772 ;; Hardware stack levels required when called:    1
  9773 ;; This function calls:
  9774 ;;		Nothing
  9775 ;; This function is called by:
  9776 ;;		_main
  9777 ;; This function uses a non-reentrant model
  9778 ;;
  9779                           psect	text1182
  9780                           	file	"C:\Program Files (x86)\HI-TECH Software\PICC\9.81\sources\awdiv.c"
  9781                           	line	5
  9782                           	global	__size_of___awdiv
  9783  0076                     	__size_of___awdiv	equ	__end_of___awdiv-___awdiv
  9784                           	
  9785  1442                     ___awdiv:	
  9786                           	opt	stack 6
  9787                           ; Regs used in ___awdiv: [wreg+status,2+status,0]
  9788                           	line	9
  9789                           	
  9790  1442                     l8878:	
  9791  1442  1283               	bcf	status, 5	;RP0=0, select bank0
  9792  1443  1303               	bcf	status, 6	;RP1=0, select bank0
  9793  1444  01A6               	clrf	(___awdiv@sign)
  9794                           	line	10
  9795  1445  1FA1               	btfss	(___awdiv@divisor+1),7
  9796  1446  2C48               	goto	u5481
  9797  1447  2C49               	goto	u5480
  9798  1448                     u5481:
  9799  1448  2C52               	goto	l8882
  9800  1449                     u5480:
  9801                           	line	11
  9802                           	
  9803  1449                     l8880:	
  9804  1449  09A0               	comf	(___awdiv@divisor),f
  9805  144A  09A1               	comf	(___awdiv@divisor+1),f
  9806  144B  0AA0               	incf	(___awdiv@divisor),f
  9807  144C  1903               	skipnz
  9808  144D  0AA1               	incf	(___awdiv@divisor+1),f
  9809                           	line	12
  9810  144E  01A6               	clrf	(___awdiv@sign)
  9811  144F  1403               	bsf	status,0
  9812  1450  0DA6               	rlf	(___awdiv@sign),f
  9813  1451  2C52               	goto	l8882
  9814                           	line	13
  9815                           	
  9816  1452                     l4718:	
  9817                           	line	14
  9818                           	
  9819  1452                     l8882:	
  9820  1452  1FA3               	btfss	(___awdiv@dividend+1),7
  9821  1453  2C55               	goto	u5491
  9822  1454  2C56               	goto	u5490
  9823  1455                     u5491:
  9824  1455  2C60               	goto	l8888
  9825  1456                     u5490:
  9826                           	line	15
  9827                           	
  9828  1456                     l8884:	
  9829  1456  09A2               	comf	(___awdiv@dividend),f
  9830  1457  09A3               	comf	(___awdiv@dividend+1),f
  9831  1458  0AA2               	incf	(___awdiv@dividend),f
  9832  1459  1903               	skipnz
  9833  145A  0AA3               	incf	(___awdiv@dividend+1),f
  9834                           	line	16
  9835                           	
  9836  145B                     l8886:	
  9837  145B  3001               	movlw	(01h)
  9838  145C  00A4               	movwf	(??___awdiv+0)+0
  9839  145D  0824               	movf	(??___awdiv+0)+0,w
  9840  145E  06A6               	xorwf	(___awdiv@sign),f
  9841  145F  2C60               	goto	l8888
  9842                           	line	17
  9843                           	
  9844  1460                     l4719:	
  9845                           	line	18
  9846                           	
  9847  1460                     l8888:	
  9848  1460  01A7               	clrf	(___awdiv@quotient)
  9849  1461  01A8               	clrf	(___awdiv@quotient+1)
  9850                           	line	19
  9851                           	
  9852  1462                     l8890:	
  9853  1462  0821               	movf	(___awdiv@divisor+1),w
  9854  1463  0420               	iorwf	(___awdiv@divisor),w
  9855  1464  1903               	skipnz
  9856  1465  2C67               	goto	u5501
  9857  1466  2C68               	goto	u5500
  9858  1467                     u5501:
  9859  1467  2CA6               	goto	l8910
  9860  1468                     u5500:
  9861                           	line	20
  9862                           	
  9863  1468                     l8892:	
  9864  1468  01A5               	clrf	(___awdiv@counter)
  9865  1469  1403               	bsf	status,0
  9866  146A  0DA5               	rlf	(___awdiv@counter),f
  9867                           	line	21
  9868  146B  2C78               	goto	l8898
  9869                           	
  9870  146C                     l4722:	
  9871                           	line	22
  9872                           	
  9873  146C                     l8894:	
  9874  146C  3001               	movlw	01h
  9875                           	
  9876  146D                     u5515:
  9877  146D  1003               	clrc
  9878  146E  0DA0               	rlf	(___awdiv@divisor),f
  9879  146F  0DA1               	rlf	(___awdiv@divisor+1),f
  9880  1470  3EFF               	addlw	-1
  9881  1471  1D03               	skipz
  9882  1472  2C6D               	goto	u5515
  9883                           	line	23
  9884                           	
  9885  1473                     l8896:	
  9886  1473  3001               	movlw	(01h)
  9887  1474  00A4               	movwf	(??___awdiv+0)+0
  9888  1475  0824               	movf	(??___awdiv+0)+0,w
  9889  1476  07A5               	addwf	(___awdiv@counter),f
  9890  1477  2C78               	goto	l8898
  9891                           	line	24
  9892                           	
  9893  1478                     l4721:	
  9894                           	line	21
  9895                           	
  9896  1478                     l8898:	
  9897  1478  1FA1               	btfss	(___awdiv@divisor+1),(15)&7
  9898  1479  2C7B               	goto	u5521
  9899  147A  2C7C               	goto	u5520
  9900  147B                     u5521:
  9901  147B  2C6C               	goto	l8894
  9902  147C                     u5520:
  9903  147C  2C7E               	goto	l8900
  9904                           	
  9905  147D                     l4723:	
  9906  147D  2C7E               	goto	l8900
  9907                           	line	25
  9908                           	
  9909  147E                     l4724:	
  9910                           	line	26
  9911                           	
  9912  147E                     l8900:	
  9913  147E  3001               	movlw	01h
  9914                           	
  9915  147F                     u5535:
  9916  147F  1003               	clrc
  9917  1480  0DA7               	rlf	(___awdiv@quotient),f
  9918  1481  0DA8               	rlf	(___awdiv@quotient+1),f
  9919  1482  3EFF               	addlw	-1
  9920  1483  1D03               	skipz
  9921  1484  2C7F               	goto	u5535
  9922                           	line	27
  9923  1485  0821               	movf	(___awdiv@divisor+1),w
  9924  1486  0223               	subwf	(___awdiv@dividend+1),w
  9925  1487  1D03               	skipz
  9926  1488  2C8B               	goto	u5545
  9927  1489  0820               	movf	(___awdiv@divisor),w
  9928  148A  0222               	subwf	(___awdiv@dividend),w
  9929  148B                     u5545:
  9930  148B  1C03               	skipc
  9931  148C  2C8E               	goto	u5541
  9932  148D  2C8F               	goto	u5540
  9933  148E                     u5541:
  9934  148E  2C97               	goto	l8906
  9935  148F                     u5540:
  9936                           	line	28
  9937                           	
  9938  148F                     l8902:	
  9939  148F  0820               	movf	(___awdiv@divisor),w
  9940  1490  02A2               	subwf	(___awdiv@dividend),f
  9941  1491  0821               	movf	(___awdiv@divisor+1),w
  9942  1492  1C03               	skipc
  9943  1493  03A3               	decf	(___awdiv@dividend+1),f
  9944  1494  02A3               	subwf	(___awdiv@dividend+1),f
  9945                           	line	29
  9946                           	
  9947  1495                     l8904:	
  9948  1495  1427               	bsf	(___awdiv@quotient)+(0/8),(0)&7
  9949  1496  2C97               	goto	l8906
  9950                           	line	30
  9951                           	
  9952  1497                     l4725:	
  9953                           	line	31
  9954                           	
  9955  1497                     l8906:	
  9956  1497  3001               	movlw	01h
  9957                           	
  9958  1498                     u5555:
  9959  1498  1003               	clrc
  9960  1499  0CA1               	rrf	(___awdiv@divisor+1),f
  9961  149A  0CA0               	rrf	(___awdiv@divisor),f
  9962  149B  3EFF               	addlw	-1
  9963  149C  1D03               	skipz
  9964  149D  2C98               	goto	u5555
  9965                           	line	32
  9966                           	
  9967  149E                     l8908:	
  9968  149E  3001               	movlw	low(01h)
  9969  149F  02A5               	subwf	(___awdiv@counter),f
  9970  14A0  1D03               	btfss	status,2
  9971  14A1  2CA3               	goto	u5561
  9972  14A2  2CA4               	goto	u5560
  9973  14A3                     u5561:
  9974  14A3  2C7E               	goto	l8900
  9975  14A4                     u5560:
  9976  14A4  2CA6               	goto	l8910
  9977                           	
  9978  14A5                     l4726:	
  9979  14A5  2CA6               	goto	l8910
  9980                           	line	33
  9981                           	
  9982  14A6                     l4720:	
  9983                           	line	34
  9984                           	
  9985  14A6                     l8910:	
  9986  14A6  0826               	movf	(___awdiv@sign),w
  9987  14A7  1D03               	skipz
  9988  14A8  2CAA               	goto	u5570
  9989  14A9  2CB0               	goto	l8914
  9990  14AA                     u5570:
  9991                           	line	35
  9992                           	
  9993  14AA                     l8912:	
  9994  14AA  09A7               	comf	(___awdiv@quotient),f
  9995  14AB  09A8               	comf	(___awdiv@quotient+1),f
  9996  14AC  0AA7               	incf	(___awdiv@quotient),f
  9997  14AD  1903               	skipnz
  9998  14AE  0AA8               	incf	(___awdiv@quotient+1),f
  9999  14AF  2CB0               	goto	l8914
 10000                           	
 10001  14B0                     l4727:	
 10002                           	line	36
 10003                           	
 10004  14B0                     l8914:	
 10005  14B0  0828               	movf	(___awdiv@quotient+1),w
 10006  14B1  01A1               	clrf	(?___awdiv+1)
 10007  14B2  07A1               	addwf	(?___awdiv+1)
 10008  14B3  0827               	movf	(___awdiv@quotient),w
 10009  14B4  01A0               	clrf	(?___awdiv)
 10010  14B5  07A0               	addwf	(?___awdiv)
 10011                           
 10012  14B6  2CB7               	goto	l4728
 10013                           	
 10014  14B7                     l8916:	
 10015                           	line	37
 10016                           	
 10017  14B7                     l4728:	
 10018  14B7  0008               	return
 10019                           	opt stack 0
 10020                           GLOBAL	__end_of___awdiv
 10021  14B8                     	__end_of___awdiv:
 10022 ;; =============== function ___awdiv ends ============
 10023                           
 10024                           	signat	___awdiv,8314
 10025                           	global	___lwmod
 10026                           psect	text1183,local,class=CODE,delta=2
 10027                           global __ptext1183
 10028  1282                     __ptext1183:
 10029                           
 10030 ;; *************** function ___lwmod *****************
 10031 ;; Defined at:
 10032 ;;		line 5 in file "C:\Program Files (x86)\HI-TECH Software\PICC\9.81\sources\lwmod.c"
 10033 ;; Parameters:    Size  Location     Type
 10034 ;;  divisor         2    0[BANK0 ] unsigned int 
 10035 ;;  dividend        2    2[BANK0 ] unsigned int 
 10036 ;; Auto vars:     Size  Location     Type
 10037 ;;  counter         1    5[BANK0 ] unsigned char 
 10038 ;; Return value:  Size  Location     Type
 10039 ;;                  2    0[BANK0 ] unsigned int 
 10040 ;; Registers used:
 10041 ;;		wreg, status,2, status,0
 10042 ;; Tracked objects:
 10043 ;;		On entry : 0/0
 10044 ;;		On exit  : 0/0
 10045 ;;		Unchanged: 0/0
 10046 ;; Data sizes:     COMMON   BANK0   BANK1   BANK3   BANK2
 10047 ;;      Params:         0       4       0       0       0
 10048 ;;      Locals:         0       1       0       0       0
 10049 ;;      Temps:          0       1       0       0       0
 10050 ;;      Totals:         0       6       0       0       0
 10051 ;;Total ram usage:        6 bytes
 10052 ;; Hardware stack levels used:    1
 10053 ;; Hardware stack levels required when called:    1
 10054 ;; This function calls:
 10055 ;;		Nothing
 10056 ;; This function is called by:
 10057 ;;		_main
 10058 ;;		_sprintf
 10059 ;; This function uses a non-reentrant model
 10060 ;;
 10061                           psect	text1183
 10062                           	file	"C:\Program Files (x86)\HI-TECH Software\PICC\9.81\sources\lwmod.c"
 10063                           	line	5
 10064                           	global	__size_of___lwmod
 10065  0046                     	__size_of___lwmod	equ	__end_of___lwmod-___lwmod
 10066                           	
 10067  1282                     ___lwmod:	
 10068                           	opt	stack 6
 10069                           ; Regs used in ___lwmod: [wreg+status,2+status,0]
 10070                           	line	8
 10071                           	
 10072  1282                     l8856:	
 10073  1282  1283               	bcf	status, 5	;RP0=0, select bank0
 10074  1283  1303               	bcf	status, 6	;RP1=0, select bank0
 10075  1284  0821               	movf	(___lwmod@divisor+1),w
 10076  1285  0420               	iorwf	(___lwmod@divisor),w
 10077  1286  1903               	skipnz
 10078  1287  2A89               	goto	u5421
 10079  1288  2A8A               	goto	u5420
 10080  1289                     u5421:
 10081  1289  2AC0               	goto	l8874
 10082  128A                     u5420:
 10083                           	line	9
 10084                           	
 10085  128A                     l8858:	
 10086  128A  01A5               	clrf	(___lwmod@counter)
 10087  128B  1403               	bsf	status,0
 10088  128C  0DA5               	rlf	(___lwmod@counter),f
 10089                           	line	10
 10090  128D  2A9A               	goto	l8864
 10091                           	
 10092  128E                     l4596:	
 10093                           	line	11
 10094                           	
 10095  128E                     l8860:	
 10096  128E  3001               	movlw	01h
 10097                           	
 10098  128F                     u5435:
 10099  128F  1003               	clrc
 10100  1290  0DA0               	rlf	(___lwmod@divisor),f
 10101  1291  0DA1               	rlf	(___lwmod@divisor+1),f
 10102  1292  3EFF               	addlw	-1
 10103  1293  1D03               	skipz
 10104  1294  2A8F               	goto	u5435
 10105                           	line	12
 10106                           	
 10107  1295                     l8862:	
 10108  1295  3001               	movlw	(01h)
 10109  1296  00A4               	movwf	(??___lwmod+0)+0
 10110  1297  0824               	movf	(??___lwmod+0)+0,w
 10111  1298  07A5               	addwf	(___lwmod@counter),f
 10112  1299  2A9A               	goto	l8864
 10113                           	line	13
 10114                           	
 10115  129A                     l4595:	
 10116                           	line	10
 10117                           	
 10118  129A                     l8864:	
 10119  129A  1FA1               	btfss	(___lwmod@divisor+1),(15)&7
 10120  129B  2A9D               	goto	u5441
 10121  129C  2A9E               	goto	u5440
 10122  129D                     u5441:
 10123  129D  2A8E               	goto	l8860
 10124  129E                     u5440:
 10125  129E  2AA0               	goto	l8866
 10126                           	
 10127  129F                     l4597:	
 10128  129F  2AA0               	goto	l8866
 10129                           	line	14
 10130                           	
 10131  12A0                     l4598:	
 10132                           	line	15
 10133                           	
 10134  12A0                     l8866:	
 10135  12A0  0821               	movf	(___lwmod@divisor+1),w
 10136  12A1  0223               	subwf	(___lwmod@dividend+1),w
 10137  12A2  1D03               	skipz
 10138  12A3  2AA6               	goto	u5455
 10139  12A4  0820               	movf	(___lwmod@divisor),w
 10140  12A5  0222               	subwf	(___lwmod@dividend),w
 10141  12A6                     u5455:
 10142  12A6  1C03               	skipc
 10143  12A7  2AA9               	goto	u5451
 10144  12A8  2AAA               	goto	u5450
 10145  12A9                     u5451:
 10146  12A9  2AB1               	goto	l8870
 10147  12AA                     u5450:
 10148                           	line	16
 10149                           	
 10150  12AA                     l8868:	
 10151  12AA  0820               	movf	(___lwmod@divisor),w
 10152  12AB  02A2               	subwf	(___lwmod@dividend),f
 10153  12AC  0821               	movf	(___lwmod@divisor+1),w
 10154  12AD  1C03               	skipc
 10155  12AE  03A3               	decf	(___lwmod@dividend+1),f
 10156  12AF  02A3               	subwf	(___lwmod@dividend+1),f
 10157  12B0  2AB1               	goto	l8870
 10158                           	
 10159  12B1                     l4599:	
 10160                           	line	17
 10161                           	
 10162  12B1                     l8870:	
 10163  12B1  3001               	movlw	01h
 10164                           	
 10165  12B2                     u5465:
 10166  12B2  1003               	clrc
 10167  12B3  0CA1               	rrf	(___lwmod@divisor+1),f
 10168  12B4  0CA0               	rrf	(___lwmod@divisor),f
 10169  12B5  3EFF               	addlw	-1
 10170  12B6  1D03               	skipz
 10171  12B7  2AB2               	goto	u5465
 10172                           	line	18
 10173                           	
 10174  12B8                     l8872:	
 10175  12B8  3001               	movlw	low(01h)
 10176  12B9  02A5               	subwf	(___lwmod@counter),f
 10177  12BA  1D03               	btfss	status,2
 10178  12BB  2ABD               	goto	u5471
 10179  12BC  2ABE               	goto	u5470
 10180  12BD                     u5471:
 10181  12BD  2AA0               	goto	l8866
 10182  12BE                     u5470:
 10183  12BE  2AC0               	goto	l8874
 10184                           	
 10185  12BF                     l4600:	
 10186  12BF  2AC0               	goto	l8874
 10187                           	line	19
 10188                           	
 10189  12C0                     l4594:	
 10190                           	line	20
 10191                           	
 10192  12C0                     l8874:	
 10193  12C0  0823               	movf	(___lwmod@dividend+1),w
 10194  12C1  01A1               	clrf	(?___lwmod+1)
 10195  12C2  07A1               	addwf	(?___lwmod+1)
 10196  12C3  0822               	movf	(___lwmod@dividend),w
 10197  12C4  01A0               	clrf	(?___lwmod)
 10198  12C5  07A0               	addwf	(?___lwmod)
 10199                           
 10200  12C6  2AC7               	goto	l4601
 10201                           	
 10202  12C7                     l8876:	
 10203                           	line	21
 10204                           	
 10205  12C7                     l4601:	
 10206  12C7  0008               	return
 10207                           	opt stack 0
 10208                           GLOBAL	__end_of___lwmod
 10209  12C8                     	__end_of___lwmod:
 10210 ;; =============== function ___lwmod ends ============
 10211                           
 10212                           	signat	___lwmod,8314
 10213                           	global	___lwdiv
 10214                           psect	text1184,local,class=CODE,delta=2
 10215                           global __ptext1184
 10216  1318                     __ptext1184:
 10217                           
 10218 ;; *************** function ___lwdiv *****************
 10219 ;; Defined at:
 10220 ;;		line 5 in file "C:\Program Files (x86)\HI-TECH Software\PICC\9.81\sources\lwdiv.c"
 10221 ;; Parameters:    Size  Location     Type
 10222 ;;  divisor         2    6[BANK0 ] unsigned int 
 10223 ;;  dividend        2    8[BANK0 ] unsigned int 
 10224 ;; Auto vars:     Size  Location     Type
 10225 ;;  quotient        2   12[BANK0 ] unsigned int 
 10226 ;;  counter         1   11[BANK0 ] unsigned char 
 10227 ;; Return value:  Size  Location     Type
 10228 ;;                  2    6[BANK0 ] unsigned int 
 10229 ;; Registers used:
 10230 ;;		wreg, status,2, status,0
 10231 ;; Tracked objects:
 10232 ;;		On entry : 0/0
 10233 ;;		On exit  : 0/0
 10234 ;;		Unchanged: 0/0
 10235 ;; Data sizes:     COMMON   BANK0   BANK1   BANK3   BANK2
 10236 ;;      Params:         0       4       0       0       0
 10237 ;;      Locals:         0       3       0       0       0
 10238 ;;      Temps:          0       1       0       0       0
 10239 ;;      Totals:         0       8       0       0       0
 10240 ;;Total ram usage:        8 bytes
 10241 ;; Hardware stack levels used:    1
 10242 ;; Hardware stack levels required when called:    1
 10243 ;; This function calls:
 10244 ;;		Nothing
 10245 ;; This function is called by:
 10246 ;;		_main
 10247 ;;		_sprintf
 10248 ;; This function uses a non-reentrant model
 10249 ;;
 10250                           psect	text1184
 10251                           	file	"C:\Program Files (x86)\HI-TECH Software\PICC\9.81\sources\lwdiv.c"
 10252                           	line	5
 10253                           	global	__size_of___lwdiv
 10254  0050                     	__size_of___lwdiv	equ	__end_of___lwdiv-___lwdiv
 10255                           	
 10256  1318                     ___lwdiv:	
 10257                           	opt	stack 6
 10258                           ; Regs used in ___lwdiv: [wreg+status,2+status,0]
 10259                           	line	9
 10260                           	
 10261  1318                     l8830:	
 10262  1318  1283               	bcf	status, 5	;RP0=0, select bank0
 10263  1319  1303               	bcf	status, 6	;RP1=0, select bank0
 10264  131A  01AC               	clrf	(___lwdiv@quotient)
 10265  131B  01AD               	clrf	(___lwdiv@quotient+1)
 10266                           	line	10
 10267                           	
 10268  131C                     l8832:	
 10269  131C  0827               	movf	(___lwdiv@divisor+1),w
 10270  131D  0426               	iorwf	(___lwdiv@divisor),w
 10271  131E  1903               	skipnz
 10272  131F  2B21               	goto	u5351
 10273  1320  2B22               	goto	u5350
 10274  1321                     u5351:
 10275  1321  2B60               	goto	l8852
 10276  1322                     u5350:
 10277                           	line	11
 10278                           	
 10279  1322                     l8834:	
 10280  1322  01AB               	clrf	(___lwdiv@counter)
 10281  1323  1403               	bsf	status,0
 10282  1324  0DAB               	rlf	(___lwdiv@counter),f
 10283                           	line	12
 10284  1325  2B32               	goto	l8840
 10285                           	
 10286  1326                     l4586:	
 10287                           	line	13
 10288                           	
 10289  1326                     l8836:	
 10290  1326  3001               	movlw	01h
 10291                           	
 10292  1327                     u5365:
 10293  1327  1003               	clrc
 10294  1328  0DA6               	rlf	(___lwdiv@divisor),f
 10295  1329  0DA7               	rlf	(___lwdiv@divisor+1),f
 10296  132A  3EFF               	addlw	-1
 10297  132B  1D03               	skipz
 10298  132C  2B27               	goto	u5365
 10299                           	line	14
 10300                           	
 10301  132D                     l8838:	
 10302  132D  3001               	movlw	(01h)
 10303  132E  00AA               	movwf	(??___lwdiv+0)+0
 10304  132F  082A               	movf	(??___lwdiv+0)+0,w
 10305  1330  07AB               	addwf	(___lwdiv@counter),f
 10306  1331  2B32               	goto	l8840
 10307                           	line	15
 10308                           	
 10309  1332                     l4585:	
 10310                           	line	12
 10311                           	
 10312  1332                     l8840:	
 10313  1332  1FA7               	btfss	(___lwdiv@divisor+1),(15)&7
 10314  1333  2B35               	goto	u5371
 10315  1334  2B36               	goto	u5370
 10316  1335                     u5371:
 10317  1335  2B26               	goto	l8836
 10318  1336                     u5370:
 10319  1336  2B38               	goto	l8842
 10320                           	
 10321  1337                     l4587:	
 10322  1337  2B38               	goto	l8842
 10323                           	line	16
 10324                           	
 10325  1338                     l4588:	
 10326                           	line	17
 10327                           	
 10328  1338                     l8842:	
 10329  1338  3001               	movlw	01h
 10330                           	
 10331  1339                     u5385:
 10332  1339  1003               	clrc
 10333  133A  0DAC               	rlf	(___lwdiv@quotient),f
 10334  133B  0DAD               	rlf	(___lwdiv@quotient+1),f
 10335  133C  3EFF               	addlw	-1
 10336  133D  1D03               	skipz
 10337  133E  2B39               	goto	u5385
 10338                           	line	18
 10339  133F  0827               	movf	(___lwdiv@divisor+1),w
 10340  1340  0229               	subwf	(___lwdiv@dividend+1),w
 10341  1341  1D03               	skipz
 10342  1342  2B45               	goto	u5395
 10343  1343  0826               	movf	(___lwdiv@divisor),w
 10344  1344  0228               	subwf	(___lwdiv@dividend),w
 10345  1345                     u5395:
 10346  1345  1C03               	skipc
 10347  1346  2B48               	goto	u5391
 10348  1347  2B49               	goto	u5390
 10349  1348                     u5391:
 10350  1348  2B51               	goto	l8848
 10351  1349                     u5390:
 10352                           	line	19
 10353                           	
 10354  1349                     l8844:	
 10355  1349  0826               	movf	(___lwdiv@divisor),w
 10356  134A  02A8               	subwf	(___lwdiv@dividend),f
 10357  134B  0827               	movf	(___lwdiv@divisor+1),w
 10358  134C  1C03               	skipc
 10359  134D  03A9               	decf	(___lwdiv@dividend+1),f
 10360  134E  02A9               	subwf	(___lwdiv@dividend+1),f
 10361                           	line	20
 10362                           	
 10363  134F                     l8846:	
 10364  134F  142C               	bsf	(___lwdiv@quotient)+(0/8),(0)&7
 10365  1350  2B51               	goto	l8848
 10366                           	line	21
 10367                           	
 10368  1351                     l4589:	
 10369                           	line	22
 10370                           	
 10371  1351                     l8848:	
 10372  1351  3001               	movlw	01h
 10373                           	
 10374  1352                     u5405:
 10375  1352  1003               	clrc
 10376  1353  0CA7               	rrf	(___lwdiv@divisor+1),f
 10377  1354  0CA6               	rrf	(___lwdiv@divisor),f
 10378  1355  3EFF               	addlw	-1
 10379  1356  1D03               	skipz
 10380  1357  2B52               	goto	u5405
 10381                           	line	23
 10382                           	
 10383  1358                     l8850:	
 10384  1358  3001               	movlw	low(01h)
 10385  1359  02AB               	subwf	(___lwdiv@counter),f
 10386  135A  1D03               	btfss	status,2
 10387  135B  2B5D               	goto	u5411
 10388  135C  2B5E               	goto	u5410
 10389  135D                     u5411:
 10390  135D  2B38               	goto	l8842
 10391  135E                     u5410:
 10392  135E  2B60               	goto	l8852
 10393                           	
 10394  135F                     l4590:	
 10395  135F  2B60               	goto	l8852
 10396                           	line	24
 10397                           	
 10398  1360                     l4584:	
 10399                           	line	25
 10400                           	
 10401  1360                     l8852:	
 10402  1360  082D               	movf	(___lwdiv@quotient+1),w
 10403  1361  01A7               	clrf	(?___lwdiv+1)
 10404  1362  07A7               	addwf	(?___lwdiv+1)
 10405  1363  082C               	movf	(___lwdiv@quotient),w
 10406  1364  01A6               	clrf	(?___lwdiv)
 10407  1365  07A6               	addwf	(?___lwdiv)
 10408                           
 10409  1366  2B67               	goto	l4591
 10410                           	
 10411  1367                     l8854:	
 10412                           	line	26
 10413                           	
 10414  1367                     l4591:	
 10415  1367  0008               	return
 10416                           	opt stack 0
 10417                           GLOBAL	__end_of___lwdiv
 10418  1368                     	__end_of___lwdiv:
 10419 ;; =============== function ___lwdiv ends ============
 10420                           
 10421                           	signat	___lwdiv,8314
 10422                           	global	___wmul
 10423                           psect	text1185,local,class=CODE,delta=2
 10424                           global __ptext1185
 10425  11F6                     __ptext1185:
 10426                           
 10427 ;; *************** function ___wmul *****************
 10428 ;; Defined at:
 10429 ;;		line 3 in file "C:\Program Files (x86)\HI-TECH Software\PICC\9.81\sources\wmul.c"
 10430 ;; Parameters:    Size  Location     Type
 10431 ;;  multiplier      2    0[BANK0 ] unsigned int 
 10432 ;;  multiplicand    2    2[BANK0 ] unsigned int 
 10433 ;; Auto vars:     Size  Location     Type
 10434 ;;  product         2    4[BANK0 ] unsigned int 
 10435 ;; Return value:  Size  Location     Type
 10436 ;;                  2    0[BANK0 ] unsigned int 
 10437 ;; Registers used:
 10438 ;;		wreg, status,2, status,0
 10439 ;; Tracked objects:
 10440 ;;		On entry : 0/0
 10441 ;;		On exit  : 0/0
 10442 ;;		Unchanged: 0/0
 10443 ;; Data sizes:     COMMON   BANK0   BANK1   BANK3   BANK2
 10444 ;;      Params:         0       4       0       0       0
 10445 ;;      Locals:         0       2       0       0       0
 10446 ;;      Temps:          0       0       0       0       0
 10447 ;;      Totals:         0       6       0       0       0
 10448 ;;Total ram usage:        6 bytes
 10449 ;; Hardware stack levels used:    1
 10450 ;; Hardware stack levels required when called:    1
 10451 ;; This function calls:
 10452 ;;		Nothing
 10453 ;; This function is called by:
 10454 ;;		_main
 10455 ;;		_sprintf
 10456 ;; This function uses a non-reentrant model
 10457 ;;
 10458                           psect	text1185
 10459                           	file	"C:\Program Files (x86)\HI-TECH Software\PICC\9.81\sources\wmul.c"
 10460                           	line	3
 10461                           	global	__size_of___wmul
 10462  002C                     	__size_of___wmul	equ	__end_of___wmul-___wmul
 10463                           	
 10464  11F6                     ___wmul:	
 10465                           	opt	stack 4
 10466                           ; Regs used in ___wmul: [wreg+status,2+status,0]
 10467                           	line	4
 10468                           	
 10469  11F6                     l8818:	
 10470  11F6  1283               	bcf	status, 5	;RP0=0, select bank0
 10471  11F7  1303               	bcf	status, 6	;RP1=0, select bank0
 10472  11F8  01A4               	clrf	(___wmul@product)
 10473  11F9  01A5               	clrf	(___wmul@product+1)
 10474  11FA  29FB               	goto	l8820
 10475                           	line	6
 10476                           	
 10477  11FB                     l4578:	
 10478                           	line	7
 10479                           	
 10480  11FB                     l8820:	
 10481  11FB  1C20               	btfss	(___wmul@multiplier),(0)&7
 10482  11FC  29FE               	goto	u5311
 10483  11FD  29FF               	goto	u5310
 10484  11FE                     u5311:
 10485  11FE  2A05               	goto	l4579
 10486  11FF                     u5310:
 10487                           	line	8
 10488                           	
 10489  11FF                     l8822:	
 10490  11FF  0822               	movf	(___wmul@multiplicand),w
 10491  1200  07A4               	addwf	(___wmul@product),f
 10492  1201  1803               	skipnc
 10493  1202  0AA5               	incf	(___wmul@product+1),f
 10494  1203  0823               	movf	(___wmul@multiplicand+1),w
 10495  1204  07A5               	addwf	(___wmul@product+1),f
 10496                           	
 10497  1205                     l4579:	
 10498                           	line	9
 10499  1205  3001               	movlw	01h
 10500                           	
 10501  1206                     u5325:
 10502  1206  1003               	clrc
 10503  1207  0DA2               	rlf	(___wmul@multiplicand),f
 10504  1208  0DA3               	rlf	(___wmul@multiplicand+1),f
 10505  1209  3EFF               	addlw	-1
 10506  120A  1D03               	skipz
 10507  120B  2A06               	goto	u5325
 10508                           	line	10
 10509                           	
 10510  120C                     l8824:	
 10511  120C  3001               	movlw	01h
 10512                           	
 10513  120D                     u5335:
 10514  120D  1003               	clrc
 10515  120E  0CA1               	rrf	(___wmul@multiplier+1),f
 10516  120F  0CA0               	rrf	(___wmul@multiplier),f
 10517  1210  3EFF               	addlw	-1
 10518  1211  1D03               	skipz
 10519  1212  2A0D               	goto	u5335
 10520                           	line	11
 10521  1213  0821               	movf	((___wmul@multiplier+1)),w
 10522  1214  0420               	iorwf	((___wmul@multiplier)),w
 10523  1215  1D03               	skipz
 10524  1216  2A18               	goto	u5341
 10525  1217  2A19               	goto	u5340
 10526  1218                     u5341:
 10527  1218  29FB               	goto	l8820
 10528  1219                     u5340:
 10529  1219  2A1A               	goto	l8826
 10530                           	
 10531  121A                     l4580:	
 10532                           	line	12
 10533                           	
 10534  121A                     l8826:	
 10535  121A  0825               	movf	(___wmul@product+1),w
 10536  121B  01A1               	clrf	(?___wmul+1)
 10537  121C  07A1               	addwf	(?___wmul+1)
 10538  121D  0824               	movf	(___wmul@product),w
 10539  121E  01A0               	clrf	(?___wmul)
 10540  121F  07A0               	addwf	(?___wmul)
 10541                           
 10542  1220  2A21               	goto	l4581
 10543                           	
 10544  1221                     l8828:	
 10545                           	line	13
 10546                           	
 10547  1221                     l4581:	
 10548  1221  0008               	return
 10549                           	opt stack 0
 10550                           GLOBAL	__end_of___wmul
 10551  1222                     	__end_of___wmul:
 10552 ;; =============== function ___wmul ends ============
 10553                           
 10554                           	signat	___wmul,8314
 10555                           	global	_isdigit
 10556                           psect	text1186,local,class=CODE,delta=2
 10557                           global __ptext1186
 10558  117B                     __ptext1186:
 10559                           
 10560 ;; *************** function _isdigit *****************
 10561 ;; Defined at:
 10562 ;;		line 13 in file "../../common/isdigit.c"
 10563 ;; Parameters:    Size  Location     Type
 10564 ;;  c               1    wreg     unsigned char 
 10565 ;; Auto vars:     Size  Location     Type
 10566 ;;  c               1    1[BANK0 ] unsigned char 
 10567 ;; Return value:  Size  Location     Type
 10568 ;;		None               void
 10569 ;; Registers used:
 10570 ;;		wreg, status,2, status,0
 10571 ;; Tracked objects:
 10572 ;;		On entry : 0/0
 10573 ;;		On exit  : 0/0
 10574 ;;		Unchanged: 0/0
 10575 ;; Data sizes:     COMMON   BANK0   BANK1   BANK3   BANK2
 10576 ;;      Params:         0       0       0       0       0
 10577 ;;      Locals:         0       2       0       0       0
 10578 ;;      Temps:          0       0       0       0       0
 10579 ;;      Totals:         0       2       0       0       0
 10580 ;;Total ram usage:        2 bytes
 10581 ;; Hardware stack levels used:    1
 10582 ;; Hardware stack levels required when called:    1
 10583 ;; This function calls:
 10584 ;;		Nothing
 10585 ;; This function is called by:
 10586 ;;		_sprintf
 10587 ;; This function uses a non-reentrant model
 10588 ;;
 10589                           psect	text1186
 10590                           	file	"C:\Program Files (x86)\HI-TECH Software\PICC\9.81\sources\isdigit.c"
 10591                           	global	__size_of_isdigit
 10592  0017                     	__size_of_isdigit	equ	__end_of_isdigit-_isdigit
 10593                           	
 10594  117B                     _isdigit:	
 10595                           	opt	stack 4
 10596                           ; Regs used in _isdigit: [wreg+status,2+status,0]
 10597                           ;isdigit@c stored from wreg
 10598  117B  1283               	bcf	status, 5	;RP0=0, select bank0
 10599  117C  1303               	bcf	status, 6	;RP1=0, select bank0
 10600  117D  00A1               	movwf	(isdigit@c)
 10601                           	line	14
 10602                           	
 10603  117E                     l8806:	
 10604  117E  01A0               	clrf	(_isdigit$5752)
 10605                           	
 10606  117F                     l8808:	
 10607  117F  303A               	movlw	(03Ah)
 10608  1180  0221               	subwf	(isdigit@c),w
 10609  1181  1803               	skipnc
 10610  1182  2984               	goto	u5291
 10611  1183  2985               	goto	u5290
 10612  1184                     u5291:
 10613  1184  298F               	goto	l8814
 10614  1185                     u5290:
 10615                           	
 10616  1185                     l8810:	
 10617  1185  3030               	movlw	(030h)
 10618  1186  0221               	subwf	(isdigit@c),w
 10619  1187  1C03               	skipc
 10620  1188  298A               	goto	u5301
 10621  1189  298B               	goto	u5300
 10622  118A                     u5301:
 10623  118A  298F               	goto	l8814
 10624  118B                     u5300:
 10625                           	
 10626  118B                     l8812:	
 10627  118B  01A0               	clrf	(_isdigit$5752)
 10628  118C  1403               	bsf	status,0
 10629  118D  0DA0               	rlf	(_isdigit$5752),f
 10630  118E  298F               	goto	l8814
 10631                           	
 10632  118F                     l4562:	
 10633                           	
 10634  118F                     l8814:	
 10635  118F  0C20               	rrf	(_isdigit$5752),w
 10636                           	
 10637  1190  2991               	goto	l4563
 10638                           	
 10639  1191                     l8816:	
 10640                           	line	15
 10641                           	
 10642  1191                     l4563:	
 10643  1191  0008               	return
 10644                           	opt stack 0
 10645                           GLOBAL	__end_of_isdigit
 10646  1192                     	__end_of_isdigit:
 10647 ;; =============== function _isdigit ends ============
 10648                           
 10649                           	signat	_isdigit,4216
 10650                           	global	_strcpy
 10651                           psect	text1187,local,class=CODE,delta=2
 10652                           global __ptext1187
 10653  11AC                     __ptext1187:
 10654                           
 10655 ;; *************** function _strcpy *****************
 10656 ;; Defined at:
 10657 ;;		line 10 in file "C:\Program Files (x86)\HI-TECH Software\PICC\9.81\sources\strcpy.c"
 10658 ;; Parameters:    Size  Location     Type
 10659 ;;  to              1    wreg     PTR unsigned char 
 10660 ;;		 -> lcd_buf(16), 
 10661 ;;  from            1    0[BANK0 ] PTR const unsigned char 
 10662 ;;		 -> MainScreen3(13), WelcomeScreen2(16), WelcomeScreen1(17), MainScreen2(6), 
 10663 ;;		 -> MainScreen1(6), STR_5(12), STR_4(12), STR_3(12), 
 10664 ;;		 -> STR_2(12), STR_1(12), 
 10665 ;; Auto vars:     Size  Location     Type
 10666 ;;  to              1    2[BANK0 ] PTR unsigned char 
 10667 ;;		 -> lcd_buf(16), 
 10668 ;;  cp              1    3[BANK0 ] PTR unsigned char 
 10669 ;;		 -> lcd_buf(16), 
 10670 ;; Return value:  Size  Location     Type
 10671 ;;                  1    wreg      PTR unsigned char 
 10672 ;; Registers used:
 10673 ;;		wreg, fsr0l, fsr0h, status,2, status,0, pclath
 10674 ;; Tracked objects:
 10675 ;;		On entry : 0/0
 10676 ;;		On exit  : 0/0
 10677 ;;		Unchanged: 0/0
 10678 ;; Data sizes:     COMMON   BANK0   BANK1   BANK3   BANK2
 10679 ;;      Params:         0       1       0       0       0
 10680 ;;      Locals:         0       2       0       0       0
 10681 ;;      Temps:          0       1       0       0       0
 10682 ;;      Totals:         0       4       0       0       0
 10683 ;;Total ram usage:        4 bytes
 10684 ;; Hardware stack levels used:    2
 10685 ;; Hardware stack levels required when called:    1
 10686 ;; This function calls:
 10687 ;;		Nothing
 10688 ;; This function is called by:
 10689 ;;		_LCD_Repaint
 10690 ;;		_LCD_SetMode
 10691 ;;		_LCD_SetEditValue
 10692 ;; This function uses a non-reentrant model
 10693 ;;
 10694                           psect	text1187
 10695                           	file	"C:\Program Files (x86)\HI-TECH Software\PICC\9.81\sources\strcpy.c"
 10696                           	line	10
 10697                           	global	__size_of_strcpy
 10698  0022                     	__size_of_strcpy	equ	__end_of_strcpy-_strcpy
 10699                           	
 10700  11AC                     _strcpy:	
 10701                           	opt	stack 4
 10702                           ; Regs used in _strcpy: [wreg-fsr0h+status,2+status,0+pclath]
 10703                           ;strcpy@to stored from wreg
 10704                           	line	18
 10705  11AC  1283               	bcf	status, 5	;RP0=0, select bank0
 10706  11AD  1303               	bcf	status, 6	;RP1=0, select bank0
 10707  11AE  00A2               	movwf	(strcpy@to)
 10708                           	
 10709  11AF                     l8798:	
 10710  11AF  0822               	movf	(strcpy@to),w
 10711  11B0  00A1               	movwf	(??_strcpy+0)+0
 10712  11B1  0821               	movf	(??_strcpy+0)+0,w
 10713  11B2  00A3               	movwf	(strcpy@cp)
 10714                           	line	19
 10715  11B3  29B5               	goto	l8800
 10716                           	
 10717  11B4                     l4567:	
 10718                           	line	20
 10719  11B4  29B5               	goto	l8800
 10720                           	
 10721  11B5                     l4566:	
 10722                           	line	19
 10723                           	
 10724  11B5                     l8800:	
 10725  11B5  3001               	movlw	01h
 10726  11B6  07A0               	addwf	(strcpy@from),f
 10727  11B7  30FF               	movlw	-01h
 10728  11B8  0720               	addwf	(strcpy@from),w
 10729  11B9  0084               	movwf	fsr0
 10730  11BA  120A  118A  2015   	fcall	stringdir
              160A  118A         
 10731  11BF  00A1               	movwf	(??_strcpy+0)+0
 10732  11C0  0823               	movf	(strcpy@cp),w
 10733  11C1  0084               	movwf	fsr0
 10734  11C2  3001               	movlw	01h
 10735  11C3  07A3               	addwf	(strcpy@cp),f
 10736  11C4  0821               	movf	(??_strcpy+0)+0,w
 10737  11C5  1383               	bcf	status, 7	;select IRP bank0
 10738  11C6  0080               	movwf	indf
 10739  11C7  0880               	movf	(indf),f
 10740  11C8  1D03               	skipz
 10741  11C9  29CB               	goto	u5281
 10742  11CA  29CC               	goto	u5280
 10743  11CB                     u5281:
 10744  11CB  29B5               	goto	l8800
 10745  11CC                     u5280:
 10746  11CC  29CD               	goto	l4569
 10747                           	
 10748  11CD                     l4568:	
 10749                           	line	22
 10750                           ;	Return value of _strcpy is never used
 10751                           	
 10752  11CD                     l4569:	
 10753  11CD  0008               	return
 10754                           	opt stack 0
 10755                           GLOBAL	__end_of_strcpy
 10756  11CE                     	__end_of_strcpy:
 10757 ;; =============== function _strcpy ends ============
 10758                           
 10759                           	signat	_strcpy,8313
 10760                           	global	_putch
 10761                           psect	text1188,local,class=CODE,delta=2
 10762                           global __ptext1188
 10763  10C9                     __ptext1188:
 10764                           
 10765 ;; *************** function _putch *****************
 10766 ;; Defined at:
 10767 ;;		line 18 in file "C:\Users\Studio-Master\Desktop\Work\THC\27.05_DTHC\DisplayDTHC\usart.c"
 10768 ;; Parameters:    Size  Location     Type
 10769 ;;  byte            1    wreg     unsigned char 
 10770 ;; Auto vars:     Size  Location     Type
 10771 ;;  byte            1    0[BANK0 ] unsigned char 
 10772 ;; Return value:  Size  Location     Type
 10773 ;;		None               void
 10774 ;; Registers used:
 10775 ;;		wreg
 10776 ;; Tracked objects:
 10777 ;;		On entry : 0/0
 10778 ;;		On exit  : 0/0
 10779 ;;		Unchanged: 0/0
 10780 ;; Data sizes:     COMMON   BANK0   BANK1   BANK3   BANK2
 10781 ;;      Params:         0       0       0       0       0
 10782 ;;      Locals:         0       1       0       0       0
 10783 ;;      Temps:          0       0       0       0       0
 10784 ;;      Totals:         0       1       0       0       0
 10785 ;;Total ram usage:        1 bytes
 10786 ;; Hardware stack levels used:    1
 10787 ;; Hardware stack levels required when called:    1
 10788 ;; This function calls:
 10789 ;;		Nothing
 10790 ;; This function is called by:
 10791 ;;		_main
 10792 ;;		_getche
 10793 ;; This function uses a non-reentrant model
 10794 ;;
 10795                           psect	text1188
 10796                           	file	"C:\Users\Studio-Master\Desktop\Work\THC\27.05_DTHC\DisplayDTHC\usart.c"
 10797                           	line	18
 10798                           	global	__size_of_putch
 10799  000C                     	__size_of_putch	equ	__end_of_putch-_putch
 10800                           	
 10801  10C9                     _putch:	
 10802                           	opt	stack 6
 10803                           ; Regs used in _putch: [wreg]
 10804                           ;putch@byte stored from wreg
 10805  10C9  1283               	bcf	status, 5	;RP0=0, select bank0
 10806  10CA  1303               	bcf	status, 6	;RP1=0, select bank0
 10807  10CB  00A0               	movwf	(putch@byte)
 10808                           	line	20
 10809                           	
 10810  10CC                     l8794:	
 10811                           ;usart.c: 20: while(!TXIF)
 10812  10CC  28CD               	goto	l4498
 10813                           	
 10814  10CD                     l4499:	
 10815                           	line	21
 10816                           ;usart.c: 21: continue;
 10817                           	
 10818  10CD                     l4498:	
 10819                           	line	20
 10820  10CD  1E0C               	btfss	(100/8),(100)&7
 10821  10CE  28D0               	goto	u5271
 10822  10CF  28D1               	goto	u5270
 10823  10D0                     u5271:
 10824  10D0  28CD               	goto	l4498
 10825  10D1                     u5270:
 10826  10D1  28D2               	goto	l8796
 10827                           	
 10828  10D2                     l4500:	
 10829                           	line	22
 10830                           	
 10831  10D2                     l8796:	
 10832                           ;usart.c: 22: TXREG = byte;
 10833  10D2  0820               	movf	(putch@byte),w
 10834  10D3  0099               	movwf	(25)	;volatile
 10835                           	line	23
 10836                           	
 10837  10D4                     l4501:	
 10838  10D4  0008               	return
 10839                           	opt stack 0
 10840                           GLOBAL	__end_of_putch
 10841  10D5                     	__end_of_putch:
 10842 ;; =============== function _putch ends ============
 10843                           
 10844                           	signat	_putch,4216
 10845                           	global	_SetValueTipI
 10846                           psect	text1189,local,class=CODE,delta=2
 10847                           global __ptext1189
 10848  10F9                     __ptext1189:
 10849                           
 10850 ;; *************** function _SetValueTipI *****************
 10851 ;; Defined at:
 10852 ;;		line 274 in file "C:\Users\Studio-Master\Desktop\Work\THC\27.05_DTHC\DisplayDTHC\dthc_lcd_controller.c"
 10853 ;; Parameters:    Size  Location     Type
 10854 ;;  k               2    0[BANK0 ] unsigned int 
 10855 ;; Auto vars:     Size  Location     Type
 10856 ;;		None
 10857 ;; Return value:  Size  Location     Type
 10858 ;;		None               void
 10859 ;; Registers used:
 10860 ;;		wreg, status,2, status,0
 10861 ;; Tracked objects:
 10862 ;;		On entry : 0/0
 10863 ;;		On exit  : 0/0
 10864 ;;		Unchanged: 0/0
 10865 ;; Data sizes:     COMMON   BANK0   BANK1   BANK3   BANK2
 10866 ;;      Params:         0       2       0       0       0
 10867 ;;      Locals:         0       0       0       0       0
 10868 ;;      Temps:          0       0       0       0       0
 10869 ;;      Totals:         0       2       0       0       0
 10870 ;;Total ram usage:        2 bytes
 10871 ;; Hardware stack levels used:    1
 10872 ;; Hardware stack levels required when called:    1
 10873 ;; This function calls:
 10874 ;;		Nothing
 10875 ;; This function is called by:
 10876 ;;		_main
 10877 ;; This function uses a non-reentrant model
 10878 ;;
 10879                           psect	text1189
 10880                           	file	"C:\Users\Studio-Master\Desktop\Work\THC\27.05_DTHC\DisplayDTHC\dthc_lcd_controlle
                                 r.c"
 10881                           	line	274
 10882                           	global	__size_of_SetValueTipI
 10883  000F                     	__size_of_SetValueTipI	equ	__end_of_SetValueTipI-_SetValueTipI
 10884                           	
 10885  10F9                     _SetValueTipI:	
 10886                           	opt	stack 6
 10887                           ; Regs used in _SetValueTipI: [wreg+status,2+status,0]
 10888                           	line	275
 10889                           	
 10890  10F9                     l8792:	
 10891                           ;dthc_lcd_controller.c: 275: valueTipI = k;
 10892  10F9  1283               	bcf	status, 5	;RP0=0, select bank0
 10893  10FA  1303               	bcf	status, 6	;RP1=0, select bank0
 10894  10FB  0821               	movf	(SetValueTipI@k+1),w
 10895  10FC  1683               	bsf	status, 5	;RP0=1, select bank1
 10896  10FD  1303               	bcf	status, 6	;RP1=0, select bank1
 10897  10FE  01C7               	clrf	(dthc_lcd_controller@valueTipI+1)^080h	;volatile
 10898  10FF  07C7               	addwf	(dthc_lcd_controller@valueTipI+1)^080h	;volatile
 10899  1100  1283               	bcf	status, 5	;RP0=0, select bank0
 10900  1101  1303               	bcf	status, 6	;RP1=0, select bank0
 10901  1102  0820               	movf	(SetValueTipI@k),w
 10902  1103  1683               	bsf	status, 5	;RP0=1, select bank1
 10903  1104  1303               	bcf	status, 6	;RP1=0, select bank1
 10904  1105  01C6               	clrf	(dthc_lcd_controller@valueTipI)^080h	;volatile
 10905  1106  07C6               	addwf	(dthc_lcd_controller@valueTipI)^080h	;volatile
 10906                           
 10907                           	line	276
 10908                           	
 10909  1107                     l3459:	
 10910  1107  0008               	return
 10911                           	opt stack 0
 10912                           GLOBAL	__end_of_SetValueTipI
 10913  1108                     	__end_of_SetValueTipI:
 10914 ;; =============== function _SetValueTipI ends ============
 10915                           
 10916                           	signat	_SetValueTipI,4216
 10917                           	global	_LCD_SubMode
 10918                           psect	text1190,local,class=CODE,delta=2
 10919                           global __ptext1190
 10920  113D                     __ptext1190:
 10921                           
 10922 ;; *************** function _LCD_SubMode *****************
 10923 ;; Defined at:
 10924 ;;		line 139 in file "C:\Users\Studio-Master\Desktop\Work\THC\27.05_DTHC\DisplayDTHC\dthc_lcd_controller.c"
 10925 ;; Parameters:    Size  Location     Type
 10926 ;;  k               1    wreg     unsigned char 
 10927 ;; Auto vars:     Size  Location     Type
 10928 ;;  k               1    1[BANK0 ] unsigned char 
 10929 ;; Return value:  Size  Location     Type
 10930 ;;		None               void
 10931 ;; Registers used:
 10932 ;;		wreg, status,2, status,0
 10933 ;; Tracked objects:
 10934 ;;		On entry : 0/0
 10935 ;;		On exit  : 0/0
 10936 ;;		Unchanged: 0/0
 10937 ;; Data sizes:     COMMON   BANK0   BANK1   BANK3   BANK2
 10938 ;;      Params:         0       0       0       0       0
 10939 ;;      Locals:         0       1       0       0       0
 10940 ;;      Temps:          0       1       0       0       0
 10941 ;;      Totals:         0       2       0       0       0
 10942 ;;Total ram usage:        2 bytes
 10943 ;; Hardware stack levels used:    1
 10944 ;; Hardware stack levels required when called:    1
 10945 ;; This function calls:
 10946 ;;		Nothing
 10947 ;; This function is called by:
 10948 ;;		_main
 10949 ;; This function uses a non-reentrant model
 10950 ;;
 10951                           psect	text1190
 10952                           	file	"C:\Users\Studio-Master\Desktop\Work\THC\27.05_DTHC\DisplayDTHC\dthc_lcd_controlle
                                 r.c"
 10953                           	line	139
 10954                           	global	__size_of_LCD_SubMode
 10955  0013                     	__size_of_LCD_SubMode	equ	__end_of_LCD_SubMode-_LCD_SubMode
 10956                           	
 10957  113D                     _LCD_SubMode:	
 10958                           	opt	stack 6
 10959                           ; Regs used in _LCD_SubMode: [wreg+status,2+status,0]
 10960                           ;LCD_SubMode@k stored from wreg
 10961  113D  1283               	bcf	status, 5	;RP0=0, select bank0
 10962  113E  1303               	bcf	status, 6	;RP1=0, select bank0
 10963  113F  00A1               	movwf	(LCD_SubMode@k)
 10964                           	line	140
 10965                           	
 10966  1140                     l8786:	
 10967                           ;dthc_lcd_controller.c: 140: if ( k == 0)
 10968  1140  08A1               	movf	(LCD_SubMode@k),f
 10969  1141  1D03               	skipz
 10970  1142  2944               	goto	u5261
 10971  1143  2945               	goto	u5260
 10972  1144                     u5261:
 10973  1144  294A               	goto	l8790
 10974  1145                     u5260:
 10975                           	line	141
 10976                           	
 10977  1145                     l8788:	
 10978                           ;dthc_lcd_controller.c: 141: nameMode = 'V';
 10979  1145  3056               	movlw	(056h)
 10980  1146  00A0               	movwf	(??_LCD_SubMode+0)+0
 10981  1147  0820               	movf	(??_LCD_SubMode+0)+0,w
 10982  1148  00E6               	movwf	(dthc_lcd_controller@nameMode)
 10983  1149  294F               	goto	l3420
 10984                           	line	142
 10985                           	
 10986  114A                     l3418:	
 10987                           	line	143
 10988                           	
 10989  114A                     l8790:	
 10990                           ;dthc_lcd_controller.c: 142: else
 10991                           ;dthc_lcd_controller.c: 143: nameMode = 'I';
 10992  114A  3049               	movlw	(049h)
 10993  114B  00A0               	movwf	(??_LCD_SubMode+0)+0
 10994  114C  0820               	movf	(??_LCD_SubMode+0)+0,w
 10995  114D  00E6               	movwf	(dthc_lcd_controller@nameMode)
 10996  114E  294F               	goto	l3420
 10997                           	
 10998  114F                     l3419:	
 10999                           	line	144
 11000                           	
 11001  114F                     l3420:	
 11002  114F  0008               	return
 11003                           	opt stack 0
 11004                           GLOBAL	__end_of_LCD_SubMode
 11005  1150                     	__end_of_LCD_SubMode:
 11006 ;; =============== function _LCD_SubMode ends ============
 11007                           
 11008                           	signat	_LCD_SubMode,4216
 11009                           	global	_SetArrow
 11010                           psect	text1191,local,class=CODE,delta=2
 11011                           global __ptext1191
 11012  11CE                     __ptext1191:
 11013                           
 11014 ;; *************** function _SetArrow *****************
 11015 ;; Defined at:
 11016 ;;		line 263 in file "C:\Users\Studio-Master\Desktop\Work\THC\27.05_DTHC\DisplayDTHC\dthc_lcd_controller.c"
 11017 ;; Parameters:    Size  Location     Type
 11018 ;;  state           1    wreg     enum E292
 11019 ;; Auto vars:     Size  Location     Type
 11020 ;;  state           1    1[BANK0 ] enum E292
 11021 ;; Return value:  Size  Location     Type
 11022 ;;		None               void
 11023 ;; Registers used:
 11024 ;;		wreg, status,2, status,0
 11025 ;; Tracked objects:
 11026 ;;		On entry : 0/0
 11027 ;;		On exit  : 0/0
 11028 ;;		Unchanged: 0/0
 11029 ;; Data sizes:     COMMON   BANK0   BANK1   BANK3   BANK2
 11030 ;;      Params:         0       0       0       0       0
 11031 ;;      Locals:         0       1       0       0       0
 11032 ;;      Temps:          0       1       0       0       0
 11033 ;;      Totals:         0       2       0       0       0
 11034 ;;Total ram usage:        2 bytes
 11035 ;; Hardware stack levels used:    1
 11036 ;; Hardware stack levels required when called:    1
 11037 ;; This function calls:
 11038 ;;		Nothing
 11039 ;; This function is called by:
 11040 ;;		_main
 11041 ;; This function uses a non-reentrant model
 11042 ;;
 11043                           psect	text1191
 11044                           	file	"C:\Users\Studio-Master\Desktop\Work\THC\27.05_DTHC\DisplayDTHC\dthc_lcd_controlle
                                 r.c"
 11045                           	line	263
 11046                           	global	__size_of_SetArrow
 11047  0028                     	__size_of_SetArrow	equ	__end_of_SetArrow-_SetArrow
 11048                           	
 11049  11CE                     _SetArrow:	
 11050                           	opt	stack 6
 11051                           ; Regs used in _SetArrow: [wreg+status,2+status,0]
 11052                           ;SetArrow@state stored from wreg
 11053  11CE  1283               	bcf	status, 5	;RP0=0, select bank0
 11054  11CF  1303               	bcf	status, 6	;RP1=0, select bank0
 11055  11D0  00A1               	movwf	(SetArrow@state)
 11056                           	line	264
 11057                           	
 11058  11D1                     l8776:	
 11059                           ;dthc_lcd_controller.c: 264: Up_State = NONE_ARROW;
 11060  11D1  3016               	movlw	(016h)
 11061  11D2  00A0               	movwf	(??_SetArrow+0)+0
 11062  11D3  0820               	movf	(??_SetArrow+0)+0,w
 11063  11D4  00D7               	movwf	(_Up_State)	;volatile
 11064                           	line	265
 11065                           ;dthc_lcd_controller.c: 265: Down_State = NONE_ARROW;
 11066  11D5  3016               	movlw	(016h)
 11067  11D6  00A0               	movwf	(??_SetArrow+0)+0
 11068  11D7  0820               	movf	(??_SetArrow+0)+0,w
 11069  11D8  00D2               	movwf	(_Down_State)	;volatile
 11070                           	line	266
 11071                           ;dthc_lcd_controller.c: 266: if ( LCD_Status == LCD_RUN_MODE ) {
 11072  11D9  0864               	movf	(dthc_lcd_controller@LCD_Status),w	;volatile
 11073  11DA  3A03               	xorlw	03h
 11074  11DB  1D03               	skipz
 11075  11DC  29DE               	goto	u5231
 11076  11DD  29DF               	goto	u5230
 11077  11DE                     u5231:
 11078  11DE  29F5               	goto	l3456
 11079  11DF                     u5230:
 11080                           	line	267
 11081                           	
 11082  11DF                     l8778:	
 11083                           ;dthc_lcd_controller.c: 267: if (state == UP_ARROW)
 11084  11DF  0821               	movf	(SetArrow@state),w
 11085  11E0  3A01               	xorlw	01h
 11086  11E1  1D03               	skipz
 11087  11E2  29E4               	goto	u5241
 11088  11E3  29E5               	goto	u5240
 11089  11E4                     u5241:
 11090  11E4  29E9               	goto	l8782
 11091  11E5                     u5240:
 11092                           	line	268
 11093                           	
 11094  11E5                     l8780:	
 11095                           ;dthc_lcd_controller.c: 268: Up_State = UP_ARROW;
 11096  11E5  01D7               	clrf	(_Up_State)	;volatile
 11097  11E6  1403               	bsf	status,0
 11098  11E7  0DD7               	rlf	(_Up_State),f	;volatile
 11099  11E8  29E9               	goto	l8782
 11100                           	
 11101  11E9                     l3454:	
 11102                           	line	269
 11103                           	
 11104  11E9                     l8782:	
 11105                           ;dthc_lcd_controller.c: 269: if (state == DOWN_ARROW)
 11106  11E9  0821               	movf	(SetArrow@state),w
 11107  11EA  3A02               	xorlw	02h
 11108  11EB  1D03               	skipz
 11109  11EC  29EE               	goto	u5251
 11110  11ED  29EF               	goto	u5250
 11111  11EE                     u5251:
 11112  11EE  29F5               	goto	l3456
 11113  11EF                     u5250:
 11114                           	line	270
 11115                           	
 11116  11EF                     l8784:	
 11117                           ;dthc_lcd_controller.c: 270: Down_State = DOWN_ARROW;
 11118  11EF  3002               	movlw	(02h)
 11119  11F0  00A0               	movwf	(??_SetArrow+0)+0
 11120  11F1  0820               	movf	(??_SetArrow+0)+0,w
 11121  11F2  00D2               	movwf	(_Down_State)	;volatile
 11122  11F3  29F5               	goto	l3456
 11123                           	
 11124  11F4                     l3455:	
 11125  11F4  29F5               	goto	l3456
 11126                           	line	271
 11127                           	
 11128  11F5                     l3453:	
 11129                           	line	272
 11130                           	
 11131  11F5                     l3456:	
 11132  11F5  0008               	return
 11133                           	opt stack 0
 11134                           GLOBAL	__end_of_SetArrow
 11135  11F6                     	__end_of_SetArrow:
 11136 ;; =============== function _SetArrow ends ============
 11137                           
 11138                           	signat	_SetArrow,4216
 11139                           	global	_SetVisible_ARC
 11140                           psect	text1192,local,class=CODE,delta=2
 11141                           global __ptext1192
 11142  112B                     __ptext1192:
 11143                           
 11144 ;; *************** function _SetVisible_ARC *****************
 11145 ;; Defined at:
 11146 ;;		line 247 in file "C:\Users\Studio-Master\Desktop\Work\THC\27.05_DTHC\DisplayDTHC\dthc_lcd_controller.c"
 11147 ;; Parameters:    Size  Location     Type
 11148 ;;  eARC            1    wreg     unsigned char 
 11149 ;; Auto vars:     Size  Location     Type
 11150 ;;  eARC            1    1[BANK0 ] unsigned char 
 11151 ;; Return value:  Size  Location     Type
 11152 ;;		None               void
 11153 ;; Registers used:
 11154 ;;		wreg
 11155 ;; Tracked objects:
 11156 ;;		On entry : 0/0
 11157 ;;		On exit  : 0/0
 11158 ;;		Unchanged: 0/0
 11159 ;; Data sizes:     COMMON   BANK0   BANK1   BANK3   BANK2
 11160 ;;      Params:         0       0       0       0       0
 11161 ;;      Locals:         0       1       0       0       0
 11162 ;;      Temps:          0       1       0       0       0
 11163 ;;      Totals:         0       2       0       0       0
 11164 ;;Total ram usage:        2 bytes
 11165 ;; Hardware stack levels used:    1
 11166 ;; Hardware stack levels required when called:    1
 11167 ;; This function calls:
 11168 ;;		Nothing
 11169 ;; This function is called by:
 11170 ;;		_main
 11171 ;; This function uses a non-reentrant model
 11172 ;;
 11173                           psect	text1192
 11174                           	file	"C:\Users\Studio-Master\Desktop\Work\THC\27.05_DTHC\DisplayDTHC\dthc_lcd_controlle
                                 r.c"
 11175                           	line	247
 11176                           	global	__size_of_SetVisible_ARC
 11177  0012                     	__size_of_SetVisible_ARC	equ	__end_of_SetVisible_ARC-_SetVisible_ARC
 11178                           	
 11179  112B                     _SetVisible_ARC:	
 11180                           	opt	stack 6
 11181                           ; Regs used in _SetVisible_ARC: [wreg]
 11182                           ;SetVisible_ARC@eARC stored from wreg
 11183  112B  1283               	bcf	status, 5	;RP0=0, select bank0
 11184  112C  1303               	bcf	status, 6	;RP1=0, select bank0
 11185  112D  00A1               	movwf	(SetVisible_ARC@eARC)
 11186                           	line	248
 11187                           	
 11188  112E                     l8770:	
 11189                           ;dthc_lcd_controller.c: 248: if (eARC)
 11190  112E  0821               	movf	(SetVisible_ARC@eARC),w
 11191  112F  1D03               	skipz
 11192  1130  2932               	goto	u5220
 11193  1131  2937               	goto	l8774
 11194  1132                     u5220:
 11195                           	line	249
 11196                           	
 11197  1132                     l8772:	
 11198                           ;dthc_lcd_controller.c: 249: dispARC = StrARC;
 11199  1132  3045               	movlw	((_StrARC-__stringbase))&0ffh
 11200  1133  00A0               	movwf	(??_SetVisible_ARC+0)+0
 11201  1134  0820               	movf	(??_SetVisible_ARC+0)+0,w
 11202  1135  00DB               	movwf	(_dispARC)
 11203  1136  293C               	goto	l3444
 11204                           	line	250
 11205                           	
 11206  1137                     l3442:	
 11207                           	line	251
 11208                           	
 11209  1137                     l8774:	
 11210                           ;dthc_lcd_controller.c: 250: else
 11211                           ;dthc_lcd_controller.c: 251: dispARC = StrNull;
 11212  1137  304D               	movlw	((_StrNull-__stringbase))&0ffh
 11213  1138  00A0               	movwf	(??_SetVisible_ARC+0)+0
 11214  1139  0820               	movf	(??_SetVisible_ARC+0)+0,w
 11215  113A  00DB               	movwf	(_dispARC)
 11216  113B  293C               	goto	l3444
 11217                           	
 11218  113C                     l3443:	
 11219                           	line	252
 11220                           	
 11221  113C                     l3444:	
 11222  113C  0008               	return
 11223                           	opt stack 0
 11224                           GLOBAL	__end_of_SetVisible_ARC
 11225  113D                     	__end_of_SetVisible_ARC:
 11226 ;; =============== function _SetVisible_ARC ends ============
 11227                           
 11228                           	signat	_SetVisible_ARC,4216
 11229                           	global	_SetVisible_TOR
 11230                           psect	text1193,local,class=CODE,delta=2
 11231                           global __ptext1193
 11232  1119                     __ptext1193:
 11233                           
 11234 ;; *************** function _SetVisible_TOR *****************
 11235 ;; Defined at:
 11236 ;;		line 240 in file "C:\Users\Studio-Master\Desktop\Work\THC\27.05_DTHC\DisplayDTHC\dthc_lcd_controller.c"
 11237 ;; Parameters:    Size  Location     Type
 11238 ;;  eTOR            1    wreg     unsigned char 
 11239 ;; Auto vars:     Size  Location     Type
 11240 ;;  eTOR            1    1[BANK0 ] unsigned char 
 11241 ;; Return value:  Size  Location     Type
 11242 ;;		None               void
 11243 ;; Registers used:
 11244 ;;		wreg
 11245 ;; Tracked objects:
 11246 ;;		On entry : 0/0
 11247 ;;		On exit  : 0/0
 11248 ;;		Unchanged: 0/0
 11249 ;; Data sizes:     COMMON   BANK0   BANK1   BANK3   BANK2
 11250 ;;      Params:         0       0       0       0       0
 11251 ;;      Locals:         0       1       0       0       0
 11252 ;;      Temps:          0       1       0       0       0
 11253 ;;      Totals:         0       2       0       0       0
 11254 ;;Total ram usage:        2 bytes
 11255 ;; Hardware stack levels used:    1
 11256 ;; Hardware stack levels required when called:    1
 11257 ;; This function calls:
 11258 ;;		Nothing
 11259 ;; This function is called by:
 11260 ;;		_main
 11261 ;; This function uses a non-reentrant model
 11262 ;;
 11263                           psect	text1193
 11264                           	file	"C:\Users\Studio-Master\Desktop\Work\THC\27.05_DTHC\DisplayDTHC\dthc_lcd_controlle
                                 r.c"
 11265                           	line	240
 11266                           	global	__size_of_SetVisible_TOR
 11267  0012                     	__size_of_SetVisible_TOR	equ	__end_of_SetVisible_TOR-_SetVisible_TOR
 11268                           	
 11269  1119                     _SetVisible_TOR:	
 11270                           	opt	stack 6
 11271                           ; Regs used in _SetVisible_TOR: [wreg]
 11272                           ;SetVisible_TOR@eTOR stored from wreg
 11273  1119  1283               	bcf	status, 5	;RP0=0, select bank0
 11274  111A  1303               	bcf	status, 6	;RP1=0, select bank0
 11275  111B  00A1               	movwf	(SetVisible_TOR@eTOR)
 11276                           	line	241
 11277                           	
 11278  111C                     l8764:	
 11279                           ;dthc_lcd_controller.c: 241: if (eTOR)
 11280  111C  0821               	movf	(SetVisible_TOR@eTOR),w
 11281  111D  1D03               	skipz
 11282  111E  2920               	goto	u5210
 11283  111F  2925               	goto	l8768
 11284  1120                     u5210:
 11285                           	line	242
 11286                           	
 11287  1120                     l8766:	
 11288                           ;dthc_lcd_controller.c: 242: dispTOR = StrTOR;
 11289  1120  3049               	movlw	((_StrTOR-__stringbase))&0ffh
 11290  1121  00A0               	movwf	(??_SetVisible_TOR+0)+0
 11291  1122  0820               	movf	(??_SetVisible_TOR+0)+0,w
 11292  1123  00DC               	movwf	(_dispTOR)
 11293  1124  292A               	goto	l3439
 11294                           	line	243
 11295                           	
 11296  1125                     l3437:	
 11297                           	line	244
 11298                           	
 11299  1125                     l8768:	
 11300                           ;dthc_lcd_controller.c: 243: else
 11301                           ;dthc_lcd_controller.c: 244: dispTOR = StrNull;
 11302  1125  304D               	movlw	((_StrNull-__stringbase))&0ffh
 11303  1126  00A0               	movwf	(??_SetVisible_TOR+0)+0
 11304  1127  0820               	movf	(??_SetVisible_TOR+0)+0,w
 11305  1128  00DC               	movwf	(_dispTOR)
 11306  1129  292A               	goto	l3439
 11307                           	
 11308  112A                     l3438:	
 11309                           	line	245
 11310                           	
 11311  112A                     l3439:	
 11312  112A  0008               	return
 11313                           	opt stack 0
 11314                           GLOBAL	__end_of_SetVisible_TOR
 11315  112B                     	__end_of_SetVisible_TOR:
 11316 ;; =============== function _SetVisible_TOR ends ============
 11317                           
 11318                           	signat	_SetVisible_TOR,4216
 11319                           	global	_SetValueSetV
 11320                           psect	text1194,local,class=CODE,delta=2
 11321                           global __ptext1194
 11322  0801                     __ptext1194:
 11323                           
 11324 ;; *************** function _SetValueSetV *****************
 11325 ;; Defined at:
 11326 ;;		line 259 in file "C:\Users\Studio-Master\Desktop\Work\THC\27.05_DTHC\DisplayDTHC\dthc_lcd_controller.c"
 11327 ;; Parameters:    Size  Location     Type
 11328 ;;  k               2    0[BANK0 ] unsigned int 
 11329 ;; Auto vars:     Size  Location     Type
 11330 ;;		None
 11331 ;; Return value:  Size  Location     Type
 11332 ;;		None               void
 11333 ;; Registers used:
 11334 ;;		wreg, status,2, status,0
 11335 ;; Tracked objects:
 11336 ;;		On entry : 0/0
 11337 ;;		On exit  : 0/0
 11338 ;;		Unchanged: 0/0
 11339 ;; Data sizes:     COMMON   BANK0   BANK1   BANK3   BANK2
 11340 ;;      Params:         0       2       0       0       0
 11341 ;;      Locals:         0       0       0       0       0
 11342 ;;      Temps:          0       0       0       0       0
 11343 ;;      Totals:         0       2       0       0       0
 11344 ;;Total ram usage:        2 bytes
 11345 ;; Hardware stack levels used:    1
 11346 ;; Hardware stack levels required when called:    1
 11347 ;; This function calls:
 11348 ;;		Nothing
 11349 ;; This function is called by:
 11350 ;;		_main
 11351 ;; This function uses a non-reentrant model
 11352 ;;
 11353                           psect	text1194
 11354                           	file	"C:\Users\Studio-Master\Desktop\Work\THC\27.05_DTHC\DisplayDTHC\dthc_lcd_controlle
                                 r.c"
 11355                           	line	259
 11356                           	global	__size_of_SetValueSetV
 11357  0009                     	__size_of_SetValueSetV	equ	__end_of_SetValueSetV-_SetValueSetV
 11358                           	
 11359  0801                     _SetValueSetV:	
 11360                           	opt	stack 6
 11361                           ; Regs used in _SetValueSetV: [wreg+status,2+status,0]
 11362                           	line	260
 11363                           	
 11364  0801                     l8762:	
 11365                           ;dthc_lcd_controller.c: 260: valueSetV = k;
 11366  0801  1283               	bcf	status, 5	;RP0=0, select bank0
 11367  0802  1303               	bcf	status, 6	;RP1=0, select bank0
 11368  0803  0821               	movf	(SetValueSetV@k+1),w
 11369  0804  01CF               	clrf	(dthc_lcd_controller@valueSetV+1)	;volatile
 11370  0805  07CF               	addwf	(dthc_lcd_controller@valueSetV+1)	;volatile
 11371  0806  0820               	movf	(SetValueSetV@k),w
 11372  0807  01CE               	clrf	(dthc_lcd_controller@valueSetV)	;volatile
 11373  0808  07CE               	addwf	(dthc_lcd_controller@valueSetV)	;volatile
 11374                           
 11375                           	line	261
 11376                           	
 11377  0809                     l3450:	
 11378  0809  0008               	return
 11379                           	opt stack 0
 11380                           GLOBAL	__end_of_SetValueSetV
 11381  080A                     	__end_of_SetValueSetV:
 11382 ;; =============== function _SetValueSetV ends ============
 11383                           
 11384                           	signat	_SetValueSetV,4216
 11385                           	global	_SetValueTipV
 11386                           psect	text1195,local,class=CODE,delta=2
 11387                           global __ptext1195
 11388  10C0                     __ptext1195:
 11389                           
 11390 ;; *************** function _SetValueTipV *****************
 11391 ;; Defined at:
 11392 ;;		line 255 in file "C:\Users\Studio-Master\Desktop\Work\THC\27.05_DTHC\DisplayDTHC\dthc_lcd_controller.c"
 11393 ;; Parameters:    Size  Location     Type
 11394 ;;  k               2    0[BANK0 ] unsigned int 
 11395 ;; Auto vars:     Size  Location     Type
 11396 ;;		None
 11397 ;; Return value:  Size  Location     Type
 11398 ;;		None               void
 11399 ;; Registers used:
 11400 ;;		wreg, status,2, status,0
 11401 ;; Tracked objects:
 11402 ;;		On entry : 0/0
 11403 ;;		On exit  : 0/0
 11404 ;;		Unchanged: 0/0
 11405 ;; Data sizes:     COMMON   BANK0   BANK1   BANK3   BANK2
 11406 ;;      Params:         0       2       0       0       0
 11407 ;;      Locals:         0       0       0       0       0
 11408 ;;      Temps:          0       0       0       0       0
 11409 ;;      Totals:         0       2       0       0       0
 11410 ;;Total ram usage:        2 bytes
 11411 ;; Hardware stack levels used:    1
 11412 ;; Hardware stack levels required when called:    1
 11413 ;; This function calls:
 11414 ;;		Nothing
 11415 ;; This function is called by:
 11416 ;;		_main
 11417 ;; This function uses a non-reentrant model
 11418 ;;
 11419                           psect	text1195
 11420                           	file	"C:\Users\Studio-Master\Desktop\Work\THC\27.05_DTHC\DisplayDTHC\dthc_lcd_controlle
                                 r.c"
 11421                           	line	255
 11422                           	global	__size_of_SetValueTipV
 11423  0009                     	__size_of_SetValueTipV	equ	__end_of_SetValueTipV-_SetValueTipV
 11424                           	
 11425  10C0                     _SetValueTipV:	
 11426                           	opt	stack 6
 11427                           ; Regs used in _SetValueTipV: [wreg+status,2+status,0]
 11428                           	line	256
 11429                           	
 11430  10C0                     l8760:	
 11431                           ;dthc_lcd_controller.c: 256: valueTipV = k;
 11432  10C0  1283               	bcf	status, 5	;RP0=0, select bank0
 11433  10C1  1303               	bcf	status, 6	;RP1=0, select bank0
 11434  10C2  0821               	movf	(SetValueTipV@k+1),w
 11435  10C3  01D1               	clrf	(dthc_lcd_controller@valueTipV+1)	;volatile
 11436  10C4  07D1               	addwf	(dthc_lcd_controller@valueTipV+1)	;volatile
 11437  10C5  0820               	movf	(SetValueTipV@k),w
 11438  10C6  01D0               	clrf	(dthc_lcd_controller@valueTipV)	;volatile
 11439  10C7  07D0               	addwf	(dthc_lcd_controller@valueTipV)	;volatile
 11440                           
 11441                           	line	257
 11442                           	
 11443  10C8                     l3447:	
 11444  10C8  0008               	return
 11445                           	opt stack 0
 11446                           GLOBAL	__end_of_SetValueTipV
 11447  10C9                     	__end_of_SetValueTipV:
 11448 ;; =============== function _SetValueTipV ends ============
 11449                           
 11450                           	signat	_SetValueTipV,4216
 11451                           	global	_init_comms
 11452                           psect	text1196,local,class=CODE,delta=2
 11453                           global __ptext1196
 11454  1165                     __ptext1196:
 11455                           
 11456 ;; *************** function _init_comms *****************
 11457 ;; Defined at:
 11458 ;;		line 6 in file "C:\Users\Studio-Master\Desktop\Work\THC\27.05_DTHC\DisplayDTHC\usart.c"
 11459 ;; Parameters:    Size  Location     Type
 11460 ;;		None
 11461 ;; Auto vars:     Size  Location     Type
 11462 ;;		None
 11463 ;; Return value:  Size  Location     Type
 11464 ;;		None               void
 11465 ;; Registers used:
 11466 ;;		wreg, status,2
 11467 ;; Tracked objects:
 11468 ;;		On entry : 0/0
 11469 ;;		On exit  : 0/0
 11470 ;;		Unchanged: 0/0
 11471 ;; Data sizes:     COMMON   BANK0   BANK1   BANK3   BANK2
 11472 ;;      Params:         0       0       0       0       0
 11473 ;;      Locals:         0       0       0       0       0
 11474 ;;      Temps:          0       0       0       0       0
 11475 ;;      Totals:         0       0       0       0       0
 11476 ;;Total ram usage:        0 bytes
 11477 ;; Hardware stack levels used:    1
 11478 ;; Hardware stack levels required when called:    1
 11479 ;; This function calls:
 11480 ;;		Nothing
 11481 ;; This function is called by:
 11482 ;;		_main
 11483 ;; This function uses a non-reentrant model
 11484 ;;
 11485                           psect	text1196
 11486                           	file	"C:\Users\Studio-Master\Desktop\Work\THC\27.05_DTHC\DisplayDTHC\usart.c"
 11487                           	line	6
 11488                           	global	__size_of_init_comms
 11489  0016                     	__size_of_init_comms	equ	__end_of_init_comms-_init_comms
 11490                           	
 11491  1165                     _init_comms:	
 11492                           	opt	stack 6
 11493                           ; Regs used in _init_comms: [wreg+status,2]
 11494                           	line	7
 11495                           	
 11496  1165                     l8746:	
 11497                           ;usart.c: 7: TRISC7 = 1;
 11498  1165  1683               	bsf	status, 5	;RP0=1, select bank1
 11499  1166  1303               	bcf	status, 6	;RP1=0, select bank1
 11500  1167  1787               	bsf	(1087/8)^080h,(1087)&7
 11501                           	line	8
 11502                           ;usart.c: 8: TRISC6 = 0;
 11503  1168  1307               	bcf	(1086/8)^080h,(1086)&7
 11504                           	line	9
 11505                           	
 11506  1169                     l8748:	
 11507                           ;usart.c: 9: SPBRGH = 0;
 11508  1169  019A               	clrf	(154)^080h	;volatile
 11509                           	line	10
 11510                           	
 11511  116A                     l8750:	
 11512                           ;usart.c: 10: SPBRG = ((int)(8000000L/(16UL * 9600) -1));
 11513  116A  3033               	movlw	(033h)
 11514  116B  0099               	movwf	(153)^080h	;volatile
 11515                           	line	11
 11516                           	
 11517  116C                     l8752:	
 11518                           ;usart.c: 11: RCSTA = (0|0x90);
 11519  116C  3090               	movlw	(090h)
 11520  116D  1283               	bcf	status, 5	;RP0=0, select bank0
 11521  116E  1303               	bcf	status, 6	;RP1=0, select bank0
 11522  116F  0098               	movwf	(24)	;volatile
 11523                           	line	12
 11524                           	
 11525  1170                     l8754:	
 11526                           ;usart.c: 12: TXSTA = (0x4|0|0x20);
 11527  1170  3024               	movlw	(024h)
 11528  1171  1683               	bsf	status, 5	;RP0=1, select bank1
 11529  1172  1303               	bcf	status, 6	;RP1=0, select bank1
 11530  1173  0098               	movwf	(152)^080h	;volatile
 11531                           	line	13
 11532                           	
 11533  1174                     l8756:	
 11534                           ;usart.c: 13: RCIF = 0;
 11535  1174  1283               	bcf	status, 5	;RP0=0, select bank0
 11536  1175  1303               	bcf	status, 6	;RP1=0, select bank0
 11537  1176  128C               	bcf	(101/8),(101)&7
 11538                           	line	14
 11539                           	
 11540  1177                     l8758:	
 11541                           ;usart.c: 14: RCIE = 1;
 11542  1177  1683               	bsf	status, 5	;RP0=1, select bank1
 11543  1178  1303               	bcf	status, 6	;RP1=0, select bank1
 11544  1179  168C               	bsf	(1125/8)^080h,(1125)&7
 11545                           	line	15
 11546                           	
 11547  117A                     l4495:	
 11548  117A  0008               	return
 11549                           	opt stack 0
 11550                           GLOBAL	__end_of_init_comms
 11551  117B                     	__end_of_init_comms:
 11552 ;; =============== function _init_comms ends ============
 11553                           
 11554                           	signat	_init_comms,88
 11555                           	global	_GetButton
 11556                           psect	text1197,local,class=CODE,delta=2
 11557                           global __ptext1197
 11558  12C8                     __ptext1197:
 11559                           
 11560 ;; *************** function _GetButton *****************
 11561 ;; Defined at:
 11562 ;;		line 54 in file "C:\Users\Studio-Master\Desktop\Work\THC\27.05_DTHC\DisplayDTHC\main.c"
 11563 ;; Parameters:    Size  Location     Type
 11564 ;;		None
 11565 ;; Auto vars:     Size  Location     Type
 11566 ;;  button          1    1[BANK0 ] enum E1598
 11567 ;; Return value:  Size  Location     Type
 11568 ;;                  1    wreg      enum E1598
 11569 ;; Registers used:
 11570 ;;		wreg, status,2, status,0
 11571 ;; Tracked objects:
 11572 ;;		On entry : 0/0
 11573 ;;		On exit  : 0/0
 11574 ;;		Unchanged: 0/0
 11575 ;; Data sizes:     COMMON   BANK0   BANK1   BANK3   BANK2
 11576 ;;      Params:         0       0       0       0       0
 11577 ;;      Locals:         0       1       0       0       0
 11578 ;;      Temps:          0       1       0       0       0
 11579 ;;      Totals:         0       2       0       0       0
 11580 ;;Total ram usage:        2 bytes
 11581 ;; Hardware stack levels used:    1
 11582 ;; Hardware stack levels required when called:    1
 11583 ;; This function calls:
 11584 ;;		Nothing
 11585 ;; This function is called by:
 11586 ;;		_main
 11587 ;; This function uses a non-reentrant model
 11588 ;;
 11589                           psect	text1197
 11590                           	file	"C:\Users\Studio-Master\Desktop\Work\THC\27.05_DTHC\DisplayDTHC\main.c"
 11591                           	line	54
 11592                           	global	__size_of_GetButton
 11593  0050                     	__size_of_GetButton	equ	__end_of_GetButton-_GetButton
 11594                           	
 11595  12C8                     _GetButton:	
 11596                           	opt	stack 6
 11597                           ; Regs used in _GetButton: [wreg+status,2+status,0]
 11598                           	line	55
 11599                           	
 11600  12C8                     l8720:	
 11601                           ;main.c: 55: ButtonState button = NONE_BUTTON;
 11602  12C8  1283               	bcf	status, 5	;RP0=0, select bank0
 11603  12C9  1303               	bcf	status, 6	;RP1=0, select bank0
 11604  12CA  01A1               	clrf	(GetButton@button)
 11605                           	line	57
 11606                           ;main.c: 57: if ( PORTDbits.RD2 == 0 )
 11607  12CB  1908               	btfsc	(8),2	;volatile
 11608  12CC  2ACE               	goto	u5131
 11609  12CD  2ACF               	goto	u5130
 11610  12CE                     u5131:
 11611  12CE  2AD4               	goto	l1114
 11612  12CF                     u5130:
 11613                           	line	58
 11614                           	
 11615  12CF                     l8722:	
 11616                           ;main.c: 58: button = BUTTON_ENTER;
 11617  12CF  3003               	movlw	(03h)
 11618  12D0  00A0               	movwf	(??_GetButton+0)+0
 11619  12D1  0820               	movf	(??_GetButton+0)+0,w
 11620  12D2  00A1               	movwf	(GetButton@button)
 11621  12D3  2AF0               	goto	l1115
 11622                           	line	59
 11623                           	
 11624  12D4                     l1114:	
 11625                           	line	60
 11626                           ;main.c: 59: else
 11627                           ;main.c: 60: if ( PORTDbits.RD0 == 0 )
 11628  12D4  1808               	btfsc	(8),0	;volatile
 11629  12D5  2AD7               	goto	u5141
 11630  12D6  2AD8               	goto	u5140
 11631  12D7                     u5141:
 11632  12D7  2ADC               	goto	l1116
 11633  12D8                     u5140:
 11634                           	line	61
 11635                           	
 11636  12D8                     l8724:	
 11637                           ;main.c: 61: button = BUTTON_UP;
 11638  12D8  01A1               	clrf	(GetButton@button)
 11639  12D9  1403               	bsf	status,0
 11640  12DA  0DA1               	rlf	(GetButton@button),f
 11641  12DB  2AF0               	goto	l1115
 11642                           	line	62
 11643                           	
 11644  12DC                     l1116:	
 11645                           	line	63
 11646                           ;main.c: 62: else
 11647                           ;main.c: 63: if ( PORTDbits.RD1 == 0 )
 11648  12DC  1888               	btfsc	(8),1	;volatile
 11649  12DD  2ADF               	goto	u5151
 11650  12DE  2AE0               	goto	u5150
 11651  12DF                     u5151:
 11652  12DF  2AE5               	goto	l1118
 11653  12E0                     u5150:
 11654                           	line	64
 11655                           	
 11656  12E0                     l8726:	
 11657                           ;main.c: 64: button = BUTTON_DOWN;
 11658  12E0  3002               	movlw	(02h)
 11659  12E1  00A0               	movwf	(??_GetButton+0)+0
 11660  12E2  0820               	movf	(??_GetButton+0)+0,w
 11661  12E3  00A1               	movwf	(GetButton@button)
 11662  12E4  2AF0               	goto	l1115
 11663                           	line	65
 11664                           	
 11665  12E5                     l1118:	
 11666                           	line	66
 11667                           ;main.c: 65: else
 11668                           ;main.c: 66: if ( PORTDbits.RD3 == 0 )
 11669  12E5  1988               	btfsc	(8),3	;volatile
 11670  12E6  2AE8               	goto	u5161
 11671  12E7  2AE9               	goto	u5160
 11672  12E8                     u5161:
 11673  12E8  2AF0               	goto	l1115
 11674  12E9                     u5160:
 11675                           	line	67
 11676                           	
 11677  12E9                     l8728:	
 11678                           ;main.c: 67: button = BUTTON_AM;
 11679  12E9  3004               	movlw	(04h)
 11680  12EA  00A0               	movwf	(??_GetButton+0)+0
 11681  12EB  0820               	movf	(??_GetButton+0)+0,w
 11682  12EC  00A1               	movwf	(GetButton@button)
 11683  12ED  2AF0               	goto	l1115
 11684                           	
 11685  12EE                     l1120:	
 11686  12EE  2AF0               	goto	l1115
 11687                           	line	68
 11688                           	
 11689  12EF                     l1119:	
 11690  12EF  2AF0               	goto	l1115
 11691                           	
 11692  12F0                     l1117:	
 11693                           	
 11694  12F0                     l1115:	
 11695                           ;main.c: 68: if ( button != NONE_BUTTON ) {
 11696  12F0  0821               	movf	(GetButton@button),w
 11697  12F1  1D03               	skipz
 11698  12F2  2AF4               	goto	u5170
 11699  12F3  2B13               	goto	l1121
 11700  12F4                     u5170:
 11701                           	line	69
 11702                           	
 11703  12F4                     l8730:	
 11704                           ;main.c: 69: if ( lastButton != button ) {
 11705  12F4  0873               	movf	(_lastButton),w
 11706  12F5  0621               	xorwf	(GetButton@button),w
 11707  12F6  1903               	skipnz
 11708  12F7  2AF9               	goto	u5181
 11709  12F8  2AFA               	goto	u5180
 11710  12F9                     u5181:
 11711  12F9  2AFF               	goto	l1122
 11712  12FA                     u5180:
 11713                           	line	70
 11714                           	
 11715  12FA                     l8732:	
 11716                           ;main.c: 70: GotButtonPressed = 0;
 11717  12FA  01F0               	clrf	(_GotButtonPressed)
 11718                           	line	71
 11719                           	
 11720  12FB                     l8734:	
 11721                           ;main.c: 71: lastButton = button;
 11722  12FB  0821               	movf	(GetButton@button),w
 11723  12FC  00A0               	movwf	(??_GetButton+0)+0
 11724  12FD  0820               	movf	(??_GetButton+0)+0,w
 11725  12FE  00F3               	movwf	(_lastButton)
 11726                           	line	72
 11727                           	
 11728  12FF                     l1122:	
 11729                           	line	73
 11730                           ;main.c: 72: }
 11731                           ;main.c: 73: if ( GotButtonPressed != 40 )
 11732  12FF  0870               	movf	(_GotButtonPressed),w
 11733  1300  3A28               	xorlw	028h
 11734  1301  1903               	skipnz
 11735  1302  2B04               	goto	u5191
 11736  1303  2B05               	goto	u5190
 11737  1304                     u5191:
 11738  1304  2B07               	goto	l8738
 11739  1305                     u5190:
 11740                           	line	74
 11741                           	
 11742  1305                     l8736:	
 11743                           ;main.c: 74: button = NONE_BUTTON;
 11744  1305  01A1               	clrf	(GetButton@button)
 11745  1306  2B07               	goto	l8738
 11746                           	
 11747  1307                     l1123:	
 11748                           	line	75
 11749                           	
 11750  1307                     l8738:	
 11751                           ;main.c: 75: if ( GotButtonPressed <= 40 )
 11752  1307  3029               	movlw	(029h)
 11753  1308  0270               	subwf	(_GotButtonPressed),w
 11754  1309  1803               	skipnc
 11755  130A  2B0C               	goto	u5201
 11756  130B  2B0D               	goto	u5200
 11757  130C                     u5201:
 11758  130C  2B15               	goto	l8742
 11759  130D                     u5200:
 11760                           	line	76
 11761                           	
 11762  130D                     l8740:	
 11763                           ;main.c: 76: GotButtonPressed++;
 11764  130D  3001               	movlw	(01h)
 11765  130E  00A0               	movwf	(??_GetButton+0)+0
 11766  130F  0820               	movf	(??_GetButton+0)+0,w
 11767  1310  07F0               	addwf	(_GotButtonPressed),f
 11768  1311  2B15               	goto	l8742
 11769                           	
 11770  1312                     l1124:	
 11771                           	line	77
 11772                           ;main.c: 77: }
 11773  1312  2B15               	goto	l8742
 11774                           	line	78
 11775                           	
 11776  1313                     l1121:	
 11777                           	line	79
 11778                           ;main.c: 78: else {
 11779                           ;main.c: 79: GotButtonPressed = 0;
 11780  1313  01F0               	clrf	(_GotButtonPressed)
 11781  1314  2B15               	goto	l8742
 11782                           	line	80
 11783                           	
 11784  1315                     l1125:	
 11785                           	line	81
 11786                           	
 11787  1315                     l8742:	
 11788                           ;main.c: 80: }
 11789                           ;main.c: 81: return button;
 11790  1315  0821               	movf	(GetButton@button),w
 11791  1316  2B17               	goto	l1126
 11792                           	
 11793  1317                     l8744:	
 11794                           	line	82
 11795                           	
 11796  1317                     l1126:	
 11797  1317  0008               	return
 11798                           	opt stack 0
 11799                           GLOBAL	__end_of_GetButton
 11800  1318                     	__end_of_GetButton:
 11801 ;; =============== function _GetButton ends ============
 11802                           
 11803                           	signat	_GetButton,89
 11804                           	global	_Init_Button_Port
 11805                           psect	text1198,local,class=CODE,delta=2
 11806                           global __ptext1198
 11807  10B7                     __ptext1198:
 11808                           
 11809 ;; *************** function _Init_Button_Port *****************
 11810 ;; Defined at:
 11811 ;;		line 38 in file "C:\Users\Studio-Master\Desktop\Work\THC\27.05_DTHC\DisplayDTHC\main.c"
 11812 ;; Parameters:    Size  Location     Type
 11813 ;;		None
 11814 ;; Auto vars:     Size  Location     Type
 11815 ;;		None
 11816 ;; Return value:  Size  Location     Type
 11817 ;;		None               void
 11818 ;; Registers used:
 11819 ;;		None
 11820 ;; Tracked objects:
 11821 ;;		On entry : 0/0
 11822 ;;		On exit  : 0/0
 11823 ;;		Unchanged: 0/0
 11824 ;; Data sizes:     COMMON   BANK0   BANK1   BANK3   BANK2
 11825 ;;      Params:         0       0       0       0       0
 11826 ;;      Locals:         0       0       0       0       0
 11827 ;;      Temps:          0       0       0       0       0
 11828 ;;      Totals:         0       0       0       0       0
 11829 ;;Total ram usage:        0 bytes
 11830 ;; Hardware stack levels used:    1
 11831 ;; Hardware stack levels required when called:    1
 11832 ;; This function calls:
 11833 ;;		Nothing
 11834 ;; This function is called by:
 11835 ;;		_main
 11836 ;; This function uses a non-reentrant model
 11837 ;;
 11838                           psect	text1198
 11839                           	file	"C:\Users\Studio-Master\Desktop\Work\THC\27.05_DTHC\DisplayDTHC\main.c"
 11840                           	line	38
 11841                           	global	__size_of_Init_Button_Port
 11842  0009                     	__size_of_Init_Button_Port	equ	__end_of_Init_Button_Port-_Init_Button_Port
 11843                           	
 11844  10B7                     _Init_Button_Port:	
 11845                           	opt	stack 6
 11846                           ; Regs used in _Init_Button_Port: []
 11847                           	line	39
 11848                           	
 11849  10B7                     l8718:	
 11850                           ;main.c: 39: TRISDbits.TRISD3 = 1;
 11851  10B7  1683               	bsf	status, 5	;RP0=1, select bank1
 11852  10B8  1303               	bcf	status, 6	;RP1=0, select bank1
 11853  10B9  1588               	bsf	(136)^080h,3	;volatile
 11854                           	line	40
 11855                           ;main.c: 40: TRISDbits.TRISD0 = 1;
 11856  10BA  1408               	bsf	(136)^080h,0	;volatile
 11857                           	line	41
 11858                           ;main.c: 41: TRISDbits.TRISD1 = 1;
 11859  10BB  1488               	bsf	(136)^080h,1	;volatile
 11860                           	line	42
 11861                           ;main.c: 42: TRISDbits.TRISD2 = 1;
 11862  10BC  1508               	bsf	(136)^080h,2	;volatile
 11863                           	line	48
 11864                           ;main.c: 48: GotButtonPressed = 0;
 11865  10BD  01F0               	clrf	(_GotButtonPressed)
 11866                           	line	49
 11867                           ;main.c: 49: lastButton = NONE_BUTTON;
 11868  10BE  01F3               	clrf	(_lastButton)
 11869                           	line	52
 11870                           	
 11871  10BF                     l1111:	
 11872  10BF  0008               	return
 11873                           	opt stack 0
 11874                           GLOBAL	__end_of_Init_Button_Port
 11875  10C0                     	__end_of_Init_Button_Port:
 11876 ;; =============== function _Init_Button_Port ends ============
 11877                           
 11878                           	signat	_Init_Button_Port,88
 11879                           	global	_isr
 11880                           psect	text1199,local,class=CODE,delta=2
 11881                           global __ptext1199
 11882  14B8                     __ptext1199:
 11883                           
 11884 ;; *************** function _isr *****************
 11885 ;; Defined at:
 11886 ;;		line 497 in file "C:\Users\Studio-Master\Desktop\Work\THC\27.05_DTHC\DisplayDTHC\main.c"
 11887 ;; Parameters:    Size  Location     Type
 11888 ;;		None
 11889 ;; Auto vars:     Size  Location     Type
 11890 ;;		None
 11891 ;; Return value:  Size  Location     Type
 11892 ;;		None               void
 11893 ;; Registers used:
 11894 ;;		wreg, fsr0l, fsr0h, status,2, status,0
 11895 ;; Tracked objects:
 11896 ;;		On entry : 0/0
 11897 ;;		On exit  : 0/0
 11898 ;;		Unchanged: 0/0
 11899 ;; Data sizes:     COMMON   BANK0   BANK1   BANK3   BANK2
 11900 ;;      Params:         0       0       0       0       0
 11901 ;;      Locals:         0       0       0       0       0
 11902 ;;      Temps:          5       0       0       0       0
 11903 ;;      Totals:         5       0       0       0       0
 11904 ;;Total ram usage:        5 bytes
 11905 ;; Hardware stack levels used:    1
 11906 ;; This function calls:
 11907 ;;		Nothing
 11908 ;; This function is called by:
 11909 ;;		Interrupt level 1
 11910 ;; This function uses a non-reentrant model
 11911 ;;
 11912                           psect	text1199
 11913                           	file	"C:\Users\Studio-Master\Desktop\Work\THC\27.05_DTHC\DisplayDTHC\main.c"
 11914                           	line	497
 11915                           	global	__size_of_isr
 11916  007B                     	__size_of_isr	equ	__end_of_isr-_isr
 11917                           	
 11918  14B8                     _isr:	
 11919                           	opt	stack 2
 11920                           ; Regs used in _isr: [wreg-fsr0h+status,2+status,0]
 11921                           psect	intentry,class=CODE,delta=2
 11922                           global __pintentry
 11923  0004                     __pintentry:
 11924                           global interrupt_function
 11925  0004                     interrupt_function:
 11926                           	global saved_w
 11927  007E                     	saved_w	set	btemp+0
 11928  0004  00FE               	movwf	saved_w
 11929  0005  0E03               	swapf	status,w
 11930  0006  00F6               	movwf	(??_isr+1)
 11931  0007  0804               	movf	fsr0,w
 11932  0008  00F7               	movwf	(??_isr+2)
 11933  0009  080A               	movf	pclath,w
 11934  000A  00F8               	movwf	(??_isr+3)
 11935  000B  1283               	bcf	status, 5	;RP0=0, select bank0
 11936  000C  1303               	bcf	status, 6	;RP1=0, select bank0
 11937  000D  087F               	movf	btemp+1,w
 11938  000E  00F9               	movwf	(??_isr+4)
 11939  000F  160A  118A  2CB8   	ljmp	_isr
 11940                           psect	text1199
 11941                           	line	498
 11942                           	
 11943  14B8                     i1l7456:	
 11944                           ;main.c: 498: if ( TMR1IF && TMR1IE ) {
 11945  14B8  1C0C               	btfss	(96/8),(96)&7
 11946  14B9  2CBB               	goto	u361_21
 11947  14BA  2CBC               	goto	u361_20
 11948  14BB                     u361_21:
 11949  14BB  2CCD               	goto	i1l7466
 11950  14BC                     u361_20:
 11951                           	
 11952  14BC                     i1l7458:	
 11953  14BC  1683               	bsf	status, 5	;RP0=1, select bank1
 11954  14BD  1303               	bcf	status, 6	;RP1=0, select bank1
 11955  14BE  1C0C               	btfss	(1120/8)^080h,(1120)&7
 11956  14BF  2CC1               	goto	u362_21
 11957  14C0  2CC2               	goto	u362_20
 11958  14C1                     u362_21:
 11959  14C1  2CCD               	goto	i1l7466
 11960  14C2                     u362_20:
 11961                           	line	499
 11962                           	
 11963  14C2                     i1l7460:	
 11964                           ;main.c: 499: TMR1IF = 0;
 11965  14C2  1283               	bcf	status, 5	;RP0=0, select bank0
 11966  14C3  1303               	bcf	status, 6	;RP1=0, select bank0
 11967  14C4  100C               	bcf	(96/8),(96)&7
 11968                           	line	500
 11969                           	
 11970  14C5                     i1l7462:	
 11971                           ;main.c: 500: TMR1H = (unsigned char) (-62500 >> 8);
 11972  14C5  300B               	movlw	(0Bh)
 11973  14C6  008F               	movwf	(15)	;volatile
 11974                           	line	501
 11975                           ;main.c: 501: TMR1L = (unsigned char) (-62500);
 11976  14C7  30DC               	movlw	(0DCh)
 11977  14C8  008E               	movwf	(14)	;volatile
 11978                           	line	502
 11979                           	
 11980  14C9                     i1l7464:	
 11981                           ;main.c: 502: LCD_UPDATE_EVENT = 1;
 11982  14C9  01D5               	clrf	(_LCD_UPDATE_EVENT)	;volatile
 11983  14CA  1403               	bsf	status,0
 11984  14CB  0DD5               	rlf	(_LCD_UPDATE_EVENT),f	;volatile
 11985  14CC  2CCD               	goto	i1l7466
 11986                           	line	503
 11987                           	
 11988  14CD                     i1l1204:	
 11989                           	line	504
 11990                           	
 11991  14CD                     i1l7466:	
 11992                           ;main.c: 503: }
 11993                           ;main.c: 504: if ( RCIF && RCIE ) {
 11994  14CD  1283               	bcf	status, 5	;RP0=0, select bank0
 11995  14CE  1E8C               	btfss	(101/8),(101)&7
 11996  14CF  2CD1               	goto	u363_21
 11997  14D0  2CD2               	goto	u363_20
 11998  14D1                     u363_21:
 11999  14D1  2D27               	goto	i1l1214
 12000  14D2                     u363_20:
 12001                           	
 12002  14D2                     i1l7468:	
 12003  14D2  1683               	bsf	status, 5	;RP0=1, select bank1
 12004  14D3  1303               	bcf	status, 6	;RP1=0, select bank1
 12005  14D4  1E8C               	btfss	(1125/8)^080h,(1125)&7
 12006  14D5  2CD7               	goto	u364_21
 12007  14D6  2CD8               	goto	u364_20
 12008  14D7                     u364_21:
 12009  14D7  2D27               	goto	i1l1214
 12010  14D8                     u364_20:
 12011                           	line	505
 12012                           	
 12013  14D8                     i1l7470:	
 12014                           ;main.c: 505: RCIF = 0;
 12015  14D8  1283               	bcf	status, 5	;RP0=0, select bank0
 12016  14D9  1303               	bcf	status, 6	;RP1=0, select bank0
 12017  14DA  128C               	bcf	(101/8),(101)&7
 12018                           	line	506
 12019                           	
 12020  14DB                     i1l7472:	
 12021                           ;main.c: 506: globalTemp = RCREG;
 12022  14DB  081A               	movf	(26),w	;volatile
 12023  14DC  00F5               	movwf	(??_isr+0)+0
 12024  14DD  0875               	movf	(??_isr+0)+0,w
 12025  14DE  00F2               	movwf	(_globalTemp)	;volatile
 12026                           	line	508
 12027                           ;main.c: 508: if (globalTemp == '*' || globalTemp == '>' ) {
 12028  14DF  0872               	movf	(_globalTemp),w	;volatile
 12029  14E0  3A2A               	xorlw	02Ah
 12030  14E1  1903               	skipnz
 12031  14E2  2CE4               	goto	u365_21
 12032  14E3  2CE5               	goto	u365_20
 12033  14E4                     u365_21:
 12034  14E4  2CEC               	goto	i1l7476
 12035  14E5                     u365_20:
 12036                           	
 12037  14E5                     i1l7474:	
 12038  14E5  0872               	movf	(_globalTemp),w	;volatile
 12039  14E6  3A3E               	xorlw	03Eh
 12040  14E7  1D03               	skipz
 12041  14E8  2CEA               	goto	u366_21
 12042  14E9  2CEB               	goto	u366_20
 12043  14EA                     u366_21:
 12044  14EA  2CF6               	goto	i1l7480
 12045  14EB                     u366_20:
 12046  14EB  2CEC               	goto	i1l7476
 12047                           	
 12048  14EC                     i1l1208:	
 12049                           	line	509
 12050                           	
 12051  14EC                     i1l7476:	
 12052                           ;main.c: 509: Data_Input[0] = globalTemp;
 12053  14EC  0872               	movf	(_globalTemp),w	;volatile
 12054  14ED  00F5               	movwf	(??_isr+0)+0
 12055  14EE  0875               	movf	(??_isr+0)+0,w
 12056  14EF  1683               	bsf	status, 5	;RP0=1, select bank1
 12057  14F0  1303               	bcf	status, 6	;RP1=0, select bank1
 12058  14F1  00A0               	movwf	(_Data_Input)^080h	;volatile
 12059                           	line	510
 12060                           	
 12061  14F2                     i1l7478:	
 12062                           ;main.c: 510: countData = 1;
 12063  14F2  01F1               	clrf	(_countData)	;volatile
 12064  14F3  1403               	bsf	status,0
 12065  14F4  0DF1               	rlf	(_countData),f	;volatile
 12066                           	line	511
 12067                           ;main.c: 511: }
 12068  14F5  2D27               	goto	i1l1214
 12069                           	line	512
 12070                           	
 12071  14F6                     i1l1206:	
 12072                           	line	513
 12073                           	
 12074  14F6                     i1l7480:	
 12075                           ;main.c: 512: else
 12076                           ;main.c: 513: if (globalTemp == '#') {
 12077  14F6  0872               	movf	(_globalTemp),w	;volatile
 12078  14F7  3A23               	xorlw	023h
 12079  14F8  1D03               	skipz
 12080  14F9  2CFB               	goto	u367_21
 12081  14FA  2CFC               	goto	u367_20
 12082  14FB                     u367_21:
 12083  14FB  2D0B               	goto	i1l7490
 12084  14FC                     u367_20:
 12085                           	line	514
 12086                           	
 12087  14FC                     i1l7482:	
 12088                           ;main.c: 514: lengthDataInput = countData;
 12089  14FC  0871               	movf	(_countData),w	;volatile
 12090  14FD  00F5               	movwf	(??_isr+0)+0
 12091  14FE  0875               	movf	(??_isr+0)+0,w
 12092  14FF  1283               	bcf	status, 5	;RP0=0, select bank0
 12093  1500  00E0               	movwf	(_lengthDataInput)	;volatile
 12094                           	line	515
 12095                           	
 12096  1501                     i1l7484:	
 12097                           ;main.c: 515: Data_Input[countData] = '\0';
 12098  1501  0871               	movf	(_countData),w
 12099  1502  3EA0               	addlw	_Data_Input&0ffh
 12100  1503  0084               	movwf	fsr0
 12101  1504  1383               	bcf	status, 7	;select IRP bank1
 12102  1505  0180               	clrf	indf
 12103                           	line	516
 12104                           	
 12105  1506                     i1l7486:	
 12106                           ;main.c: 516: countData = 0;
 12107  1506  01F1               	clrf	(_countData)	;volatile
 12108                           	line	517
 12109                           	
 12110  1507                     i1l7488:	
 12111                           ;main.c: 517: UART_RECEIVE_EVENT = 1;
 12112  1507  01D6               	clrf	(_UART_RECEIVE_EVENT)	;volatile
 12113  1508  1403               	bsf	status,0
 12114  1509  0DD6               	rlf	(_UART_RECEIVE_EVENT),f	;volatile
 12115                           	line	518
 12116                           ;main.c: 518: }
 12117  150A  2D27               	goto	i1l1214
 12118                           	line	519
 12119                           	
 12120  150B                     i1l1210:	
 12121                           	line	520
 12122                           	
 12123  150B                     i1l7490:	
 12124                           ;main.c: 519: else
 12125                           ;main.c: 520: if ( countData!=0 && countData < 15 ) {
 12126  150B  0871               	movf	(_countData),w	;volatile
 12127  150C  1D03               	skipz
 12128  150D  2D0F               	goto	u368_20
 12129  150E  2D22               	goto	i1l1212
 12130  150F                     u368_20:
 12131                           	
 12132  150F                     i1l7492:	
 12133  150F  300F               	movlw	(0Fh)
 12134  1510  0271               	subwf	(_countData),w	;volatile
 12135  1511  1803               	skipnc
 12136  1512  2D14               	goto	u369_21
 12137  1513  2D15               	goto	u369_20
 12138  1514                     u369_21:
 12139  1514  2D22               	goto	i1l1212
 12140  1515                     u369_20:
 12141                           	line	521
 12142                           	
 12143  1515                     i1l7494:	
 12144                           ;main.c: 521: Data_Input[countData++] = globalTemp;
 12145  1515  0872               	movf	(_globalTemp),w	;volatile
 12146  1516  00F5               	movwf	(??_isr+0)+0
 12147  1517  0871               	movf	(_countData),w
 12148  1518  3EA0               	addlw	_Data_Input&0ffh
 12149  1519  0084               	movwf	fsr0
 12150  151A  0875               	movf	(??_isr+0)+0,w
 12151  151B  1383               	bcf	status, 7	;select IRP bank1
 12152  151C  0080               	movwf	indf
 12153                           	
 12154  151D                     i1l7496:	
 12155  151D  3001               	movlw	(01h)
 12156  151E  00F5               	movwf	(??_isr+0)+0
 12157  151F  0875               	movf	(??_isr+0)+0,w
 12158  1520  07F1               	addwf	(_countData),f	;volatile
 12159                           	line	522
 12160                           ;main.c: 522: }
 12161  1521  2D27               	goto	i1l1214
 12162                           	line	523
 12163                           	
 12164  1522                     i1l1212:	
 12165                           	line	524
 12166                           ;main.c: 523: else {
 12167                           ;main.c: 524: countData = 0;
 12168  1522  01F1               	clrf	(_countData)	;volatile
 12169  1523  2D27               	goto	i1l1214
 12170                           	line	525
 12171                           	
 12172  1524                     i1l1213:	
 12173  1524  2D27               	goto	i1l1214
 12174                           	
 12175  1525                     i1l1211:	
 12176  1525  2D27               	goto	i1l1214
 12177                           	
 12178  1526                     i1l1209:	
 12179  1526  2D27               	goto	i1l1214
 12180                           	line	526
 12181                           	
 12182  1527                     i1l1205:	
 12183                           	line	527
 12184                           	
 12185  1527                     i1l1214:	
 12186  1527  0879               	movf	(??_isr+4),w
 12187  1528  1283               	bcf	status, 5	;RP0=0, select bank0
 12188  1529  00FF               	movwf	btemp+1
 12189  152A  0878               	movf	(??_isr+3),w
 12190  152B  008A               	movwf	pclath
 12191  152C  0877               	movf	(??_isr+2),w
 12192  152D  0084               	movwf	fsr0
 12193  152E  0E76               	swapf	(??_isr+1)^0FFFFFF80h,w
 12194  152F  0083               	movwf	status
 12195  1530  0EFE               	swapf	saved_w,f
 12196  1531  0E7E               	swapf	saved_w,w
 12197  1532  0009               	retfie
 12198                           	opt stack 0
 12199                           GLOBAL	__end_of_isr
 12200  1533                     	__end_of_isr:
 12201 ;; =============== function _isr ends ============
 12202                           
 12203                           	signat	_isr,88
 12204                           psect	text1200,local,class=CODE,delta=2
 12205                           global __ptext1200
 12206  0000                     __ptext1200:
 12207                           	global	btemp
 12208  007E                     	btemp set 07Eh
 12209                           
 12210                           	DABS	1,126,2	;btemp
 12211                           	global	wtemp0
 12212  007E                     	wtemp0 set btemp
 12213  0FFD  120A  118A  2EE3   


HI-TECH Software PICC Macro Assembler V9.81 build 7503 
Symbol Table                                                                                   Sat Jun 02 19:04:21 2012

                    _Init_DTHC_LCD 080A                                  pc 0002  
                    SetArrow@state 0021                       ___awdiv@sign 0026  
                               _bt 0058               __size_of_WriteCmdLCD 00DA  
                      ?_LCD_Update 0075                                 fsr 0004  
              ___wmul@multiplicand 0022                       ?_LCD_SetMode 0075  
                     ?_LCD_Repaint 0075                                _GIE 005F  
                     ?_LCD_SubMode 0075                                _isr 14B8  
                              fsr0 0004                                indf 0000  
                     ___awmod@sign 0026              __size_of_WriteDataLCD 00DC  
                       _Data_Input 00A0                               l1111 10BF  
                             l1120 12EE                               l1200 0FFA  
                             l1121 1313                               l1201 0FFA  
                             l1122 12FF                               l1114 12D4  
                             l1130 0B97                               l1123 1307  
                             l1115 12F0                               l1131 06E3  
                             l1124 1312                               l1116 12DC  
                             l1140 088E                               l1132 085A  
                             l1125 1315                               l1117 12F0  
                             l1141 08AC                               l1126 1317  
                             l1118 12E5                               l1150 0AEF  
                             l1142 08A4                               l1134 06F2  
                             l1119 12EF                               l1135 0AF2  
                             l1151 097A                               l1143 08AB  
                             l1160 0B11                               l1136 0AF1  
                             l1152 09B7                               l1144 08E8  
                             l1161 0B16                               l1153 0A1F  
                             l1137 08E9                               l1145 08DC  
                             l1129 06D5                               l1170 0B8A  
                             l1162 0B3D                               l1154 0A86  
                             l1146 08C5                               l1138 0878  
                             l1171 0B7D                               l1163 0B2D  
                             l1155 0AE3                               l1147 08E7  
                             l1139 08AD                               l1180 0C4B  
                             l1156 0BA5                               l1172 0B7F  
                             l1164 0B32                               l1148 0AF0  
                             l1181 0C04                               l1173 0B8C  
                             l1165 0B3F                               l1157 0AF3  
                             l1149 0912                               l1190 0DB2  
                             l1182 0C2F                               l1174 0B92  
                             l1166 0B8B                               l1158 0B3E  
                             l1183 0F97                               l1191 0E77  
                             l1175 0B94                               l1167 0B70  
                             l1159 0B24                               l1184 0F96  
                             l1192 0F3D                               l1176 0B95  
                             l1168 0B5A                               l1193 0FB5  
                             l1185 0C61                               l1177 0BCC  
                             l1169 0B62                               l1194 0FF0  
                             l1186 0C8B                               l1178 0BCB  
                             l2251 10E0                               l1179 0FF6  
                             l1187 0C7C                               l2260 1659  
                             l1196 0FC8                               l1188 0F95  
                             l1197 0FD3                               l1189 0D44  
                             l2254 10EC                               l1198 0FEB  
                             l2271 165F                               l2263 11A0  
                             l1199 0FF9                               l2280 17FF  
                             l2272 165E                               l2264 11A6  
                             l2273 1669                               l2265 11AB  
                             l3401 058D                               l2274 1725  
                             l3402 0536                               l2283 0708  
                             l3403 0568                               l3411 15B2  
                             l3420 114F                               l2292 1281  
                             l2284 0707                               l2268 10F8  
                             l3404 0578                               l3412 1577  
                             l2277 172B                               l2285 0712  
                             l3405 0577                               l3413 15B5  
                             l2278 172A                               l2286 07DE  
                             l3430 0428                               l3406 05F7  
                             l3414 15B4                               l2279 1735  
                             l2295 07E6                               l3431 0445  
                             l3423 034C                               l3407 05F6  
                             l3415 15B5                               l2296 07FE  
                             l3424 04CB                               l3432 0479  
                             l3408 05F7                               l2289 10AE  
                             l2297 07FE                               l3433 0496  
                             l3425 034D                               l3450 0809  
                             l3442 1137                               l3418 114A  
                             l3434 04EA                               l3426 04E4  
                             l3443 113C                               l3419 114F  
                             l3427 0381                               l3444 113C  
                             l4500 10D2                               l3428 03B7  
                             l3437 1125                               l3453 11F5  
                             l4501 10D4                               l3429 03EC  
                             l3438 112A                               l3454 11E9  
                             l3462 141F                               l3470 1441  
                             l3447 10C8                               l3439 112A  
                             l3455 11F4                               l3463 13F7  
                             l3456 11F5                               l4600 12BF  
                             l3464 13E8                               l4601 12C7  
                             l4521 02C6                               l3465 13F1  
                             l4530 0148                               l4522 00DA  
                             l3466 13F1                               l3459 1107  
                             l4531 015F                               l4523 00EC  
                             l3467 13FD                               l4540 01C0  
                             l4532 0169                               l4524 0146  
                             l3396 0835                               l3468 1410  
                             l4541 01AA                               l4533 0162  
                             l4525 0104                               l3397 084C  
                             l3469 1441                               l4550 0255  
                             l4542 01D1                               l4534 0177  
                             l4526 0145                               l3398 0859  
                             l4551 0275                               l4527 01D9  
                             l4543 01D2                               l4535 0188  
                             l4720 14A6                               l4552 025C  
                             l4544 01D3                               l4536 018B  
                             l4528 0147                               l4721 1478  
                             l4529 02DA                               l4553 0274  
                             l4545 01F0                               l4537 0198  
                             l4562 118F                               l4722 146C  
                             l4554 02BA                               l4546 0207  
                             l4538 018C                               l4563 1191  
                             l4723 147D                               l4555 027A  
                             l4547 022F                               l4539 01A9  
                             l4580 121A                               l4724 147E  
                             l4556 02C5                               l4548 0224  
                             l4581 1221                               l4725 1497  
                             l4557 02D9                               l4549 0250  
                             l4566 11B5                               l4590 135F  
                             l4726 14A5                               l4718 1452  
                             l4558 02E1                               l4495 117A  
                             l4567 11B4                               l4591 1367  
                             l4727 14B0                               l4719 1460  
                             l4568 11CD                               l4584 1360  
                             l4728 14B7                               l9000 018C  
                             l4569 11CD                               l4585 1332  
                             l4498 10CD                               l4578 11FB  
                             l4586 1326                               l4594 12C0  
                             l9010 01BB                               l9002 0193  
                             l4499 10CD                               l4579 1205  
                             l4587 1337                               l4595 129A  
                             l4588 1338                               l4596 128E  
                             l9020 01F0                               l9012 01C0  
                             l9004 0198                               l9100 1748  
                             l4589 1351                               l4597 129F  
                             l4598 12A0                               l4790 138C  
                             l9030 0207                               l9022 01F8  
                             l9014 01D3                               l9006 01AA  
                             l9110 17A4                               l9102 1750  
                             l4599 12B1                               l4791 139D  
                             l4792 139E                               l9040 0242  
                             l9032 0223                               l9024 01FC  
                             l9016 01D8                               l9008 01B7  
                             l9120 17E0                               l9112 17AC  
                             l9104 1763                               l9200 15B9  
                             l4793 13AF                               l4794 13BD  
                             l4786 1378                               l9050 0267  
                             l9042 0250                               l9034 0224  
                             l9026 01FF                               l9018 01D9  
                             l9122 17EF                               l9114 17AF  
                             l9106 1775                               l9130 166F  
                             l9210 15C0                               l9202 15BC  
                             l4795 13C8                               l4787 1382  
                             l4796 13CF                               l4788 13BE  
                             l9060 02BA                               l9052 0275  
                             l9044 0255                               l9036 0228  
                             l9028 0206                               l9124 17F7  
                             l9116 17C0                               l9108 1788  
                             l9140 1699                               l9132 1674  
                             l9300 1638                               l9220 15C7  
                             l9212 15C1                               l9204 15BD  
                             ?_isr 0075                               l4789 1398  
                             l9054 027A                               l9046 025C  
                             l9038 022F                               l9062 02C6  
                             l9070 125A                               l9118 17D2  
                             l9150 16CB                               l9142 16AC  
                             l9134 167C                               l9126 165D  
                             l9310 1653                               l9302 163D  
                             l9230 15D9                               l9222 15D3  
                             l9214 15C2                               l9206 15BE  
                             l9056 02AE                               l9048 0263  
                             l9064 02DA                               l9080 1273  
                             l9072 125F                               l9160 171D  
                             l9152 16CE                               l9144 16BE  
                             l9136 1684                               l9128 165F  
                             l9304 1643                               l9240 15E6  
                             l9232 15DA                               l9224 15D6  
                             l9216 15C5                               l9208 15BF  
                             l9312 1195                               l9320 07DF  
                             l9400 03D4                               l9066 02E1  
                             l9058 02B5                               l9090 1281  
                             l9082 1276                               l9074 1267  
                             l9162 1720                               l9154 1710  
                             l9146 16C3                               l9138 1687  
                             l9170 071D                               l9306 1648  
                             l9250 15ED                               l9242 15E9  
                             l9234 15DB                               l9226 15D7  
                             l9218 15C6                               l9314 1199  
                             l9322 07E6                               l9330 0810  
                             l9410 040E                               l9402 03E6  
                             l9084 127B                               l9076 126D  
                             l9068 1250                               l9092 1729  
                             l9156 1715                               l9148 16C6  
                             l9180 0765                               l9172 0725  
                             l9164 0706                               l9308 164E  
                             l9260 15FC                               l9252 15EE  
                             l9244 15EA                               l9236 15DC  
                             l9228 15D8                               l9316 11A0  
                             l9324 07EF                               l9340 0834  
                             l9332 081C                               l9420 0445  
                             l9412 041C                               l9404 03EC  
                             l9500 05B6                               l9086 127E  
                             l9078 126E                               l9094 172B  
                             l9158 1718                               l9190 07B1  
                             l9182 077C                               l9174 072D  
                             l9166 0708                               l9270 160B  
                             l9262 1601                               l9254 15EF  
                             l9246 15EB                               l9238 15E1  
                             l9318 10ED                               l9326 07F5  
                             l9350 0852                               l9342 0835  
                             l9334 0821                               l9430 0479  
                             l9422 0450                               l9414 0428  
                             l9406 03F7                               l9510 05E9  
                             l9502 05D5                               l8720 12C8  
                             l8800 11B5                               l9088 127F  
                             l9096 173B                               l9192 07BF  
                             l9184 0784                               l9176 0740  
                             l9168 0718                               l9280 1614  
                             l9272 160C                               l9264 1606  
                             l9256 15F4                               l9248 15EC  
                             l9352 0855                               l9344 083F  
                             l9336 0824                               l9328 080A  
                             l9440 04AD                               l9432 0484  
                             l9424 045C                               l9416 0433  
                             l9408 0403                               l9360 02F0  
                             l9512 05ED                               l9504 05DB  
                             l9520 13DF                               l9600 062A  
                             l8730 12F4                               l8722 12CF  
                             l8810 1185                               l9098 1740  
                             l9194 07CE                               l9186 078C  
                             l9178 0752                               l9290 1621  
                             l9282 1617                               l9274 160D  
                             l9266 1609                               l9258 15F7  
                             l9354 0856                               l9346 0845  
                             l9338 082A                               l9442 04B8  
                             l9434 0490                               l9426 0461  
                             l9418 043F                               l9450 04E4  
                             l9370 032F                               l9362 02FB  
                             l9514 05F1                               l9506 05DF  
                             l9530 13FD                               l9522 13E5  
                             l9610 063A                               l9602 062F  
                             l8740 130D                               l8732 12FA  
                             l8724 12D8                               l8812 118B  
                             l8820 11FB                               l8900 147E  
                             l9196 07D6                               l9188 079F  
                             l9292 1622                               l9284 161C  
                             l9276 160E                               l9268 160A  
                             l9348 084C                               l9444 04C4  
                             l9436 0496                               l9428 0467  
                             l9380 0364                               l9372 0341  
                             l9364 0307                               l9356 02E5  
                             l9508 05E3                               l9460 0514  
                             l9452 04EB                               l9532 1403  
                             l9524 13E8                               l9540 141F  
                             l9516 13D3                               l9700 08AD  
                             l9620 0662                               l9612 0642  
                             l9604 0632                               l8718 10B7  
                             l8742 1315                               l8734 12FB  
                             l8726 12E0                               l8750 116A  
                             l8814 118F                               l8806 117E  
                             l8822 11FF                               l8830 1318  
                             l8902 148F                               l8910 14A6  
                             l9294 1627                               l9286 161F  
                             l9278 160F                               l9198 15B6  
                             l9446 04CA                               l9438 04A1  
                             l9390 0398                               l9382 036F  
                             l9374 0346                               l9366 0312  
                             l9358 02EB                               l9470 0551  
                             l9462 051C                               l9454 04F3  
                             l9542 142F                               l9534 140B  
                             l9526 13EE                               l9518 13D9  
                             l9550 1541                               l9710 08DC  
                             l9702 08B5                               l9630 0683  
                             l9622 066A                               l9614 064A  
                             l9606 0633                               l8744 1317  
                             l8736 1305                               l8728 12E9  
                             l8752 116C                               l8760 10C0  
                             l8816 1191                               l8808 117F  
                             l8824 120C                               l8840 1332  
                             l8832 131C                               l8912 14AA  
                             l8904 1495                               l8920 136F  
                             l9296 162D                               l9288 1620  
                             l9392 039D                               l9384 037B  
                             l9376 034D                               l9368 031E  
                             l9448 04CB                               l9480 0578  
                             l9472 0559                               l9464 0522  
                             l9456 04F9                               l9544 1435  
                             l9536 1410                               l9528 13F7  
                             l9560 157D                               l9552 154C  
                             l9800 0B62                               l9720 0959  
                             l9704 08BD                               l9712 08E9  
                             l9640 06AE                               l9632 0684  
                             l9624 0672                               l9616 0652  
                             l9608 0634                               l8738 1307  
                             l8754 1170                               l8746 1165  
                             l8762 0801                               l8770 112E  
                             l8826 121A                               l8818 11F6  
                             l8850 1358                               l8842 1338  
                             l8834 1322                               l8914 14B0  
                             l8906 1497                               l8930 138C  
                             l8922 1378                               l9298 1632  
                             l9394 03A3                               l9386 0381  
                             l9378 0358                               l9482 057C  
                             l9474 0561                               l9466 053C  
                             l9458 050F                               l9490 058D  
                             l9538 1416                               l9562 1589  
                             l9554 1558                               l9546 1536  
                             l9810 0B96                               l9802 0B70  
                             l9730 09AB                               l9722 0963  
                             l9714 08FD                               l9706 08C5  
                             l9650 06CC                               l9642 06B4  
                             l9634 0693                               l9626 067A  
                             l9618 065A                               l9570 05F8  
                             l8756 1174                               l8748 1169  
                             l8764 111C                               l8772 1132  
                             l8780 11E5                               l8828 1221  
                             l8844 1349                               l8836 1326  
                             l8852 1360                               l8860 128E  
                             l8916 14B7                               l8908 149E  
                             l8940 13AF                               l8932 1393  
                             l8924 137C                               l9396 03BD  
                             l9388 038C                               l9492 0593  
                             l9484 0580                               l9476 0568  
                             l9468 054C                               l9564 159A  
                             l9556 155D                               l9548 153B  
                             l9900 0DFE                               l9820 0BBB  
                             l9804 0B78                               l9740 0A19  
                             l9732 09B1                               l9724 0969  
                             l9716 0903                               l9708 08D7  
                             l9660 06E9                               l9812 0B97  
                             l9652 06D1                               l9644 06BA  
                             l9636 0698                               l9628 0682  
                             l9580 0608                               l9572 05FD  
                             l8758 1177                               l8766 1120  
                             l8774 1137                               l8782 11E9  
                             l8790 114A                               l8854 1367  
                             l8846 134F                               l8838 132D  
                             l8870 12B1                               l8862 1295  
                             l8950 13CF                               l8942 13B6  
                             l8934 1398                               l8926 1382  
                             l8918 1368                               l9398 03C9  
                             l9494 0599                               l9486 0584  
                             l9478 0570                               l9566 15AC  
                             l9558 1563                               l9910 0E97  
                             l9902 0E30                               l9830 0BDA  
                             l9822 0BC6                               l9806 0B7F  
                             l9750 0A8A                               l9742 0A1F  
                             l9734 09B7                               l9726 0974  
                             l9718 0915                               l9814 0BA5  
                             l9670 085A                               l9662 06F2  
                             l9654 06D5                               l9646 06C0  
                             l9638 06A3                               l9590 061D  
                             l9582 060D                               l9574 0601  
                             l8768 1125                               l8784 11EF  
                             l8776 11D1                               l8792 10F9  
                             l8848 1351                               l8872 12B8  
                             l8864 129A                               l8856 1282  
                             l8880 1449                               l8936 139E  
                             l8928 1388                               l8944 13BE  
                             l8952 10D5                               l8960 00DA  
                             l9496 05AB                               l9488 0588  
                             l9568 15B3                               l9912 0EA3  
                             l9920 0F3D                               l9904 0E55  
                             l9840 0C24                               l9832 0BEF  
                             l9816 0BAB                               l9824 0BCC  
                             l9808 0B90                               l9760 0AC4  
                             l9752 0A92                               l9744 0A63  
                             l9736 09FB                               l9728 097A  
                             l9680 0878                               l9672 0860  
                             l9664 06F6                               l9656 06D6  
                             l9648 06C6                               l9592 061F  
                             l9584 0612                               l9576 0602  
                             l8778 11DF                               l8786 1140  
                             l8794 10CC                               l8866 12A0  
                             l8858 128A                               l8874 12C0  
                             l8890 1462                               l8882 1452  
                             l8946 13C2                               l8938 13A8  
                             l8954 10E1                               l8970 00EF  
                             l8962 00E0                               l9498 05B0  
                             l9930 0F82                               l9922 0F44  
                             l9914 0EC4                               l9906 0E77  
                             l9850 0C60                               l9834 0BF8  
                             l9842 0C4B                               l9826 0BD1  
                             l9818 0BAC                               l9770 0AF3  
                             l9762 0ACE                               l9754 0A9A  
                             l9746 0A75                               l9738 0A0D  
                             l9690 0896                               l9682 087E  
                             l9674 0865                               l9666 06F7  
                             l9658 06E3                               l9594 0621  
                             l9586 0618                               l9578 0605  
                             l8788 1145                               l8796 10D2  
                             l8876 12C7                               l8868 12AA  
                             l8892 1468                               l8884 1456  
                             l8948 13C8                               l8956 10A8  
                             l8980 0148                               l8972 00FF  
                             l8964 00E7                               l9940 0FAB  
                             l9932 0F8C                               l9924 0F4C  
                             l9916 0EF6                               l9908 0E8E  
                             l9860 0C8B                               l9852 0C61  
                             l9844 0C53                               l9836 0C04  
                             l9828 0BD2                               l9780 0B16  
                             l9772 0AFB                               l9764 0AD8  
                             l9756 0AA2                               l9748 0A81  
                             l9692 089A                               l9684 0882  
                             l9676 0868                               l9668 06FD  
                             l9596 0624                               l9588 061C  
                             l8798 11AF                               l8894 146C  
                             l8886 145B                               l8878 1442  
                             l8990 0162                               l8982 0151  
                             l8974 0104                               l8966 00EC  
                             l8958 00D5                               l9950 0FC2  
                             l9942 0FB1                               l9926 0F64  
                             l9918 0F1B                               l9870 0CC0  
                             l9862 0C8F                               l9854 0C76  
                             l9846 0C56                               l9934 0F97  
                             l9838 0C1B                               l9790 0B3F  
                             l9774 0AFF                               l9782 0B24  
                             l9758 0ABA                               l9766 0AE3  
                             l9694 089F                               l9686 088C  
                             l9678 0872                               l9598 0627  
                             STR_1 0081                               l8896 1473  
                             l8888 1460                               l8992 0169  
                             l8984 0155                               l8976 0130  
                             l8968 00EE                               l9960 0FE5  
                             l9952 0FCB                               l9936 0F9F  
                             l9944 0FB5                               l9928 0F78  
                             l9880 0D4F                               l9872 0CD9  
                             l9864 0CA6                               l9856 0C7C  
                             l9848 0C59                               l9792 0B47  
                             l9784 0B2A                               l9776 0B09  
                             l9768 0AE8                               l9696 08A2  
                             l9688 088E                               STR_2 0069  
                             STR_3 0075                               l8898 1478  
                             l8994 0177                               l8986 015A  
                             l8978 0134                               l9954 0FD2  
                             l9962 0FF0                               l9946 0FB6  
                             l9938 0FA5                               l9890 0D93  
                             l9882 0D55                               l9874 0D03  
                             l9866 0CAF                               l9858 0C84  
                             l9794 0B4B                               l9786 0B2D  
                             l9778 0B11                               l9698 08A4  
                             STR_4 008D                               STR_5 0099  
                             l8996 0181                               l8988 015F  
                             l9956 0FD3                               l9948 0FBD  
                             l9884 0D5D                               l9892 0DB2  
                             l9876 0D22                               l9868 0CB5  
                             l9796 0B54                               l9788 0B32  
                             STR_6 00A5                               STR_7 00AA  
                             l8998 0188                               l9958 0FDD  
                             l9894 0DC8                               l9886 0D6F  
                             l9878 0D44                               l9798 0B5A  
                             STR_8 00CE                               STR_9 00CE  
                             l9896 0DD1                               l9888 0D75  
                             l9898 0DDD                               u5200 130D  
                             u5201 130C                               u5130 12CF  
                             u5210 1120            __size_of_Lcd_Init_Delay 000C  
                             u5131 12CE                               u5140 12D8  
                             u5220 1132                               u5300 118B  
                             u6100 04F3                               u5141 12D7  
                             u5301 118A                               u6005 0768  
                             u6101 04F2                               u5150 12E0  
                             u5230 11DF                               u5310 11FF  
                             u6030 1199                               u6110 0522  
                             u5151 12DF                               u5231 11DE  
                             u5311 11FE                               u6015 0791  
                             u5160 12E9                               u5240 11E5  
                             u6040 07FD                               u6120 0561  
                             u6200 153B                               u5161 12E8  
                             u5241 11E4                               u6025 07A2  
                             u6041 07FC                               u6121 0560  
                             u6201 153A                               u5170 12F4  
                             u5250 11EF                               u5410 135E  
                             u6050 0833                               u6130 0570  
                             u6210 1541                               u5251 11EE  
                             u5411 135D                               u6051 0832  
                             u6131 056F                               u6211 1540  
                             _PEIE 005E                               u5180 12FA  
                             u5260 1145                               u5340 1219  
                             u5420 128A                               u5500 1468  
                             u6060 084B                               u6140 0593  
                             u6220 1563                               u6300 08BD  
                             u5181 12F9                               u5261 1144  
                             u5341 1218                               u5325 1206  
                             u5405 1352                               u5421 1289  
                             u5501 1467                               u6061 084A  
                             u6141 0592                               u6301 08BC  
                             u5190 1305                               u5270 10D1  
                             u5350 1322                               u6070 02EB  
                             u6150 13D9                               u6310 08E6  
                             u6230 06E9                               u5191 1304  
                             u5271 10D0                               u5335 120D  
                             u5351 1321                               u6071 02EA  
                             u6151 13D8                               u6311 08E5  
                             u6231 06E8                               u5280 11CC  
                             u5440 129E                               u5520 147C  
                             u5600 1388                               u6080 02F0  
                             u6160 13DF                               u6400 0AFF  
                             u6320 08FD                               u6240 06F1  
                             u5281 11CB                               u5441 129D  
                             u5521 147B                               u5601 1387  
                             u6081 02EF                               u6161 13DE  
                             u6321 08FC                               u6241 06EE  
                             u5290 1185                               u5370 1336  
                             u5450 12AA                               u6090 03A3  
                             u6170 13E5                               u6410 0B09  
                             u6330 0963                               u6250 0860  
                             u5291 1184                               u5371 1335  
                             u5451 12A9                               u5435 128F  
                             u5515 146D                               u6171 13E4  
                             u6411 0B08                               u6331 0962  
                             u6251 085F                               _RCIE 0465  
                             u5540 148F                               u5620 139C  
                             u5700 015A                               u6180 13EE  
                             u6500 0BD1                               u6420 0B2A  
                             u6340 09AB                               u6260 0865  
                             _RCIF 0065                               u5365 1327  
                             u5541 148E                               u5621 139B  
                             u5701 0159                               u6181 13ED  
                             u6341 09AA                               u6325 08F9  
                             u6261 0864                               u5390 1349  
                             u5470 12BE                               u5630 13A8  
                             u5710 0176                               u6190 140B  
                             u6510 0BDA                               u6430 0B47  
                             u6350 0A0D                               u6270 0872  
                             u5391 1348                               u5471 12BD  
                             u5455 12A6                               u5535 147F  
                             u5631 13A7                               u5615 138D  
                             u5711 0175                               u6191 140A  
                             u6511 0BD9                               u6431 0B46  
                             u6351 0A0C                               u6335 095F  
                             u6271 0871                               u5560 14A4  
                             u5480 1449                               u5800 0273  
                             u5720 0181                               u6600 0D55  
                             u6520 0BF8                               u6440 0B4B  
                             u6360 0A75                               u6280 087E  
                             u5385 1339                               u5465 12B2  
                             u5561 14A3                               u5545 148B  
                             u5481 1448                               u5801 0272  
                             u5721 0180                               u6601 0D54  
                             u6521 0BF7                               u6361 0A74  
                             u6345 09A7                               u6281 087D  
                             u5570 14AA                               u5490 1456  
                             u5650 13BC                               u5810 02C4  
                             u5730 01A8                               u6530 0C24  
                             u6450 0B54                               u6370 0A8A  
                             u6290 0896                               u5395 1345  
                             u5555 1498                               u5491 1455  
                             u5651 13BB                               u5635 13A4  
                             u5811 02C3                               u5731 01A7  
                             u6531 0C23                               u6451 0B53  
                             u6355 0A09                               u6291 0895  
                             u5660 13C2                               u5580 136F  
                             u5820 02D8                               u5740 01D0  
                             u5900 1669                               u6700 0FEB  
                             u6620 0DD1                               u6540 0C53  
                             u6460 0B78                               u5645 13B0  
                             u5581 136E                               u5821 02D7  
                             u5741 01CF                               u5725 017D  
                             u5901 1668                               u6701 0FEA  
                             u6621 0DD0                               u6541 0C52  
                             u6461 0B77                               u6365 0A71  
                             u5590 137C                               u5750 0205  
                             u5670 00E0                               u5830 1735  
                             u6630 0E97                               u6550 0C5F  
                             u6470 0B90                               u6390 0AFB  
                             u5591 137B                               u5751 0204  
                             u5735 01A4                               u5671 00DF  
                             u5831 1734                               u6631 0E96  
                             u6615 0D64                               u6551 0C5E  
                             u6471 0B8F                               u6391 0AFA  
                             u5760 0222                               u5680 00FF  
                             u6560 0C76                               u6480 0BAB  
                             u5761 0221                               u5745 01CC  
                             u5681 00FE                               u6561 0C75  
                             u6385 0AA9                               u5770 022E  
                             u5690 0144                               u6650 0F9F  
                             u6570 0C8A                               u6490 0BBB  
                             u5771 022D                               u5691 0143  
                             u5915 168A                               u6651 0F9E  
                             u6571 0C89                               u6491 0BBA  
                             u5780 0242                               u6660 0FBD  
                             u6580 0C8F                               u5781 0241  
                             u5765 021E                               u5845 1755  
                             u5925 169C                               u6661 0FBC  
                             u6645 0F53                               u6717 068C  
                             u5790 025B                               u6670 0FC2  
                             u6590 0CAF                               u5791 025A  
                             u5855 1766                               u5935 16AF  
                             u6727 0816                               u6671 0FC1  
                             u6591 0CAE                               u5960 0712  
                             u6680 0FC8                               u5785 023E  
                             u5865 1778                               u5945 16D8  
                             u5961 0711                               u6737 15CD  
                             u6690 0FD1                               u6747 10AC  
                             u5875 178B                               u5955 16E9  
                             u6691 0FD0                               u6757 10E7  
                             u5885 17B2                               u6767 10DB  
                             u5895 17C3                               u5975 0732  
                             u5985 0743                               u5995 0755  
                             _TXIF 0064                               _main 05F8  
                             _mode 0067                               btemp 007E  
           __end_of_SetVisible_ARC 113D             __end_of_SetVisible_TOR 112B  
                             start 0012                     ?_Init_DTHC_LCD 0075  
                    _maxCountEnter 0061                              ??_isr 0075  
                     _WriteDataLCD 0703                      ?_Read_BusyLCD 0075  
                            ?_main 0075                    __end_of___awdiv 14B8  
dthc_lcd_controller@initMainScreen 0065                              STR_10 00CE  
                            STR_11 00CE                              STR_12 00CE  
                            STR_13 00C8                              STR_14 00C2  
                            STR_15 00BC                              STR_16 00B6  
                            STR_17 00AF                    __end_of___awmod 13D0  
                      _Data_Output 00AF                              _ANSEL 0188  
                  ___awdiv@divisor 0020                              _T1CON 0010  
                  __end_of___lwdiv 1368                    __end_of___lwmod 12C8  
                  ___awdiv@counter 0025                              _RCREG 001A  
                            _RCSTA 0018                              _TMR1H 000F  
                            _TMR1L 000E                              _SPBRG 0099  
                            _TXREG 0019                              _TXSTA 0098  
                 _LCD_SetEditValue 13D0                              _count 0059  
                  __end_of_isdigit 1192                              _value 00DE  
                            _putch 10C9                              pclath 000A  
              __size_of_LCD_Update 010D                  ?_Init_Button_Port 0075  
                            status 0003                              wtemp0 007E  
                  __end_of_sprintf 02E2                         _Down_State 0052  
                  ?_SetVisible_ARC 0075                    ?_SetVisible_TOR 0075  
               ??_Init_Button_Port 0020                     WriteCmdLCD@cmd 0023  
               __size_of_Clear_LCD 000C                     ??_Read_BusyLCD 0021  
                           ??_main 0042                   __end_of_SetArrow 11F6  
               __size_of_GetButton 0050                       LCD_SubMode@k 0021  
                 ___awdiv@dividend 0022                             ?_putch 0075  
                           _ANSELH 0189                             i1l1210 150B  
                           i1l1211 1525                             i1l1212 1522  
                           i1l1204 14CD                             i1l1205 1527  
                           i1l1213 1524                             i1l1206 14F6  
                           i1l1214 1527                             i1l1208 14EC  
                           i1l1209 1526                             i1l7460 14C2  
                           i1l7470 14D8                             i1l7462 14C5  
                           i1l7480 14F6                             i1l7472 14DB  
                           i1l7464 14C9                             i1l7456 14B8  
                           i1l7482 14FC                             i1l7490 150B  
                           i1l7474 14E5                             i1l7458 14BC  
                           i1l7466 14CD                             i1l7492 150F  
                           i1l7484 1501                             i1l7476 14EC  
                           i1l7468 14D2                             i1l7494 1515  
                           i1l7486 1506                             i1l7478 14F2  
                           i1l7496 151D                             i1l7488 1507  
                           _INTCON 000B                             u361_20 14BC  
                           u361_21 14BB                             u362_20 14C2  
                           u362_21 14C1                             u363_20 14D2  
                           u363_21 14D1                             u364_20 14D8  
                           u364_21 14D7                             u365_20 14E5  
                           u365_21 14E4                             u366_20 14EB  
                           u366_21 14EA                             u367_20 14FC  
                           u367_21 14FB                             u368_20 150F  
                           u369_20 1515                             u369_21 1514  
            __size_of_Delay_tW_LCD 0007                             _TMR1IE 0460  
                           _TMR1IF 0060                             _SPBRGH 009A  
                           _TMR1ON 0080                             _WDTCON 0105  
         __size_of_Initial_4bitLCD 00A4                             _TRISC6 043E  
                           _TRISC7 043F                      SetValueSetV@k 0020  
                    SetValueTipI@k 0020                      SetValueTipV@k 0020  
                  ??_Init_DTHC_LCD 0027                             _StrARC 005F  
                           _StrTOR 0063                             ___wmul 11F6  
                        ??___awdiv 0024                 __size_of_SetCursor 00CC  
                        ??___awmod 0024                          ??___lwdiv 002A  
                        ??___lwmod 0024                        _MainScreen1 0053  
                      _MainScreen2 0059                        _MainScreen3 0046  
                      _MainScreen4 01A0                   ___awdiv@quotient 0027  
                  ___awmod@divisor 0020                    ___awmod@counter 0025  
                           clrloop 10B0                             _strcpy 11AC  
                  LCD_SetMode@mode 0041                          ??_isdigit 0020  
             __size_of_LCD_SetMode 0209               __size_of_LCD_Repaint 0083  
                           saved_w 007E                       _Delay_tW_LCD 10A8  
             __size_of_LCD_SubMode 0013                          ??_sprintf 0032  
                   _Lcd_Init_Delay 10D5             Enable_Blink_LCD@enable 0024  
                __end_of_Clear_LCD 10F9                  __end_of_GetButton 1318  
                ?_Enable_Blink_LCD 0075                      ?_SetValueSetV 0020  
                    ?_SetValueTipI 0020                      ?_SetValueTipV 0020  
                _voltage_set_value 004C                     __pcstackCOMMON 0075  
               ??_Enable_Blink_LCD 0024                       __pidataBANK0 07FF  
                     __pidataBANK3 1150                       ??_LCD_Update 0040  
                    __end_of_putch 10D5                   _LCD_UPDATE_EVENT 0055  
           __end_of_Lcd_Init_Delay 10E1                  __end_of_SetCursor 1726  
                     sprintf@width 003A                            ??_putch 0020  
                       __pbssBANK0 004A                         __pbssBANK1 00A0  
             __end_of_Read_BusyLCD 1282                 __end_of_LCD_Update 05F8  
                   ??_SetValueSetV 0022                     ??_SetValueTipI 0022  
                   ??_SetValueTipV 0022                          ?_SetArrow 0075  
                       __pmaintext 05F8                      ??_WriteCmdLCD 0021  
         __end_of_LCD_SetEditValue 1442                  ??_Initial_4bitLCD 0024  
                          ?___wmul 0020                         __pintentry 0004  
                       __ptext1200 0000                         __ptext1170 10ED  
                       __ptext1171 1192                         __ptext1180 10D5  
                       __ptext1172 15B6                         __ptext1164 1533  
                       __ptext1181 1368                         __ptext1173 0703  
                       __ptext1165 13D0                         __ptext1190 113D  
                       __ptext1182 1442                         __ptext1174 165A  
                       __ptext1166 04EB                         __ptext1191 11CE  
                       __ptext1183 1282                         __ptext1175 1726  
                       __ptext1167 02E2                         __ptext1192 112B  
                       __ptext1184 1318                         __ptext1176 1250  
                       __ptext1168 080A                         __ptext1193 1119  
                       __ptext1185 11F6                         __ptext1177 00D2  
                       __ptext1169 07DF                         __ptext1194 0801  
                       __ptext1186 117B                         __ptext1178 10A8  
                       __ptext1195 10C0                         __ptext1187 11AC  
                       __ptext1179 10E1                         __ptext1196 1165  
                       __ptext1188 10C9                         __ptext1197 12C8  
                       __ptext1189 10F9                         __ptext1198 10B7  
                       __ptext1199 14B8                            ?_strcpy 0020  
               __size_of_print_LCD 0020                   _countLCD_Repaint 00BE  
                  ?_Lcd_Init_Delay 0075                   _CustomCharacters 0190  
                 ??_SetVisible_ARC 0020                   ??_SetVisible_TOR 0020  
                       _globalTemp 0072                         _countEnter 005A  
                       _countTimer 00C8                         ??_SetArrow 0020  
                       _lastButton 0073              main@REQUIRED_TRANSMIT 01A5  
                          _StrNull 0067                            ___awdiv 1442  
                          ___awmod 1368                    __size_of___wmul 002C  
                          ___lwdiv 1318                            ___lwmod 1282  
                       _init_comms 1165                     _initMainScreen 005F  
        __size_of_Init_Button_Port 0009                            _dispARC 005B  
                          _dispTOR 005C                __end_of_WriteCmdLCD 1800  
                          _lcd_buf 00CE                    __size_of_strcpy 0022  
                          _dpowers 001B                            _isdigit 117B  
                     __size_of_isr 007B                   ___awmod@dividend 0022  
                 _GotButtonPressed 0070                            _sprintf 00D2  
             end_of_initialization 124C                            init_ram 110C  
                __end_of_print_LCD 07FF                          _PORTAbits 0005  
                        _PORTBbits 0006                          _PORTDbits 0008  
                   _WelcomeScreen1 0025                     _WelcomeScreen2 0036  
             __end_of_SetValueSetV 080A               __end_of_SetValueTipI 1108  
             __end_of_SetValueTipV 10C9                          _TRISAbits 0085  
                        _TRISBbits 0086                          _TRISDbits 0088  
            __size_of_Read_BusyLCD 0032        dthc_lcd_controller@nameMode 0066  
                       main@maxVol 01AC                         main@minVol 01AE  
                        _Clear_LCD 10ED              __end_of_Init_DTHC_LCD 085A  
                        _GetButton 12C8                        _WriteCmdLCD 1726  
                      ?_init_comms 0075                     __end_of___wmul 1222  
                     _Read_BusyLCD 1250                      ??_LCD_SetMode 0040  
                    ??_LCD_Repaint 0040                      _saveLevelTemp 0074  
                    ??_LCD_SubMode 0020                     Init_DTHC_LCD@i 002A  
        __size_of_Enable_Blink_LCD 001A                     __end_of_strcpy 11CE  
              start_initialization 1222                 _UART_RECEIVE_EVENT 0056  
                      __end_of_isr 1533                  _Lcd_Special_Delay 10E1  
               ?_Lcd_Special_Delay 0075                    _Initial_4bitLCD 15B6  
                        _SetCursor 165A                         ?_Clear_LCD 0075  
              ??_Lcd_Special_Delay 0020                 SetVisible_ARC@eARC 0021  
             main@compareAmpeValue 01AB                  __size_of_SetArrow 0028  
                       ?_GetButton 0075                           ??___wmul 0024  
                ?_LCD_SetEditValue 0026                      ?_WriteDataLCD 0075  
     dthc_lcd_controller@enableARC 00CC                        __pdataBANK0 0067  
                      __pdataBANK3 0190       dthc_lcd_controller@enableTOR 00CD  
               ??_LCD_SetEditValue 0027                   _Init_Button_Port 10B7  
                 SetCursor@address 0023                   ??_Lcd_Init_Delay 0020  
                         ??_strcpy 0021                     LCD_Repaint@cmd 0041  
        __end_of_Lcd_Special_Delay 10ED                        __pbssCOMMON 0070  
                    __pcstackBANK0 0020                      __pcstackBANK3 01A5  
              __end_of_LCD_SetMode 04EB                __end_of_LCD_Repaint 15B6  
                 WriteDataLCD@data 0023                       _isdigit$5752 0020  
              __end_of_LCD_SubMode 1150                 SetVisible_TOR@eTOR 0021  
              __size_of_init_comms 0016                        sprintf@_val 003D  
                      sprintf@flag 0036                        sprintf@prec 0037  
                       ?_SetCursor 0075                 _FLAG_VALUE_CHANGED 0053  
                        _main$6110 01A6                   ___lwdiv@dividend 0028  
                        _enableARC 005D                          _enableTOR 005E  
                   ??_WriteDataLCD 0021                           ?___awdiv 0020  
                         ?___awmod 0020       dthc_lcd_controller@valueSetV 004E  
     dthc_lcd_controller@valueTipI 00C6                           ?___lwdiv 0026  
                  main@compareMode 01AA       dthc_lcd_controller@valueTipV 0050  
                         ?___lwmod 0020              __size_of_SetValueSetV 0009  
            __size_of_SetValueTipI 000F              LCD_SetEditValue@value 0026  
            __size_of_SetValueTipV 0009                          __pstrings 0015  
                        _countData 0071                           ?_isdigit 0075  
          __end_of_Initial_4bitLCD 165A                   ___lwdiv@quotient 002C  
                         ?_sprintf 002E                     __size_of_putch 000C  
                interrupt_function 0004                     ___wmul@product 0024  
                        _unIntTemp 004A                        ??_Clear_LCD 0024  
                     _SetValueSetV 0801                       _SetValueTipI 10F9  
                     _SetValueTipV 10C0                          _valueEdit 00CB  
                        _valueSetV 00C0                          _valueTipI 00C2  
                      ??_GetButton 0020                          _valueTipV 00C4  
                        _print_LCD 07DF                         print_LCD@p 0025  
                      __stringbase 001A                  ___wmul@multiplier 0020  
                      _LCD_SetMode 02E2                        _LCD_Repaint 1533  
                 _Enable_Blink_LCD 1192                        _LCD_SubMode 113D  
       __size_of_Lcd_Special_Delay 000C                          main@count 01A8  
    dthc_lcd_controller@LCD_Status 0064                      ?_Delay_tW_LCD 0075  
                 main@requiredInit 01A9                    GetButton@button 0021  
                      _countUpdate 00C9                        ??_SetCursor 0021  
                         _SetArrow 11CE                           _Up_State 0057  
          __size_of_SetVisible_ARC 0012            __size_of_SetVisible_TOR 0012  
                     ?_WriteCmdLCD 0075                          init_fetch 1108  
                       ?_print_LCD 0075                       ??_init_comms 0020  
                 __size_of___awdiv 0076                   __size_of___awmod 0068  
                 __size_of___lwdiv 0050                   __size_of___lwmod 0046  
                   ??_Delay_tW_LCD 0020                   __size_of_isdigit 0017  
                 ?_Initial_4bitLCD 0075                    ___lwdiv@divisor 0026  
                  ___lwdiv@counter 002B               __end_of_WriteDataLCD 07DF  
                 __size_of_sprintf 0210                           _nameMode 0062  
                       strcpy@from 0020           __end_of_Init_Button_Port 10C0  
                    __size_of_main FA08                 __end_of_init_comms 117B  
                         clear_ram 10AF                           _tempMode 0063  
                       _LCD_Update 04EB                         _LCD_Status 0054  
                         main@temp 01B0                    _lengthDataInput 0060  
                        putch@byte 0020          __size_of_LCD_SetEditValue 0072  
                         isdigit@c 0021             __size_of_Init_DTHC_LCD 0050  
                    _curEditCursor 00CA                           intlevel1 0000  
                        sprintf@ap 0038                          sprintf@sp 0039  
                 ___lwmod@dividend 0022                LCD_SetEditValue@pos 0028  
                        stringcode 0015                        ??_print_LCD 0024  
                         sprintf@c 003C                           sprintf@f 002E  
                  ___lwmod@divisor 0020                           strcpy@cp 0023  
                         strcpy@to 0022                    ___lwmod@counter 0025  
                         stringdir 0015                           stringtab 0015  
         __end_of_Enable_Blink_LCD 11AC               __end_of_Delay_tW_LCD 10AF  
                   _SetVisible_ARC 112B                     _SetVisible_TOR 1119  
